PARTICIPANT_ID	TEST_SECTION_ID	SENTENCE	USER_INPUT	KEYSTROKE_ID	PRESS_TIME	RELEASE_TIME	LETTER	KEYCODE
100134	1092492	Appointing Jeff as CFO is one important step in that process.	Appointing Jeff as CFO is one important step in that process.  	51963299	1473276434005	1473276434298	CAPS_LOCK	20
100134	1092492	Appointing Jeff as CFO is one important step in that process.	Appointing Jeff as CFO is one important step in that process.  	51963297	1473276434140	1473276434270	A	65
100134	1092492	Appointing Jeff as CFO is one important step in that process.	Appointing Jeff as CFO is one important step in that process.  	51963300	1473276434827	1473276434958	CAPS_LOCK	20
100134	1092492	Appointing Jeff as CFO is one important step in that process.	Appointing Jeff as CFO is one important step in that process.  	51963301	1473276434976	1473276435077	p	80
100134	1092492	Appointing Jeff as CFO is one important step in that process.	Appointing Jeff as CFO is one important step in that process.  	51963303	1473276435156	1473276435292	o	79
100134	1092492	Appointing Jeff as CFO is one important step in that process.	Appointing Jeff as CFO is one important step in that process.  	51963305	1473276435708	1473276435816	BKSP	8
100134	1092492	Appointing Jeff as CFO is one important step in that process.	Appointing Jeff as CFO is one important step in that process.  	51963745	1473276435907	1473276436015	[	80
100134	1092492	Appointing Jeff as CFO is one important step in that process.	Appointing Jeff as CFO is one important step in that process.  	51963751	1473276436456	1473276436588	BKSP	8
100134	1092492	Appointing Jeff as CFO is one important step in that process.	Appointing Jeff as CFO is one important step in that process.  	51963755	1473276437341	1473276437513	BKSP	8
100134	1092492	Appointing Jeff as CFO is one important step in that process.	Appointing Jeff as CFO is one important step in that process.  	51963758	1473276438789	1473276438857	BKSP	8
100134	1092492	Appointing Jeff as CFO is one important step in that process.	Appointing Jeff as CFO is one important step in that process.  	51963764	1473276438956	1473276439040	BKSP	8
100134	1092492	Appointing Jeff as CFO is one important step in that process.	Appointing Jeff as CFO is one important step in that process.  	51963770	1473276439115	1473276439236	BKSP	8
100134	1092492	Appointing Jeff as CFO is one important step in that process.	Appointing Jeff as CFO is one important step in that process.  	51963774	1473276440947	1473276441122	CAPS_LOCK	20
100134	1092492	Appointing Jeff as CFO is one important step in that process.	Appointing Jeff as CFO is one important step in that process.  	51963779	1473276441076	1473276441217	A	65
100134	1092492	Appointing Jeff as CFO is one important step in that process.	Appointing Jeff as CFO is one important step in that process.  	51963785	1473276441168	1473276441334	CAPS_LOCK	20
100134	1092492	Appointing Jeff as CFO is one important step in that process.	Appointing Jeff as CFO is one important step in that process.  	51963794	1473276441273	1473276441369	p	80
100134	1092492	Appointing Jeff as CFO is one important step in that process.	Appointing Jeff as CFO is one important step in that process.  	51963803	1473276441442	1473276441544	o	80
100134	1092492	Appointing Jeff as CFO is one important step in that process.	Appointing Jeff as CFO is one important step in that process.  	51963813	1473276441627	1473276441669	p	80
100134	1092492	Appointing Jeff as CFO is one important step in that process.	Appointing Jeff as CFO is one important step in that process.  	51963968	1473276441775	1473276441860	o	79
100134	1092492	Appointing Jeff as CFO is one important step in that process.	Appointing Jeff as CFO is one important step in that process.  	51963976	1473276441960	1473276442042	i	73
100134	1092492	Appointing Jeff as CFO is one important step in that process.	Appointing Jeff as CFO is one important step in that process.  	51963984	1473276442287	1473276442382	BKSP	8
100134	1092492	Appointing Jeff as CFO is one important step in that process.	Appointing Jeff as CFO is one important step in that process.  	51963991	1473276442444	1473276442508	BKSP	8
100134	1092492	Appointing Jeff as CFO is one important step in that process.	Appointing Jeff as CFO is one important step in that process.  	51964000	1473276442576	1473276442670	BKSP	8
100134	1092492	Appointing Jeff as CFO is one important step in that process.	Appointing Jeff as CFO is one important step in that process.  	51964012	1473276443128	1473276443207	p	80
100134	1092492	Appointing Jeff as CFO is one important step in that process.	Appointing Jeff as CFO is one important step in that process.  	51964023	1473276443424	1473276444277	BKSP	8
100134	1092492	Appointing Jeff as CFO is one important step in that process.	Appointing Jeff as CFO is one important step in that process.  	51964029	1473276444333	1473276444483	CAPS_LOCK	20
100134	1092492	Appointing Jeff as CFO is one important step in that process.	Appointing Jeff as CFO is one important step in that process.  	51964034	1473276444456	1473276444561	A	65
100134	1092492	Appointing Jeff as CFO is one important step in that process.	Appointing Jeff as CFO is one important step in that process.  	51964038	1473276444518	1473276444659	CAPS_LOCK	20
100134	1092492	Appointing Jeff as CFO is one important step in that process.	Appointing Jeff as CFO is one important step in that process.  	51964531	1473276444647	1473276444757	[	219
100134	1092492	Appointing Jeff as CFO is one important step in that process.	Appointing Jeff as CFO is one important step in that process.  	51964536	1473276444727	1473276444973	p	80
100134	1092492	Appointing Jeff as CFO is one important step in that process.	Appointing Jeff as CFO is one important step in that process.  	51964540	1473276445128	1473276445205	BKSP	8
100134	1092492	Appointing Jeff as CFO is one important step in that process.	Appointing Jeff as CFO is one important step in that process.  	51964546	1473276445279	1473276445364	BKSP	8
100134	1092492	Appointing Jeff as CFO is one important step in that process.	Appointing Jeff as CFO is one important step in that process.  	51964551	1473276445429	1473276445558	BKSP	8
100134	1092492	Appointing Jeff as CFO is one important step in that process.	Appointing Jeff as CFO is one important step in that process.  	51964561	1473276450401	1473276450704	CAPS_LOCK	20
100134	1092492	Appointing Jeff as CFO is one important step in that process.	Appointing Jeff as CFO is one important step in that process.  	51964557	1473276450523	1473276450629	A	65
100134	1092492	Appointing Jeff as CFO is one important step in that process.	Appointing Jeff as CFO is one important step in that process.  	51964563	1473276450700	1473276450837	[	219
100134	1092492	Appointing Jeff as CFO is one important step in that process.	Appointing Jeff as CFO is one important step in that process.  	51964567	1473276450798	1473276450886	P	80
100134	1092492	Appointing Jeff as CFO is one important step in that process.	Appointing Jeff as CFO is one important step in that process.  	51964571	1473276450965	1473276451078	P	80
100134	1092492	Appointing Jeff as CFO is one important step in that process.	Appointing Jeff as CFO is one important step in that process.  	51964765	1473276451271	1473276451305	BKSP	8
100134	1092492	Appointing Jeff as CFO is one important step in that process.	Appointing Jeff as CFO is one important step in that process.  	51964769	1473276451381	1473276451445	BKSP	8
100134	1092492	Appointing Jeff as CFO is one important step in that process.	Appointing Jeff as CFO is one important step in that process.  	51964774	1473276451528	1473276451624	BKSP	8
100134	1092492	Appointing Jeff as CFO is one important step in that process.	Appointing Jeff as CFO is one important step in that process.  	51964784	1473276451650	1473276451784	CAPS_LOCK	20
100134	1092492	Appointing Jeff as CFO is one important step in that process.	Appointing Jeff as CFO is one important step in that process.  	51964794	1473276451785	1473276451927	[	219
100134	1092492	Appointing Jeff as CFO is one important step in that process.	Appointing Jeff as CFO is one important step in that process.  	51964805	1473276451956	1473276452073	p	80
100134	1092492	Appointing Jeff as CFO is one important step in that process.	Appointing Jeff as CFO is one important step in that process.  	51964815	1473276452235	1473276452318	BKSP	8
100134	1092492	Appointing Jeff as CFO is one important step in that process.	Appointing Jeff as CFO is one important step in that process.  	51964822	1473276452381	1473276452465	BKSP	8
100134	1092492	Appointing Jeff as CFO is one important step in that process.	Appointing Jeff as CFO is one important step in that process.  	51964828	1473276452607	1473276452663	BKSP	8
100134	1092492	Appointing Jeff as CFO is one important step in that process.	Appointing Jeff as CFO is one important step in that process.  	51964830	1473276453298	1473276453446	CAPS_LOCK	20
100134	1092492	Appointing Jeff as CFO is one important step in that process.	Appointing Jeff as CFO is one important step in that process.  	51964835	1473276453438	1473276453547	A	65
100134	1092492	Appointing Jeff as CFO is one important step in that process.	Appointing Jeff as CFO is one important step in that process.  	51964843	1473276453496	1473276453628	CAPS_LOCK	20
100134	1092492	Appointing Jeff as CFO is one important step in that process.	Appointing Jeff as CFO is one important step in that process.  	51964849	1473276453631	1473276453768	p	80
100134	1092492	Appointing Jeff as CFO is one important step in that process.	Appointing Jeff as CFO is one important step in that process.  	51964900	1473276453750	1473276453875	o	79
100134	1092492	Appointing Jeff as CFO is one important step in that process.	Appointing Jeff as CFO is one important step in that process.  	51964903	1473276453944	1473276454035	o	79
100134	1092492	Appointing Jeff as CFO is one important step in that process.	Appointing Jeff as CFO is one important step in that process.  	51964907	1473276454171	1473276454258	BKSP	8
100134	1092492	Appointing Jeff as CFO is one important step in that process.	Appointing Jeff as CFO is one important step in that process.  	51964913	1473276454322	1473276454431	BKSP	8
100134	1092492	Appointing Jeff as CFO is one important step in that process.	Appointing Jeff as CFO is one important step in that process.  	51964920	1473276454516	1473276454676	p	80
100134	1092492	Appointing Jeff as CFO is one important step in that process.	Appointing Jeff as CFO is one important step in that process.  	51964925	1473276454594	1473276454752	o	79
100134	1092492	Appointing Jeff as CFO is one important step in that process.	Appointing Jeff as CFO is one important step in that process.  	51964933	1473276454888	1473276455069	i	73
100134	1092492	Appointing Jeff as CFO is one important step in that process.	Appointing Jeff as CFO is one important step in that process.  	51964943	1473276455033	1473276455169	n	78
100134	1092492	Appointing Jeff as CFO is one important step in that process.	Appointing Jeff as CFO is one important step in that process.  	51964947	1473276455165	1473276455271	t	84
100134	1092492	Appointing Jeff as CFO is one important step in that process.	Appointing Jeff as CFO is one important step in that process.  	51964953	1473276455237	1473276455397	i	73
100134	1092492	Appointing Jeff as CFO is one important step in that process.	Appointing Jeff as CFO is one important step in that process.  	51964957	1473276455287	1473276455424	n	78
100134	1092492	Appointing Jeff as CFO is one important step in that process.	Appointing Jeff as CFO is one important step in that process.  	51964962	1473276455383	1473276455513	g	71
100134	1092492	Appointing Jeff as CFO is one important step in that process.	Appointing Jeff as CFO is one important step in that process.  	51965053	1473276455507	1473276455614	 	32
100134	1092492	Appointing Jeff as CFO is one important step in that process.	Appointing Jeff as CFO is one important step in that process.  	51965061	1473276455703	1473276455800	h	72
100134	1092492	Appointing Jeff as CFO is one important step in that process.	Appointing Jeff as CFO is one important step in that process.  	51965073	1473276455934	1473276456027	BKSP	8
100134	1092492	Appointing Jeff as CFO is one important step in that process.	Appointing Jeff as CFO is one important step in that process.  	51965082	1473276456130	1473276456278	CAPS_LOCK	20
100134	1092492	Appointing Jeff as CFO is one important step in that process.	Appointing Jeff as CFO is one important step in that process.  	51965087	1473276456211	1473276456318	J	74
100134	1092492	Appointing Jeff as CFO is one important step in that process.	Appointing Jeff as CFO is one important step in that process.  	51965095	1473276456363	1473276456503	CAPS_LOCK	20
100134	1092492	Appointing Jeff as CFO is one important step in that process.	Appointing Jeff as CFO is one important step in that process.  	51965100	1473276456467	1473276456641	e	69
100134	1092492	Appointing Jeff as CFO is one important step in that process.	Appointing Jeff as CFO is one important step in that process.  	51965103	1473276456722	1473276456863	e	69
100134	1092492	Appointing Jeff as CFO is one important step in that process.	Appointing Jeff as CFO is one important step in that process.  	51965350	1473276456798	1473276456934	f	70
100134	1092492	Appointing Jeff as CFO is one important step in that process.	Appointing Jeff as CFO is one important step in that process.  	51965353	1473276456896	1473276457002	 	32
100134	1092492	Appointing Jeff as CFO is one important step in that process.	Appointing Jeff as CFO is one important step in that process.  	51965363	1473276457042	1473276457173	CAPS_LOCK	20
100134	1092492	Appointing Jeff as CFO is one important step in that process.	Appointing Jeff as CFO is one important step in that process.  	51965368	1473276457299	1473276457454	CAPS_LOCK	20
100134	1092492	Appointing Jeff as CFO is one important step in that process.	Appointing Jeff as CFO is one important step in that process.  	51965375	1473276457758	1473276457925	a	65
100134	1092492	Appointing Jeff as CFO is one important step in that process.	Appointing Jeff as CFO is one important step in that process.  	51965384	1473276457861	1473276458014	s	83
100134	1092492	Appointing Jeff as CFO is one important step in that process.	Appointing Jeff as CFO is one important step in that process.  	51965390	1473276457994	1473276458062	 	32
100134	1092492	Appointing Jeff as CFO is one important step in that process.	Appointing Jeff as CFO is one important step in that process.  	51965398	1473276458142	1473276459690	BKSP	8
100134	1092492	Appointing Jeff as CFO is one important step in that process.	Appointing Jeff as CFO is one important step in that process.  	51965403	1473276460285	1473276460429	CAPS_LOCK	20
100134	1092492	Appointing Jeff as CFO is one important step in that process.	Appointing Jeff as CFO is one important step in that process.  	51965408	1473276460453	1473276460675	CAPS_LOCK	20
100134	1092492	Appointing Jeff as CFO is one important step in that process.	Appointing Jeff as CFO is one important step in that process.  	51965413	1473276461240	1473276461389	a	65
100134	1092492	Appointing Jeff as CFO is one important step in that process.	Appointing Jeff as CFO is one important step in that process.  	51965759	1473276461343	1473276461489	CAPS_LOCK	20
100134	1092492	Appointing Jeff as CFO is one important step in that process.	Appointing Jeff as CFO is one important step in that process.  	51965765	1473276461501	1473276461591	P	80
100134	1092492	Appointing Jeff as CFO is one important step in that process.	Appointing Jeff as CFO is one important step in that process.  	51965773	1473276461794	1473276461891	BKSP	8
100134	1092492	Appointing Jeff as CFO is one important step in that process.	Appointing Jeff as CFO is one important step in that process.  	51965782	1473276461968	1473276462055	BKSP	8
100134	1092492	Appointing Jeff as CFO is one important step in that process.	Appointing Jeff as CFO is one important step in that process.  	51965788	1473276462216	1473276462309	BKSP	8
100134	1092492	Appointing Jeff as CFO is one important step in that process.	Appointing Jeff as CFO is one important step in that process.  	51965803	1473276462595	1473276463366	SHIFT	16
100134	1092492	Appointing Jeff as CFO is one important step in that process.	Appointing Jeff as CFO is one important step in that process.  	51965796	1473276463150	1473276463261	a	65
100134	1092492	Appointing Jeff as CFO is one important step in that process.	Appointing Jeff as CFO is one important step in that process.  	51965810	1473276463475	1473276463578	P	80
100134	1092492	Appointing Jeff as CFO is one important step in that process.	Appointing Jeff as CFO is one important step in that process.  	51965815	1473276463751	1473276463837	BKSP	8
100134	1092492	Appointing Jeff as CFO is one important step in that process.	Appointing Jeff as CFO is one important step in that process.  	51965822	1473276463900	1473276464024	BKSP	8
100134	1092492	Appointing Jeff as CFO is one important step in that process.	Appointing Jeff as CFO is one important step in that process.  	51965832	1473276464420	1473276464560	CAPS_LOCK	20
100134	1092492	Appointing Jeff as CFO is one important step in that process.	Appointing Jeff as CFO is one important step in that process.  	51965857	1473276464712	1473276465107	SHIFT	16
100134	1092492	Appointing Jeff as CFO is one important step in that process.	Appointing Jeff as CFO is one important step in that process.  	51965846	1473276464817	1473276464956	A	65
100134	1092492	Appointing Jeff as CFO is one important step in that process.	Appointing Jeff as CFO is one important step in that process.  	51965871	1473276465701	1473276465833	BKSP	8
100134	1092492	Appointing Jeff as CFO is one important step in that process.	Appointing Jeff as CFO is one important step in that process.  	51965877	1473276466398	1473276466664	SHIFT	16
100134	1092492	Appointing Jeff as CFO is one important step in that process.	Appointing Jeff as CFO is one important step in that process.  	51965917	1473276466530	1473276466671	A	65
100134	1092492	Appointing Jeff as CFO is one important step in that process.	Appointing Jeff as CFO is one important step in that process.  	51965921	1473276466751	1473276466829	p	80
100134	1092492	Appointing Jeff as CFO is one important step in that process.	Appointing Jeff as CFO is one important step in that process.  	51965926	1473276466907	1473276466988	p	80
100134	1092492	Appointing Jeff as CFO is one important step in that process.	Appointing Jeff as CFO is one important step in that process.  	51965934	1473276467180	1473276467273	o	79
100134	1092492	Appointing Jeff as CFO is one important step in that process.	Appointing Jeff as CFO is one important step in that process.  	51965943	1473276467543	1473276467710	i	73
100134	1092492	Appointing Jeff as CFO is one important step in that process.	Appointing Jeff as CFO is one important step in that process.  	51965950	1473276467799	1473276467919	n	78
100134	1092492	Appointing Jeff as CFO is one important step in that process.	Appointing Jeff as CFO is one important step in that process.  	51966051	1473276467911	1473276467993	y	89
100134	1092492	Appointing Jeff as CFO is one important step in that process.	Appointing Jeff as CFO is one important step in that process.  	51966052	1473276467991	1473276468139	i	73
100134	1092492	Appointing Jeff as CFO is one important step in that process.	Appointing Jeff as CFO is one important step in that process.  	51966054	1473276468054	1473276468160	n	78
100134	1092492	Appointing Jeff as CFO is one important step in that process.	Appointing Jeff as CFO is one important step in that process.  	51966056	1473276468329	1473276468397	BKSP	8
100134	1092492	Appointing Jeff as CFO is one important step in that process.	Appointing Jeff as CFO is one important step in that process.  	51966058	1473276468471	1473276468549	BKSP	8
100134	1092492	Appointing Jeff as CFO is one important step in that process.	Appointing Jeff as CFO is one important step in that process.  	51966065	1473276468625	1473276468691	BKSP	8
100134	1092492	Appointing Jeff as CFO is one important step in that process.	Appointing Jeff as CFO is one important step in that process.  	51966070	1473276469294	1473276469397	t	84
100134	1092492	Appointing Jeff as CFO is one important step in that process.	Appointing Jeff as CFO is one important step in that process.  	51966076	1473276469354	1473276469490	i	73
100134	1092492	Appointing Jeff as CFO is one important step in that process.	Appointing Jeff as CFO is one important step in that process.  	51966180	1473276469401	1473276469528	n	78
100134	1092492	Appointing Jeff as CFO is one important step in that process.	Appointing Jeff as CFO is one important step in that process.  	51966185	1473276469505	1473276469622	g	71
100134	1092492	Appointing Jeff as CFO is one important step in that process.	Appointing Jeff as CFO is one important step in that process.  	51966188	1473276469617	1473276469715	 	32
100134	1092492	Appointing Jeff as CFO is one important step in that process.	Appointing Jeff as CFO is one important step in that process.  	51966192	1473276470074	1473276470198	SHIFT	16
100134	1092492	Appointing Jeff as CFO is one important step in that process.	Appointing Jeff as CFO is one important step in that process.  	51966196	1473276470189	1473276470302	J	74
100134	1092492	Appointing Jeff as CFO is one important step in that process.	Appointing Jeff as CFO is one important step in that process.  	51966204	1473276470290	1473276470396	SHIFT	16
100134	1092492	Appointing Jeff as CFO is one important step in that process.	Appointing Jeff as CFO is one important step in that process.  	51966209	1473276470636	1473276470756	e	69
100134	1092492	Appointing Jeff as CFO is one important step in that process.	Appointing Jeff as CFO is one important step in that process.  	51966214	1473276470835	1473276470968	e	69
100134	1092492	Appointing Jeff as CFO is one important step in that process.	Appointing Jeff as CFO is one important step in that process.  	51966321	1473276470927	1473276471053	f	70
100134	1092492	Appointing Jeff as CFO is one important step in that process.	Appointing Jeff as CFO is one important step in that process.  	51966326	1473276471573	1473276471642	BKSP	8
100134	1092492	Appointing Jeff as CFO is one important step in that process.	Appointing Jeff as CFO is one important step in that process.  	51966333	1473276471717	1473276471802	BKSP	8
100134	1092492	Appointing Jeff as CFO is one important step in that process.	Appointing Jeff as CFO is one important step in that process.  	51966338	1473276471797	1473276471904	f	70
100134	1092492	Appointing Jeff as CFO is one important step in that process.	Appointing Jeff as CFO is one important step in that process.  	51966343	1473276471953	1473276472050	f	70
100134	1092492	Appointing Jeff as CFO is one important step in that process.	Appointing Jeff as CFO is one important step in that process.  	51966345	1473276472092	1473276472177	 	32
100134	1092492	Appointing Jeff as CFO is one important step in that process.	Appointing Jeff as CFO is one important step in that process.  	51966350	1473276472142	1473276472307	a	65
100134	1092492	Appointing Jeff as CFO is one important step in that process.	Appointing Jeff as CFO is one important step in that process.  	51966383	1473276472217	1473276472349	s	83
100134	1092492	Appointing Jeff as CFO is one important step in that process.	Appointing Jeff as CFO is one important step in that process.  	51966385	1473276472358	1473276472438	 	32
100134	1092492	Appointing Jeff as CFO is one important step in that process.	Appointing Jeff as CFO is one important step in that process.  	51966389	1473276472424	1473276472609	SHIFT	16
100134	1092492	Appointing Jeff as CFO is one important step in that process.	Appointing Jeff as CFO is one important step in that process.  	51966393	1473276472587	1473276472703	C	67
100134	1092492	Appointing Jeff as CFO is one important step in that process.	Appointing Jeff as CFO is one important step in that process.  	51966400	1473276472779	1473276472900	f	70
100134	1092492	Appointing Jeff as CFO is one important step in that process.	Appointing Jeff as CFO is one important step in that process.  	51966404	1473276472871	1473276473001	o	79
100134	1092492	Appointing Jeff as CFO is one important step in that process.	Appointing Jeff as CFO is one important step in that process.  	51966532	1473276472986	1473276473060	 	32
100134	1092492	Appointing Jeff as CFO is one important step in that process.	Appointing Jeff as CFO is one important step in that process.  	51966538	1473276473320	1473276473397	BKSP	8
100134	1092492	Appointing Jeff as CFO is one important step in that process.	Appointing Jeff as CFO is one important step in that process.  	51966545	1473276473475	1473276473562	BKSP	8
100134	1092492	Appointing Jeff as CFO is one important step in that process.	Appointing Jeff as CFO is one important step in that process.  	51966552	1473276473625	1473276473717	BKSP	8
100134	1092492	Appointing Jeff as CFO is one important step in that process.	Appointing Jeff as CFO is one important step in that process.  	51966704	1473276473720	1473276476031	SHIFT	16
100134	1092492	Appointing Jeff as CFO is one important step in that process.	Appointing Jeff as CFO is one important step in that process.  	51966560	1473276473903	1473276473972	P	80
100134	1092492	Appointing Jeff as CFO is one important step in that process.	Appointing Jeff as CFO is one important step in that process.  	51966565	1473276474086	1473276474149	F	70
100134	1092492	Appointing Jeff as CFO is one important step in that process.	Appointing Jeff as CFO is one important step in that process.  	51966570	1473276474191	1473276474283	BKSP	8
100134	1092492	Appointing Jeff as CFO is one important step in that process.	Appointing Jeff as CFO is one important step in that process.  	51966575	1473276474320	1473276474468	F	70
100134	1092492	Appointing Jeff as CFO is one important step in that process.	Appointing Jeff as CFO is one important step in that process.  	51966578	1473276474414	1473276474478	P	80
100134	1092492	Appointing Jeff as CFO is one important step in that process.	Appointing Jeff as CFO is one important step in that process.  	51966580	1473276474550	1473276474650	BKSP	8
100134	1092492	Appointing Jeff as CFO is one important step in that process.	Appointing Jeff as CFO is one important step in that process.  	51966585	1473276474732	1473276474803	BKSP	8
100134	1092492	Appointing Jeff as CFO is one important step in that process.	Appointing Jeff as CFO is one important step in that process.  	51966591	1473276474877	1473276474960	BKSP	8
100134	1092492	Appointing Jeff as CFO is one important step in that process.	Appointing Jeff as CFO is one important step in that process.  	51966601	1473276474983	1473276475122	F	70
100134	1092492	Appointing Jeff as CFO is one important step in that process.	Appointing Jeff as CFO is one important step in that process.  	51966673	1473276475054	1473276475221	P	80
100134	1092492	Appointing Jeff as CFO is one important step in that process.	Appointing Jeff as CFO is one important step in that process.  	51966676	1473276475197	1473276475307	 	32
100134	1092492	Appointing Jeff as CFO is one important step in that process.	Appointing Jeff as CFO is one important step in that process.  	51966683	1473276475359	1473276475467	BKSP	8
100134	1092492	Appointing Jeff as CFO is one important step in that process.	Appointing Jeff as CFO is one important step in that process.  	51966689	1473276475530	1473276475647	BKSP	8
100134	1092492	Appointing Jeff as CFO is one important step in that process.	Appointing Jeff as CFO is one important step in that process.  	51966693	1473276475641	1473276475802	O	79
100134	1092492	Appointing Jeff as CFO is one important step in that process.	Appointing Jeff as CFO is one important step in that process.  	51966697	1473276475728	1473276475860	 	32
100134	1092492	Appointing Jeff as CFO is one important step in that process.	Appointing Jeff as CFO is one important step in that process.  	51966712	1473276476113	1473276476243	i	73
100134	1092492	Appointing Jeff as CFO is one important step in that process.	Appointing Jeff as CFO is one important step in that process.  	51966739	1473276476229	1473276476379	s	83
100134	1092492	Appointing Jeff as CFO is one important step in that process.	Appointing Jeff as CFO is one important step in that process.  	51966743	1473276476310	1473276476396	 	32
100134	1092492	Appointing Jeff as CFO is one important step in that process.	Appointing Jeff as CFO is one important step in that process.  	51966748	1473276476429	1473276476642	o	79
100134	1092492	Appointing Jeff as CFO is one important step in that process.	Appointing Jeff as CFO is one important step in that process.  	51966755	1473276476518	1473276476670	n	78
100134	1092492	Appointing Jeff as CFO is one important step in that process.	Appointing Jeff as CFO is one important step in that process.  	51966763	1473276476608	1473276476716	e	69
100134	1092492	Appointing Jeff as CFO is one important step in that process.	Appointing Jeff as CFO is one important step in that process.  	51966770	1473276476733	1473276476833	 	32
100134	1092492	Appointing Jeff as CFO is one important step in that process.	Appointing Jeff as CFO is one important step in that process.  	51966874	1473276476908	1473276476949	o	79
100134	1092492	Appointing Jeff as CFO is one important step in that process.	Appointing Jeff as CFO is one important step in that process.  	51966878	1473276477326	1473276477415	=	8
100134	1092492	Appointing Jeff as CFO is one important step in that process.	Appointing Jeff as CFO is one important step in that process.  	51966881	1473276477573	1473276477694	i	73
100134	1092492	Appointing Jeff as CFO is one important step in that process.	Appointing Jeff as CFO is one important step in that process.  	51966886	1473276477712	1473276477818	m	77
100134	1092492	Appointing Jeff as CFO is one important step in that process.	Appointing Jeff as CFO is one important step in that process.  	51966894	1473276477890	1473276478010	p	80
100134	1092492	Appointing Jeff as CFO is one important step in that process.	Appointing Jeff as CFO is one important step in that process.  	51966988	1473276478091	1473276478186	BKSP	8
100134	1092492	Appointing Jeff as CFO is one important step in that process.	Appointing Jeff as CFO is one important step in that process.  	51966992	1473276478245	1473276478319	BKSP	8
100134	1092492	Appointing Jeff as CFO is one important step in that process.	Appointing Jeff as CFO is one important step in that process.  	51966998	1473276478395	1473276478471	BKSP	8
100134	1092492	Appointing Jeff as CFO is one important step in that process.	Appointing Jeff as CFO is one important step in that process.  	51967003	1473276478552	1473276478648	BKSP	8
100134	1092492	Appointing Jeff as CFO is one important step in that process.	Appointing Jeff as CFO is one important step in that process.  	51967007	1473276478654	1473276478742	i	73
100134	1092492	Appointing Jeff as CFO is one important step in that process.	Appointing Jeff as CFO is one important step in that process.  	51967010	1473276478832	1473276478926	m	77
100134	1092492	Appointing Jeff as CFO is one important step in that process.	Appointing Jeff as CFO is one important step in that process.  	51967013	1473276479001	1473276479188	p	80
100134	1092492	Appointing Jeff as CFO is one important step in that process.	Appointing Jeff as CFO is one important step in that process.  	51967022	1473276479066	1473276479236	o	79
100134	1092492	Appointing Jeff as CFO is one important step in that process.	Appointing Jeff as CFO is one important step in that process.  	51967045	1473276479219	1473276479320	r	82
100134	1092492	Appointing Jeff as CFO is one important step in that process.	Appointing Jeff as CFO is one important step in that process.  	51967050	1473276479338	1473276479498	t	84
100134	1092492	Appointing Jeff as CFO is one important step in that process.	Appointing Jeff as CFO is one important step in that process.  	51967053	1473276479419	1473276479582	a	65
100134	1092492	Appointing Jeff as CFO is one important step in that process.	Appointing Jeff as CFO is one important step in that process.  	51967059	1473276479529	1473276479630	n	78
100134	1092492	Appointing Jeff as CFO is one important step in that process.	Appointing Jeff as CFO is one important step in that process.  	51967064	1473276479622	1473276479770	t	84
100134	1092492	Appointing Jeff as CFO is one important step in that process.	Appointing Jeff as CFO is one important step in that process.  	51967132	1473276479731	1473276479833	 	32
100134	1092492	Appointing Jeff as CFO is one important step in that process.	Appointing Jeff as CFO is one important step in that process.  	51967138	1473276480091	1473276480202	s	83
100134	1092492	Appointing Jeff as CFO is one important step in that process.	Appointing Jeff as CFO is one important step in that process.  	51967142	1473276480334	1473276480517	t	84
100134	1092492	Appointing Jeff as CFO is one important step in that process.	Appointing Jeff as CFO is one important step in that process.  	51967145	1473276480459	1473276480601	e	69
100134	1092492	Appointing Jeff as CFO is one important step in that process.	Appointing Jeff as CFO is one important step in that process.  	51967156	1473276480575	1473276480689	p	80
100134	1092492	Appointing Jeff as CFO is one important step in that process.	Appointing Jeff as CFO is one important step in that process.  	51967187	1473276480668	1473276480777	 	32
100134	1092492	Appointing Jeff as CFO is one important step in that process.	Appointing Jeff as CFO is one important step in that process.  	51967190	1473276480823	1473276480999	i	73
100134	1092492	Appointing Jeff as CFO is one important step in that process.	Appointing Jeff as CFO is one important step in that process.  	51967194	1473276480895	1473276481065	n	78
100134	1092492	Appointing Jeff as CFO is one important step in that process.	Appointing Jeff as CFO is one important step in that process.  	51967196	1473276481017	1473276481074	 	32
100134	1092492	Appointing Jeff as CFO is one important step in that process.	Appointing Jeff as CFO is one important step in that process.  	51967198	1473276481071	1473276481222	t	84
100134	1092492	Appointing Jeff as CFO is one important step in that process.	Appointing Jeff as CFO is one important step in that process.  	51967233	1473276481210	1473276481310	h	72
100134	1092492	Appointing Jeff as CFO is one important step in that process.	Appointing Jeff as CFO is one important step in that process.  	51967236	1473276481304	1473276481443	a	65
100134	1092492	Appointing Jeff as CFO is one important step in that process.	Appointing Jeff as CFO is one important step in that process.  	51967241	1473276481370	1473276481491	t	84
100134	1092492	Appointing Jeff as CFO is one important step in that process.	Appointing Jeff as CFO is one important step in that process.  	51967245	1473276481431	1473276481508	 	32
100134	1092492	Appointing Jeff as CFO is one important step in that process.	Appointing Jeff as CFO is one important step in that process.  	51967250	1473276481588	1473276481713	p	80
100134	1092492	Appointing Jeff as CFO is one important step in that process.	Appointing Jeff as CFO is one important step in that process.  	51967288	1473276481669	1473276481792	r	82
100134	1092492	Appointing Jeff as CFO is one important step in that process.	Appointing Jeff as CFO is one important step in that process.  	51967292	1473276481778	1473276481896	o	79
100134	1092492	Appointing Jeff as CFO is one important step in that process.	Appointing Jeff as CFO is one important step in that process.  	51967298	1473276481891	1473276482076	c	67
100134	1092492	Appointing Jeff as CFO is one important step in that process.	Appointing Jeff as CFO is one important step in that process.  	51967302	1473276482028	1473276482191	e	69
100134	1092492	Appointing Jeff as CFO is one important step in that process.	Appointing Jeff as CFO is one important step in that process.  	51967305	1473276482170	1473276482312	s	83
100134	1092492	Appointing Jeff as CFO is one important step in that process.	Appointing Jeff as CFO is one important step in that process.  	51967308	1473276482385	1473276482503	s	83
100134	1092492	Appointing Jeff as CFO is one important step in that process.	Appointing Jeff as CFO is one important step in that process.  	51967358	1473276482505	1473276482633	.	190
100134	1092492	Appointing Jeff as CFO is one important step in that process.	Appointing Jeff as CFO is one important step in that process.  	51967360	1473276482641	1473276482749	 	32
100134	1092492	Appointing Jeff as CFO is one important step in that process.	Appointing Jeff as CFO is one important step in that process.  	51967362	1473276483010	1473276483115	 	32
100134	1092586	It was great to finally meet you.	It was great to finally meet you. 	51967831	1473276488862	1473276489053	SHIFT	16
100134	1092586	It was great to finally meet you.	It was great to finally meet you. 	51967833	1473276489009	1473276489111	I	73
100134	1092586	It was great to finally meet you.	It was great to finally meet you. 	51967837	1473276489142	1473276489280	t	84
100134	1092586	It was great to finally meet you.	It was great to finally meet you. 	51967839	1473276489285	1473276489391	 	32
100134	1092586	It was great to finally meet you.	It was great to finally meet you. 	51967841	1473276489437	1473276489645	w	87
100134	1092586	It was great to finally meet you.	It was great to finally meet you. 	51967865	1473276489502	1473276489663	a	65
100134	1092586	It was great to finally meet you.	It was great to finally meet you. 	51967869	1473276489602	1473276489730	s	83
100134	1092586	It was great to finally meet you.	It was great to finally meet you. 	51967873	1473276489670	1473276489762	 	32
100134	1092586	It was great to finally meet you.	It was great to finally meet you. 	51967879	1473276489857	1473276489990	g	71
100134	1092586	It was great to finally meet you.	It was great to finally meet you. 	51967886	1473276490063	1473276490213	r	82
100134	1092586	It was great to finally meet you.	It was great to finally meet you. 	51967900	1473276490141	1473276490317	e	69
100134	1092586	It was great to finally meet you.	It was great to finally meet you. 	51967898	1473276490183	1473276490309	a	65
100134	1092586	It was great to finally meet you.	It was great to finally meet you. 	51967903	1473276490287	1473276490397	6	84
100134	1092586	It was great to finally meet you.	It was great to finally meet you. 	51967905	1473276490379	1473276490483	 	32
100134	1092586	It was great to finally meet you.	It was great to finally meet you. 	51967907	1473276490490	1473276490618	t	84
100134	1092586	It was great to finally meet you.	It was great to finally meet you. 	51968060	1473276490586	1473276490728	o	79
100134	1092586	It was great to finally meet you.	It was great to finally meet you. 	51968062	1473276490689	1473276490784	 	32
100134	1092586	It was great to finally meet you.	It was great to finally meet you. 	51968065	1473276490980	1473276491058	BKSP	8
100134	1092586	It was great to finally meet you.	It was great to finally meet you. 	51968069	1473276491149	1473276491210	BKSP	8
100134	1092586	It was great to finally meet you.	It was great to finally meet you. 	51968074	1473276491284	1473276491357	BKSP	8
100134	1092586	It was great to finally meet you.	It was great to finally meet you. 	51968079	1473276491420	1473276491492	BKSP	8
100134	1092586	It was great to finally meet you.	It was great to finally meet you. 	51968087	1473276491563	1473276491635	BKSP	8
100134	1092586	It was great to finally meet you.	It was great to finally meet you. 	51968093	1473276491740	1473276491795	BKSP	8
100134	1092586	It was great to finally meet you.	It was great to finally meet you. 	51968101	1473276492197	1473276492313	t	84
100134	1092586	It was great to finally meet you.	It was great to finally meet you. 	51968110	1473276492305	1473276492398	 	32
100134	1092586	It was great to finally meet you.	It was great to finally meet you. 	51968116	1473276492469	1473276492603	t	84
100134	1092586	It was great to finally meet you.	It was great to finally meet you. 	51968104	1473276492556	1473276492721	o	79
100134	1092586	It was great to finally meet you.	It was great to finally meet you. 	51968108	1473276492690	1473276492800	 	32
100134	1092586	It was great to finally meet you.	It was great to finally meet you. 	51968114	1473276492802	1473276492934	f	70
100134	1092586	It was great to finally meet you.	It was great to finally meet you. 	51968119	1473276492897	1473276493039	i	73
100134	1092586	It was great to finally meet you.	It was great to finally meet you. 	51968121	1473276492965	1473276493086	n	78
100134	1092586	It was great to finally meet you.	It was great to finally meet you. 	51968150	1473276493076	1473276493220	a	65
100134	1092586	It was great to finally meet you.	It was great to finally meet you. 	51968165	1473276493207	1473276493295	l	76
100134	1092586	It was great to finally meet you.	It was great to finally meet you. 	51968156	1473276493229	1473276493271	;	186
100134	1092586	It was great to finally meet you.	It was great to finally meet you. 	51968174	1473276493369	1473276493467	l	76
100134	1092586	It was great to finally meet you.	It was great to finally meet you. 	51968179	1473276493480	1473276493621	y	89
100134	1092586	It was great to finally meet you.	It was great to finally meet you. 	51968281	1473276493572	1473276493662	 	32
100134	1092586	It was great to finally meet you.	It was great to finally meet you. 	51968287	1473276493736	1473276493817	BKSP	8
100134	1092586	It was great to finally meet you.	It was great to finally meet you. 	51968296	1473276493887	1473276493955	BKSP	8
100134	1092586	It was great to finally meet you.	It was great to finally meet you. 	51968306	1473276494042	1473276494085	BKSP	8
100134	1092586	It was great to finally meet you.	It was great to finally meet you. 	51968313	1473276494177	1473276494257	BKSP	8
100134	1092586	It was great to finally meet you.	It was great to finally meet you. 	51968318	1473276494312	1473276494441	l	76
100134	1092586	It was great to finally meet you.	It was great to finally meet you. 	51968321	1473276494449	1473276494554	y	89
100134	1092586	It was great to finally meet you.	It was great to finally meet you. 	51968328	1473276494550	1473276494680	 	32
100134	1092586	It was great to finally meet you.	It was great to finally meet you. 	51968331	1473276494737	1473276494847	m	77
100134	1092586	It was great to finally meet you.	It was great to finally meet you. 	51968347	1473276494833	1473276494931	e	69
100134	1092586	It was great to finally meet you.	It was great to finally meet you. 	51968349	1473276495002	1473276495135	e	69
100134	1092586	It was great to finally meet you.	It was great to finally meet you. 	51968361	1473276495106	1473276495259	t	84
100134	1092586	It was great to finally meet you.	It was great to finally meet you. 	51968356	1473276495133	1473276495178	r	82
100134	1092586	It was great to finally meet you.	It was great to finally meet you. 	51968371	1473276495265	1473276495385	 	32
100134	1092586	It was great to finally meet you.	It was great to finally meet you. 	51968376	1473276495505	1473276495549	y	89
100134	1092586	It was great to finally meet you.	It was great to finally meet you. 	51968461	1473276495625	1473276495692	BKSP	8
100134	1092586	It was great to finally meet you.	It was great to finally meet you. 	51968467	1473276495769	1473276495841	BKSP	8
100134	1092586	It was great to finally meet you.	It was great to finally meet you. 	51968473	1473276495908	1473276496001	BKSP	8
100134	1092586	It was great to finally meet you.	It was great to finally meet you. 	51968481	1473276496095	1473276496197	 	32
100134	1092586	It was great to finally meet you.	It was great to finally meet you. 	51968485	1473276496265	1473276496360	y	89
100134	1092586	It was great to finally meet you.	It was great to finally meet you. 	51968488	1473276496369	1473276496473	o	79
100134	1092586	It was great to finally meet you.	It was great to finally meet you. 	51968491	1473276496464	1473276496533	u	85
100134	1092586	It was great to finally meet you.	It was great to finally meet you. 	51968493	1473276496739	1473276496842	.	190
100134	1092586	It was great to finally meet you.	It was great to finally meet you. 	51968497	1473276497002	1473276497104	 	32
100134	1092607	I will be out on Friday, but any other day is fine.	I will be out on Friday, but any other day is fine. 	51968742	1473276499902	1473276500003	SHIFT	16
100134	1092607	I will be out on Friday, but any other day is fine.	I will be out on Friday, but any other day is fine. 	51968747	1473276500042	1473276500130	i	73
100134	1092607	I will be out on Friday, but any other day is fine.	I will be out on Friday, but any other day is fine. 	51968754	1473276500100	1473276500206	SHIFT	16
100134	1092607	I will be out on Friday, but any other day is fine.	I will be out on Friday, but any other day is fine. 	51968759	1473276500222	1473276500319	 	32
100134	1092607	I will be out on Friday, but any other day is fine.	I will be out on Friday, but any other day is fine. 	51968764	1473276500300	1473276500400	w	87
100134	1092607	I will be out on Friday, but any other day is fine.	I will be out on Friday, but any other day is fine. 	51968769	1473276500422	1473276500498	i	73
100134	1092607	I will be out on Friday, but any other day is fine.	I will be out on Friday, but any other day is fine. 	51968771	1473276500582	1473276500678	l	76
100134	1092607	I will be out on Friday, but any other day is fine.	I will be out on Friday, but any other day is fine. 	51968852	1473276500774	1473276500858	BKSP	8
100134	1092607	I will be out on Friday, but any other day is fine.	I will be out on Friday, but any other day is fine. 	51968856	1473276500927	1473276501006	BKSP	8
100134	1092607	I will be out on Friday, but any other day is fine.	I will be out on Friday, but any other day is fine. 	51968863	1473276501064	1473276501119	BKSP	8
100134	1092607	I will be out on Friday, but any other day is fine.	I will be out on Friday, but any other day is fine. 	51968867	1473276501198	1473276501255	BKSP	8
100134	1092607	I will be out on Friday, but any other day is fine.	I will be out on Friday, but any other day is fine. 	51968873	1473276501333	1473276501409	BKSP	8
100134	1092607	I will be out on Friday, but any other day is fine.	I will be out on Friday, but any other day is fine. 	51968880	1473276501486	1473276501586	BKSP	8
100134	1092607	I will be out on Friday, but any other day is fine.	I will be out on Friday, but any other day is fine. 	51968886	1473276501578	1473276501707	CAPS_LOCK	20
100134	1092607	I will be out on Friday, but any other day is fine.	I will be out on Friday, but any other day is fine. 	51968897	1473276501702	1473276501817	I	73
100134	1092607	I will be out on Friday, but any other day is fine.	I will be out on Friday, but any other day is fine. 	51968904	1473276501805	1473276501913	CAPS_LOCK	20
100134	1092607	I will be out on Friday, but any other day is fine.	I will be out on Friday, but any other day is fine. 	51968911	1473276501995	1473276502110	 	32
100134	1092607	I will be out on Friday, but any other day is fine.	I will be out on Friday, but any other day is fine. 	51968915	1473276502150	1473276502279	w	87
100134	1092607	I will be out on Friday, but any other day is fine.	I will be out on Friday, but any other day is fine. 	51968918	1473276502210	1473276502289	i	73
100134	1092607	I will be out on Friday, but any other day is fine.	I will be out on Friday, but any other day is fine. 	51968921	1473276502376	1473276502452	l	76
100134	1092607	I will be out on Friday, but any other day is fine.	I will be out on Friday, but any other day is fine. 	51968890	1473276502507	1473276502593	l	76
100134	1092607	I will be out on Friday, but any other day is fine.	I will be out on Friday, but any other day is fine. 	51968898	1473276502543	1473276502661	 	32
100134	1092607	I will be out on Friday, but any other day is fine.	I will be out on Friday, but any other day is fine. 	51968992	1473276502752	1473276502846	v	66
100134	1092607	I will be out on Friday, but any other day is fine.	I will be out on Friday, but any other day is fine. 	51969000	1473276502836	1473276502993	e	69
100134	1092607	I will be out on Friday, but any other day is fine.	I will be out on Friday, but any other day is fine. 	51969007	1473276503047	1473276503189	BKSP	8
100134	1092607	I will be out on Friday, but any other day is fine.	I will be out on Friday, but any other day is fine. 	51969012	1473276503257	1473276503330	BKSP	8
100134	1092607	I will be out on Friday, but any other day is fine.	I will be out on Friday, but any other day is fine. 	51969018	1473276503377	1473276503510	e	69
100134	1092607	I will be out on Friday, but any other day is fine.	I will be out on Friday, but any other day is fine. 	51969024	1473276503522	1473276503623	 	32
100134	1092607	I will be out on Friday, but any other day is fine.	I will be out on Friday, but any other day is fine. 	51969031	1473276503677	1473276503864	o	79
100134	1092607	I will be out on Friday, but any other day is fine.	I will be out on Friday, but any other day is fine. 	51969038	1473276503787	1473276503926	u	85
100134	1092607	I will be out on Friday, but any other day is fine.	I will be out on Friday, but any other day is fine. 	51969071	1473276503891	1473276504006	t	84
100134	1092607	I will be out on Friday, but any other day is fine.	I will be out on Friday, but any other day is fine. 	51969076	1473276503970	1473276504064	 	32
100134	1092607	I will be out on Friday, but any other day is fine.	I will be out on Friday, but any other day is fine. 	51969080	1473276504088	1473276504262	o	79
100134	1092607	I will be out on Friday, but any other day is fine.	I will be out on Friday, but any other day is fine. 	51969084	1473276504142	1473276504291	n	78
100134	1092607	I will be out on Friday, but any other day is fine.	I will be out on Friday, but any other day is fine. 	51969088	1473276504227	1473276504350	 	32
100134	1092607	I will be out on Friday, but any other day is fine.	I will be out on Friday, but any other day is fine. 	51969092	1473276504500	1473276504642	CAPS_LOCK	20
100134	1092607	I will be out on Friday, but any other day is fine.	I will be out on Friday, but any other day is fine. 	51969133	1473276504600	1473276504726	F	70
100134	1092607	I will be out on Friday, but any other day is fine.	I will be out on Friday, but any other day is fine. 	51969142	1473276504689	1473276504826	CAPS_LOCK	20
100134	1092607	I will be out on Friday, but any other day is fine.	I will be out on Friday, but any other day is fine. 	51969149	1473276504815	1473276504932	r	82
100134	1092607	I will be out on Friday, but any other day is fine.	I will be out on Friday, but any other day is fine. 	51969157	1473276505006	1473276505135	i	73
100134	1092607	I will be out on Friday, but any other day is fine.	I will be out on Friday, but any other day is fine. 	51969164	1473276505139	1473276505259	d	68
100134	1092607	I will be out on Friday, but any other day is fine.	I will be out on Friday, but any other day is fine. 	51969285	1473276505233	1473276505323	a	65
100134	1092607	I will be out on Friday, but any other day is fine.	I will be out on Friday, but any other day is fine. 	51969167	1473276505239	1473276505313	CAPS_LOCK	20
100134	1092607	I will be out on Friday, but any other day is fine.	I will be out on Friday, but any other day is fine. 	51969289	1473276505282	1473276505416	Y	89
100134	1092607	I will be out on Friday, but any other day is fine.	I will be out on Friday, but any other day is fine. 	51969297	1473276505757	1473276505833	BKSP	8
100134	1092607	I will be out on Friday, but any other day is fine.	I will be out on Friday, but any other day is fine. 	51969302	1473276506047	1473276506194	Y	89
100134	1092607	I will be out on Friday, but any other day is fine.	I will be out on Friday, but any other day is fine. 	51969305	1473276506225	1473276506330	.	190
100134	1092607	I will be out on Friday, but any other day is fine.	I will be out on Friday, but any other day is fine. 	51969310	1473276506416	1473276506509	BKSP	8
100134	1092607	I will be out on Friday, but any other day is fine.	I will be out on Friday, but any other day is fine. 	51969313	1473276506580	1473276506683	BKSP	8
100134	1092607	I will be out on Friday, but any other day is fine.	I will be out on Friday, but any other day is fine. 	51969321	1473276506641	1473276506796	CAPS_LOCK	20
100134	1092607	I will be out on Friday, but any other day is fine.	I will be out on Friday, but any other day is fine. 	51969327	1473276506709	1473276506819	y	89
100134	1092607	I will be out on Friday, but any other day is fine.	I will be out on Friday, but any other day is fine. 	51969335	1473276506793	1473276506917	.	190
100134	1092607	I will be out on Friday, but any other day is fine.	I will be out on Friday, but any other day is fine. 	51969340	1473276507129	1473276507213	BKSP	8
100134	1092607	I will be out on Friday, but any other day is fine.	I will be out on Friday, but any other day is fine. 	51969345	1473276507249	1473276507391	,	188
100134	1092607	I will be out on Friday, but any other day is fine.	I will be out on Friday, but any other day is fine. 	51969406	1473276507374	1473276507510	 	32
100134	1092607	I will be out on Friday, but any other day is fine.	I will be out on Friday, but any other day is fine. 	51969408	1473276507643	1473276507787	CAPS_LOCK	20
100134	1092607	I will be out on Friday, but any other day is fine.	I will be out on Friday, but any other day is fine. 	51969412	1473276507752	1473276507887	B	66
100134	1092607	I will be out on Friday, but any other day is fine.	I will be out on Friday, but any other day is fine. 	51969418	1473276507862	1473276507983	CAPS_LOCK	20
100134	1092607	I will be out on Friday, but any other day is fine.	I will be out on Friday, but any other day is fine. 	51969426	1473276507972	1473276508101	u	85
100134	1092607	I will be out on Friday, but any other day is fine.	I will be out on Friday, but any other day is fine. 	51969434	1473276508338	1473276508418	BKSP	8
100134	1092607	I will be out on Friday, but any other day is fine.	I will be out on Friday, but any other day is fine. 	51969442	1473276508499	1473276508592	BKSP	8
100134	1092607	I will be out on Friday, but any other day is fine.	I will be out on Friday, but any other day is fine. 	51969450	1473276508615	1473276508770	CAPS_LOCK	20
100134	1092607	I will be out on Friday, but any other day is fine.	I will be out on Friday, but any other day is fine. 	51969455	1473276508738	1473276508858	B	66
100134	1092607	I will be out on Friday, but any other day is fine.	I will be out on Friday, but any other day is fine. 	51969459	1473276508831	1473276508991	U	85
100134	1092607	I will be out on Friday, but any other day is fine.	I will be out on Friday, but any other day is fine. 	51969498	1473276508909	1473276509062	T	84
100134	1092607	I will be out on Friday, but any other day is fine.	I will be out on Friday, but any other day is fine. 	51969501	1473276509019	1473276509124	 	32
100134	1092607	I will be out on Friday, but any other day is fine.	I will be out on Friday, but any other day is fine. 	51969506	1473276509260	1473276509300	BKSP	8
100134	1092607	I will be out on Friday, but any other day is fine.	I will be out on Friday, but any other day is fine. 	51969508	1473276509373	1473276509448	BKSP	8
100134	1092607	I will be out on Friday, but any other day is fine.	I will be out on Friday, but any other day is fine. 	51969511	1473276509531	1473276509585	BKSP	8
100134	1092607	I will be out on Friday, but any other day is fine.	I will be out on Friday, but any other day is fine. 	51969515	1473276509659	1473276509733	BKSP	8
100134	1092607	I will be out on Friday, but any other day is fine.	I will be out on Friday, but any other day is fine. 	51969518	1473276509708	1473276509846	CAPS_LOCK	20
100134	1092607	I will be out on Friday, but any other day is fine.	I will be out on Friday, but any other day is fine. 	51969523	1473276509857	1473276509977	b	66
100134	1092607	I will be out on Friday, but any other day is fine.	I will be out on Friday, but any other day is fine. 	51969525	1473276509902	1473276510069	u	85
100134	1092607	I will be out on Friday, but any other day is fine.	I will be out on Friday, but any other day is fine. 	51969527	1473276509991	1473276510117	t	84
100134	1092607	I will be out on Friday, but any other day is fine.	I will be out on Friday, but any other day is fine. 	51969562	1473276510103	1473276510218	 	32
100134	1092607	I will be out on Friday, but any other day is fine.	I will be out on Friday, but any other day is fine. 	51969565	1473276510317	1473276510456	a	65
100134	1092607	I will be out on Friday, but any other day is fine.	I will be out on Friday, but any other day is fine. 	51969570	1473276510420	1473276510580	n	78
100134	1092607	I will be out on Friday, but any other day is fine.	I will be out on Friday, but any other day is fine. 	51969574	1473276510530	1473276510678	y	89
100134	1092607	I will be out on Friday, but any other day is fine.	I will be out on Friday, but any other day is fine. 	51969579	1473276510624	1473276510742	 	32
100134	1092607	I will be out on Friday, but any other day is fine.	I will be out on Friday, but any other day is fine. 	51969650	1473276510796	1473276510911	o	79
100134	1092607	I will be out on Friday, but any other day is fine.	I will be out on Friday, but any other day is fine. 	51969584	1473276510817	1473276510868	p	80
100134	1092607	I will be out on Friday, but any other day is fine.	I will be out on Friday, but any other day is fine. 	51969653	1473276510909	1473276511037	t	84
100134	1092607	I will be out on Friday, but any other day is fine.	I will be out on Friday, but any other day is fine. 	51969664	1473276511062	1473276511152	j	74
100134	1092607	I will be out on Friday, but any other day is fine.	I will be out on Friday, but any other day is fine. 	51969671	1473276511274	1473276511351	BKSP	8
100134	1092607	I will be out on Friday, but any other day is fine.	I will be out on Friday, but any other day is fine. 	51969678	1473276511432	1473276511488	BKSP	8
100134	1092607	I will be out on Friday, but any other day is fine.	I will be out on Friday, but any other day is fine. 	51969685	1473276511572	1473276511652	BKSP	8
100134	1092607	I will be out on Friday, but any other day is fine.	I will be out on Friday, but any other day is fine. 	51969694	1473276511732	1473276511859	t	84
100134	1092607	I will be out on Friday, but any other day is fine.	I will be out on Friday, but any other day is fine. 	51969699	1473276511845	1473276511957	h	72
100134	1092607	I will be out on Friday, but any other day is fine.	I will be out on Friday, but any other day is fine. 	51969711	1473276511947	1473276512079	e	69
100134	1092607	I will be out on Friday, but any other day is fine.	I will be out on Friday, but any other day is fine. 	51969713	1473276512011	1473276512155	r	82
100134	1092607	I will be out on Friday, but any other day is fine.	I will be out on Friday, but any other day is fine. 	51969717	1473276512090	1473276512188	 	32
100134	1092607	I will be out on Friday, but any other day is fine.	I will be out on Friday, but any other day is fine. 	51969720	1473276512271	1473276512420	a	65
100134	1092607	I will be out on Friday, but any other day is fine.	I will be out on Friday, but any other day is fine. 	51969725	1473276512557	1473276512659	BKSP	8
100134	1092607	I will be out on Friday, but any other day is fine.	I will be out on Friday, but any other day is fine. 	51969729	1473276512641	1473276512756	d	68
100134	1092607	I will be out on Friday, but any other day is fine.	I will be out on Friday, but any other day is fine. 	51969764	1473276512668	1473276512793	a	65
100134	1092607	I will be out on Friday, but any other day is fine.	I will be out on Friday, but any other day is fine. 	51969768	1473276512813	1473276512899	y	89
100134	1092607	I will be out on Friday, but any other day is fine.	I will be out on Friday, but any other day is fine. 	51969773	1473276512874	1473276512964	 	32
100134	1092607	I will be out on Friday, but any other day is fine.	I will be out on Friday, but any other day is fine. 	51969780	1473276513174	1473276513296	i	73
100134	1092607	I will be out on Friday, but any other day is fine.	I will be out on Friday, but any other day is fine. 	51969787	1473276513257	1473276513335	s	83
100134	1092607	I will be out on Friday, but any other day is fine.	I will be out on Friday, but any other day is fine. 	51969805	1473276513333	1473276513431	 	32
100134	1092607	I will be out on Friday, but any other day is fine.	I will be out on Friday, but any other day is fine. 	51969812	1473276513428	1473276513534	f	70
100134	1092607	I will be out on Friday, but any other day is fine.	I will be out on Friday, but any other day is fine. 	51969819	1473276513505	1473276513624	i	73
100134	1092607	I will be out on Friday, but any other day is fine.	I will be out on Friday, but any other day is fine. 	51969827	1473276513573	1473276513669	n	78
100134	1092607	I will be out on Friday, but any other day is fine.	I will be out on Friday, but any other day is fine. 	51969837	1473276513652	1473276513773	e	69
100134	1092607	I will be out on Friday, but any other day is fine.	I will be out on Friday, but any other day is fine. 	51969842	1473276513777	1473276513884	.	190
100134	1092607	I will be out on Friday, but any other day is fine.	I will be out on Friday, but any other day is fine. 	51969833	1473276513936	1473276514020	 	32
100134	1092634	We haven't sold the US business as yet.	We haven't sold the US busioness as yet. 	51970133	1473276516270	1473276516435	CAPS_LOCK	20
100134	1092634	We haven't sold the US business as yet.	We haven't sold the US busioness as yet. 	51970140	1473276516411	1473276516535	E	69
100134	1092634	We haven't sold the US business as yet.	We haven't sold the US busioness as yet. 	51970146	1473276516477	1473276516633	CAPS_LOCK	20
100134	1092634	We haven't sold the US business as yet.	We haven't sold the US busioness as yet. 	51970154	1473276516930	1473276517030	BKSP	8
100134	1092634	We haven't sold the US business as yet.	We haven't sold the US busioness as yet. 	51970162	1473276517067	1473276517212	CAPS_LOCK	20
100134	1092634	We haven't sold the US business as yet.	We haven't sold the US busioness as yet. 	51970166	1473276517204	1473276517344	W	87
100134	1092634	We haven't sold the US business as yet.	We haven't sold the US busioness as yet. 	51970169	1473276517328	1473276517463	CAPS_LOCK	20
100134	1092634	We haven't sold the US business as yet.	We haven't sold the US busioness as yet. 	51970175	1473276517428	1473276517568	e	69
100134	1092634	We haven't sold the US business as yet.	We haven't sold the US busioness as yet. 	51970184	1473276517655	1473276517739	 	32
100134	1092634	We haven't sold the US business as yet.	We haven't sold the US busioness as yet. 	51970189	1473276517782	1473276517878	h	72
100134	1092634	We haven't sold the US business as yet.	We haven't sold the US busioness as yet. 	51970180	1473276517861	1473276517988	a	65
100134	1092634	We haven't sold the US business as yet.	We haven't sold the US busioness as yet. 	51970185	1473276517961	1473276518092	v	86
100134	1092634	We haven't sold the US business as yet.	We haven't sold the US busioness as yet. 	51970192	1473276518060	1473276518236	e	69
100134	1092634	We haven't sold the US business as yet.	We haven't sold the US busioness as yet. 	51970197	1473276518209	1473276518301	n	78
100134	1092634	We haven't sold the US business as yet.	We haven't sold the US busioness as yet. 	51970201	1473276518296	1473276518445	t	84
100134	1092634	We haven't sold the US business as yet.	We haven't sold the US busioness as yet. 	51970267	1473276518439	1473276518565	;	186
100134	1092634	We haven't sold the US business as yet.	We haven't sold the US busioness as yet. 	51970275	1473276518652	1473276518789	s	83
100134	1092634	We haven't sold the US business as yet.	We haven't sold the US busioness as yet. 	51970273	1473276518684	1473276518734	a	65
100134	1092634	We haven't sold the US business as yet.	We haven't sold the US busioness as yet. 	51970282	1473276518796	1473276518882	 	32
100134	1092634	We haven't sold the US business as yet.	We haven't sold the US busioness as yet. 	51970289	1473276519031	1473276519116	BKSP	8
100134	1092634	We haven't sold the US business as yet.	We haven't sold the US busioness as yet. 	51970294	1473276519188	1473276519260	BKSP	8
100134	1092634	We haven't sold the US business as yet.	We haven't sold the US busioness as yet. 	51970300	1473276519336	1473276519419	BKSP	8
100134	1092634	We haven't sold the US business as yet.	We haven't sold the US busioness as yet. 	51970306	1473276519480	1473276519553	BKSP	8
100134	1092634	We haven't sold the US business as yet.	We haven't sold the US busioness as yet. 	51970309	1473276519614	1473276519770	BKSP	8
100134	1092634	We haven't sold the US business as yet.	We haven't sold the US busioness as yet. 	51970316	1473276519688	1473276519836	'	222
100134	1092634	We haven't sold the US business as yet.	We haven't sold the US busioness as yet. 	51970312	1473276519825	1473276519956	t	84
100134	1092634	We haven't sold the US business as yet.	We haven't sold the US busioness as yet. 	51970318	1473276519965	1473276520061	 	32
100134	1092634	We haven't sold the US business as yet.	We haven't sold the US busioness as yet. 	51970323	1473276520093	1473276520221	s	83
100134	1092634	We haven't sold the US business as yet.	We haven't sold the US busioness as yet. 	51970332	1473276520172	1473276520316	p	80
100134	1092634	We haven't sold the US business as yet.	We haven't sold the US busioness as yet. 	51970328	1473276520194	1473276520262	o	79
100134	1092634	We haven't sold the US business as yet.	We haven't sold the US busioness as yet. 	51970337	1473276520329	1473276520437	l	76
100134	1092634	We haven't sold the US business as yet.	We haven't sold the US busioness as yet. 	51970420	1473276520442	1473276520522	d	68
100134	1092634	We haven't sold the US business as yet.	We haven't sold the US busioness as yet. 	51970424	1473276520550	1473276520627	BKSP	8
100134	1092634	We haven't sold the US business as yet.	We haven't sold the US busioness as yet. 	51970429	1473276520700	1473276520774	BKSP	8
100134	1092634	We haven't sold the US business as yet.	We haven't sold the US busioness as yet. 	51970435	1473276520856	1473276520934	BKSP	8
100134	1092634	We haven't sold the US business as yet.	We haven't sold the US busioness as yet. 	51970440	1473276521022	1473276521113	BKSP	8
100134	1092634	We haven't sold the US business as yet.	We haven't sold the US busioness as yet. 	51970448	1473276521101	1473276521159	p	80
100134	1092634	We haven't sold the US business as yet.	We haven't sold the US busioness as yet. 	51970452	1473276521215	1473276521318	p	80
100134	1092634	We haven't sold the US business as yet.	We haven't sold the US busioness as yet. 	51970462	1473276521336	1473276521457	;	186
100134	1092634	We haven't sold the US business as yet.	We haven't sold the US busioness as yet. 	51970471	1473276521564	1473276521650	BKSP	8
100134	1092634	We haven't sold the US business as yet.	We haven't sold the US busioness as yet. 	51970480	1473276521729	1473276521793	BKSP	8
100134	1092634	We haven't sold the US business as yet.	We haven't sold the US busioness as yet. 	51970486	1473276521860	1473276521949	BKSP	8
100134	1092634	We haven't sold the US business as yet.	We haven't sold the US busioness as yet. 	51970493	1473276521995	1473276522077	o	79
100134	1092634	We haven't sold the US business as yet.	We haven't sold the US busioness as yet. 	51970477	1473276522131	1473276522244	l	76
100134	1092634	We haven't sold the US business as yet.	We haven't sold the US busioness as yet. 	51970484	1473276522238	1473276522317	d	68
100134	1092634	We haven't sold the US business as yet.	We haven't sold the US busioness as yet. 	51970490	1473276522319	1473276522415	 	32
100134	1092634	We haven't sold the US business as yet.	We haven't sold the US busioness as yet. 	51970495	1473276522437	1473276522565	t	84
100134	1092634	We haven't sold the US business as yet.	We haven't sold the US busioness as yet. 	51970556	1473276522534	1473276522638	h	72
100134	1092634	We haven't sold the US business as yet.	We haven't sold the US busioness as yet. 	51970560	1473276522635	1473276522780	e	69
100134	1092634	We haven't sold the US business as yet.	We haven't sold the US busioness as yet. 	51970562	1473276522749	1473276522854	 	32
100134	1092634	We haven't sold the US business as yet.	We haven't sold the US busioness as yet. 	51970565	1473276522843	1473276522977	CAPS_LOCK	20
100134	1092634	We haven't sold the US business as yet.	We haven't sold the US busioness as yet. 	51970568	1473276523026	1473276523144	U	85
100134	1092634	We haven't sold the US business as yet.	We haven't sold the US busioness as yet. 	51970572	1473276523130	1473276523269	S	83
100134	1092634	We haven't sold the US business as yet.	We haven't sold the US busioness as yet. 	51970575	1473276523235	1473276523320	CAPS_LOCK	20
100134	1092634	We haven't sold the US business as yet.	We haven't sold the US busioness as yet. 	51970597	1473276523303	1473276523388	 	32
100134	1092634	We haven't sold the US business as yet.	We haven't sold the US busioness as yet. 	51970599	1473276523476	1473276523622	b	66
100134	1092634	We haven't sold the US business as yet.	We haven't sold the US busioness as yet. 	51970605	1473276523554	1473276523692	u	85
100134	1092634	We haven't sold the US business as yet.	We haven't sold the US busioness as yet. 	51970610	1473276523749	1473276523886	s	83
100134	1092634	We haven't sold the US business as yet.	We haven't sold the US busioness as yet. 	51970650	1473276523880	1473276523995	o	73
100134	1092634	We haven't sold the US business as yet.	We haven't sold the US busioness as yet. 	51970658	1473276524019	1473276524144	n	78
100134	1092634	We haven't sold the US business as yet.	We haven't sold the US busioness as yet. 	51970665	1473276524111	1473276524234	e	69
100134	1092634	We haven't sold the US business as yet.	We haven't sold the US busioness as yet. 	51970669	1473276524268	1473276524342	s	83
100134	1092634	We haven't sold the US business as yet.	We haven't sold the US busioness as yet. 	51970674	1473276524414	1473276524514	s	83
100134	1092634	We haven't sold the US business as yet.	We haven't sold the US busioness as yet. 	51970680	1473276524529	1473276524623	 	32
100134	1092634	We haven't sold the US business as yet.	We haven't sold the US busioness as yet. 	51970711	1473276524695	1473276524870	a	65
100134	1092634	We haven't sold the US business as yet.	We haven't sold the US busioness as yet. 	51970716	1473276524835	1473276524936	d	83
100134	1092634	We haven't sold the US business as yet.	We haven't sold the US busioness as yet. 	51970721	1473276524904	1473276525013	 	32
100134	1092634	We haven't sold the US business as yet.	We haven't sold the US busioness as yet. 	51970723	1473276525188	1473276525272	BKSP	8
100134	1092634	We haven't sold the US business as yet.	We haven't sold the US busioness as yet. 	51970725	1473276525348	1473276525418	BKSP	8
100134	1092634	We haven't sold the US business as yet.	We haven't sold the US busioness as yet. 	51970732	1473276525576	1473276525633	 	32
100134	1092634	We haven't sold the US business as yet.	We haven't sold the US busioness as yet. 	51970783	1473276525940	1473276526093	e	69
100134	1092634	We haven't sold the US business as yet.	We haven't sold the US busioness as yet. 	51970787	1473276526106	1473276526163	y	89
100134	1092634	We haven't sold the US business as yet.	We haven't sold the US busioness as yet. 	51970793	1473276526288	1473276526387	BKSP	8
100134	1092634	We haven't sold the US business as yet.	We haven't sold the US busioness as yet. 	51970798	1473276526440	1473276526536	y	89
100134	1092634	We haven't sold the US business as yet.	We haven't sold the US busioness as yet. 	51970805	1473276526487	1473276526590	BKSP	8
100134	1092634	We haven't sold the US business as yet.	We haven't sold the US busioness as yet. 	51970811	1473276526650	1473276526785	y	89
100134	1092634	We haven't sold the US business as yet.	We haven't sold the US busioness as yet. 	51970817	1473276526836	1473276526935	BKSP	8
100134	1092634	We haven't sold the US business as yet.	We haven't sold the US busioness as yet. 	51970823	1473276527004	1473276527094	BKSP	8
100134	1092634	We haven't sold the US business as yet.	We haven't sold the US busioness as yet. 	51970878	1473276527062	1473276527171	y	89
100134	1092634	We haven't sold the US business as yet.	We haven't sold the US busioness as yet. 	51970884	1473276527145	1473276527302	e	69
100134	1092634	We haven't sold the US business as yet.	We haven't sold the US busioness as yet. 	51970891	1473276527244	1473276527373	t	84
100134	1092634	We haven't sold the US business as yet.	We haven't sold the US busioness as yet. 	51970895	1473276527292	1473276527396	.	190
100134	1092634	We haven't sold the US business as yet.	We haven't sold the US busioness as yet. 	51970899	1473276527446	1473276527553	 	32
100134	1092654	I bet you it will be a strong motor all day, though.	I bet you it will be strong motor all day, though.	51971114	1473276531302	1473276531403	CAPS_LOCK	20
100134	1092654	I bet you it will be a strong motor all day, though.	I bet you it will be strong motor all day, though.	51971117	1473276531409	1473276531532	I	73
100134	1092654	I bet you it will be a strong motor all day, though.	I bet you it will be strong motor all day, though.	51971121	1473276531491	1473276531589	 	20
100134	1092654	I bet you it will be a strong motor all day, though.	I bet you it will be strong motor all day, though.	51971126	1473276531661	1473276531758	b	66
100134	1092654	I bet you it will be a strong motor all day, though.	I bet you it will be strong motor all day, though.	51971127	1473276531718	1473276531896	e	69
100134	1092654	I bet you it will be a strong motor all day, though.	I bet you it will be strong motor all day, though.	51971146	1473276531834	1473276531997	t	84
100134	1092654	I bet you it will be a strong motor all day, though.	I bet you it will be strong motor all day, though.	51971150	1473276531921	1473276531998	 	32
100134	1092654	I bet you it will be a strong motor all day, though.	I bet you it will be strong motor all day, though.	51971156	1473276532062	1473276532168	y	89
100134	1092654	I bet you it will be a strong motor all day, though.	I bet you it will be strong motor all day, though.	51971162	1473276532216	1473276532402	o	79
100134	1092654	I bet you it will be a strong motor all day, though.	I bet you it will be strong motor all day, though.	51971220	1473276532286	1473276532432	u	85
100134	1092654	I bet you it will be a strong motor all day, though.	I bet you it will be strong motor all day, though.	51971223	1473276532339	1473276532443	 	32
100134	1092654	I bet you it will be a strong motor all day, though.	I bet you it will be strong motor all day, though.	51971226	1473276532797	1473276532912	i	73
100134	1092654	I bet you it will be a strong motor all day, though.	I bet you it will be strong motor all day, though.	51971227	1473276532891	1473276533008	t	84
100134	1092654	I bet you it will be a strong motor all day, though.	I bet you it will be strong motor all day, though.	51971228	1473276533011	1473276533109	 	32
100134	1092654	I bet you it will be a strong motor all day, though.	I bet you it will be strong motor all day, though.	51971229	1473276533087	1473276533194	w	87
100134	1092654	I bet you it will be a strong motor all day, though.	I bet you it will be strong motor all day, though.	51971231	1473276533213	1473276533302	i	73
100134	1092654	I bet you it will be a strong motor all day, though.	I bet you it will be strong motor all day, though.	51971270	1473276533399	1473276533481	l	76
100134	1092654	I bet you it will be a strong motor all day, though.	I bet you it will be strong motor all day, though.	51971276	1473276533535	1473276533645	l	76
100134	1092654	I bet you it will be a strong motor all day, though.	I bet you it will be strong motor all day, though.	51971279	1473276533642	1473276533756	 	32
100134	1092654	I bet you it will be a strong motor all day, though.	I bet you it will be strong motor all day, though.	51971286	1473276533812	1473276533912	b	66
100134	1092654	I bet you it will be a strong motor all day, though.	I bet you it will be strong motor all day, though.	51971305	1473276533903	1473276534027	e	69
100134	1092654	I bet you it will be a strong motor all day, though.	I bet you it will be strong motor all day, though.	51971306	1473276533986	1473276534102	 	32
100134	1092654	I bet you it will be a strong motor all day, though.	I bet you it will be strong motor all day, though.	51971309	1473276534103	1473276534232	s	83
100134	1092654	I bet you it will be a strong motor all day, though.	I bet you it will be strong motor all day, though.	51971316	1473276534205	1473276534349	t	84
100134	1092654	I bet you it will be a strong motor all day, though.	I bet you it will be strong motor all day, though.	51971321	1473276534439	1473276534558	r	82
100134	1092654	I bet you it will be a strong motor all day, though.	I bet you it will be strong motor all day, though.	51971376	1473276534512	1473276534642	o	79
100134	1092654	I bet you it will be a strong motor all day, though.	I bet you it will be strong motor all day, though.	51971382	1473276534555	1473276534693	n	78
100134	1092654	I bet you it will be a strong motor all day, though.	I bet you it will be strong motor all day, though.	51971387	1473276534652	1473276534783	g	71
100134	1092654	I bet you it will be a strong motor all day, though.	I bet you it will be strong motor all day, though.	51971389	1473276534732	1473276534858	 	32
100134	1092654	I bet you it will be a strong motor all day, though.	I bet you it will be strong motor all day, though.	51971393	1473276534952	1473276534992	a	65
100134	1092654	I bet you it will be a strong motor all day, though.	I bet you it will be strong motor all day, though.	51971398	1473276535235	1473276535276	m	77
100134	1092654	I bet you it will be a strong motor all day, though.	I bet you it will be strong motor all day, though.	51971403	1473276535349	1473276535450	BKSP	8
100134	1092654	I bet you it will be a strong motor all day, though.	I bet you it will be strong motor all day, though.	51971409	1473276535550	1473276535592	m	77
100134	1092654	I bet you it will be a strong motor all day, though.	I bet you it will be strong motor all day, though.	51971451	1473276535597	1473276535640	=	187
100134	1092654	I bet you it will be a strong motor all day, though.	I bet you it will be strong motor all day, though.	51971454	1473276535751	1473276535855	BKSP	8
100134	1092654	I bet you it will be a strong motor all day, though.	I bet you it will be strong motor all day, though.	51971462	1473276535933	1473276536025	BKSP	8
100134	1092654	I bet you it will be a strong motor all day, though.	I bet you it will be strong motor all day, though.	51971468	1473276536079	1473276536197	m	77
100134	1092654	I bet you it will be a strong motor all day, though.	I bet you it will be strong motor all day, though.	51971475	1473276536191	1473276536317	o	79
100134	1092654	I bet you it will be a strong motor all day, though.	I bet you it will be strong motor all day, though.	51971480	1473276536432	1473276536525	BKSP	8
100134	1092654	I bet you it will be a strong motor all day, though.	I bet you it will be strong motor all day, though.	51971484	1473276536589	1473276536651	BKSP	8
100134	1092654	I bet you it will be a strong motor all day, though.	I bet you it will be strong motor all day, though.	51971488	1473276536726	1473276536792	BKSP	8
100134	1092654	I bet you it will be a strong motor all day, though.	I bet you it will be strong motor all day, though.	51971491	1473276536896	1473276537004	m	77
100134	1092654	I bet you it will be a strong motor all day, though.	I bet you it will be strong motor all day, though.	51971493	1473276537037	1473276537136	o	79
100134	1092654	I bet you it will be a strong motor all day, though.	I bet you it will be strong motor all day, though.	51971520	1473276537199	1473276537275	t	84
100134	1092654	I bet you it will be a strong motor all day, though.	I bet you it will be strong motor all day, though.	51971525	1473276537320	1473276537401	o	79
100134	1092654	I bet you it will be a strong motor all day, though.	I bet you it will be strong motor all day, though.	51971527	1473276537544	1473276537670	r	82
100134	1092654	I bet you it will be a strong motor all day, though.	I bet you it will be strong motor all day, though.	51971530	1473276537703	1473276537815	 	32
100134	1092654	I bet you it will be a strong motor all day, though.	I bet you it will be strong motor all day, though.	51971533	1473276537850	1473276537998	a	65
100134	1092654	I bet you it will be a strong motor all day, though.	I bet you it will be strong motor all day, though.	51971545	1473276537960	1473276538043	l	76
100134	1092654	I bet you it will be a strong motor all day, though.	I bet you it will be strong motor all day, though.	51971547	1473276538095	1473276538204	l	76
100134	1092654	I bet you it will be a strong motor all day, though.	I bet you it will be strong motor all day, though.	51971550	1473276538206	1473276538368	 	32
100134	1092654	I bet you it will be a strong motor all day, though.	I bet you it will be strong motor all day, though.	51971553	1473276538254	1473276538398	d	68
100134	1092654	I bet you it will be a strong motor all day, though.	I bet you it will be strong motor all day, though.	51971556	1473276538332	1473276538493	a	65
100134	1092654	I bet you it will be a strong motor all day, though.	I bet you it will be strong motor all day, though.	51971644	1473276538463	1473276538610	y	89
100134	1092654	I bet you it will be a strong motor all day, though.	I bet you it will be strong motor all day, though.	51971648	1473276538734	1473276538868	,	188
100134	1092654	I bet you it will be a strong motor all day, though.	I bet you it will be strong motor all day, though.	51971653	1473276538918	1473276539016	 	32
100134	1092654	I bet you it will be a strong motor all day, though.	I bet you it will be strong motor all day, though.	51971658	1473276539174	1473276539315	t	84
100134	1092654	I bet you it will be a strong motor all day, though.	I bet you it will be strong motor all day, though.	51971661	1473276539262	1473276539344	h	72
100134	1092654	I bet you it will be a strong motor all day, though.	I bet you it will be strong motor all day, though.	51971665	1473276539434	1473276539524	BKSP	8
100134	1092654	I bet you it will be a strong motor all day, though.	I bet you it will be strong motor all day, though.	51971670	1473276539653	1473276539769	BKSP	8
100134	1092654	I bet you it will be a strong motor all day, though.	I bet you it will be strong motor all day, though.	51971673	1473276539975	1473276540058	t	84
100134	1092654	I bet you it will be a strong motor all day, though.	I bet you it will be strong motor all day, though.	51971707	1473276540027	1473276540138	h	72
100134	1092654	I bet you it will be a strong motor all day, though.	I bet you it will be strong motor all day, though.	51971711	1473276540323	1473276540423	=	8
100134	1092654	I bet you it will be a strong motor all day, though.	I bet you it will be strong motor all day, though.	51971717	1473276540562	1473276540655	u	85
100134	1092654	I bet you it will be a strong motor all day, though.	I bet you it will be strong motor all day, though.	51971723	1473276540744	1473276540858	BKSP	8
100134	1092654	I bet you it will be a strong motor all day, though.	I bet you it will be strong motor all day, though.	51971729	1473276540911	1473276541043	BKSP	8
100134	1092654	I bet you it will be a strong motor all day, though.	I bet you it will be strong motor all day, though.	51971735	1473276541186	1473276541294	h	72
100134	1092654	I bet you it will be a strong motor all day, though.	I bet you it will be strong motor all day, though.	51971739	1473276541262	1473276541408	o	79
100134	1092654	I bet you it will be a strong motor all day, though.	I bet you it will be strong motor all day, though.	51971841	1473276541363	1473276541494	u	85
100134	1092654	I bet you it will be a strong motor all day, though.	I bet you it will be strong motor all day, though.	51971846	1473276541497	1473276541614	g	71
100134	1092654	I bet you it will be a strong motor all day, though.	I bet you it will be strong motor all day, though.	51971851	1473276541607	1473276541703	h	72
100134	1092654	I bet you it will be a strong motor all day, though.	I bet you it will be strong motor all day, though.	51971856	1473276541899	1473276541992	ALT	18
100134	1092673	Mr. Rao, go to Washington but go with dignity.	Mr.Rao,go to Washington but go with dignity 	51972077	1473276544335	1473276547899	.	190
100134	1092673	Mr. Rao, go to Washington but go with dignity.	Mr.Rao,go to Washington but go with dignity 	51972069	1473276547018	1473276547165	CAPS_LOCK	20
100134	1092673	Mr. Rao, go to Washington but go with dignity.	Mr.Rao,go to Washington but go with dignity 	51972070	1473276547156	1473276547261	M	77
100134	1092673	Mr. Rao, go to Washington but go with dignity.	Mr.Rao,go to Washington but go with dignity 	51972072	1473276547269	1473276547412	CAPS_LOCK	20
100134	1092673	Mr. Rao, go to Washington but go with dignity.	Mr.Rao,go to Washington but go with dignity 	51972074	1473276547403	1473276547573	r	82
100134	1092673	Mr. Rao, go to Washington but go with dignity.	Mr.Rao,go to Washington but go with dignity 	51972084	1473276548012	1473276548138	CAPS_LOCK	20
100134	1092673	Mr. Rao, go to Washington but go with dignity.	Mr.Rao,go to Washington but go with dignity 	51972090	1473276548083	1473276548234	R	82
100134	1092673	Mr. Rao, go to Washington but go with dignity.	Mr.Rao,go to Washington but go with dignity 	51972096	1473276548199	1473276548313	CAPS_LOCK	20
100134	1092673	Mr. Rao, go to Washington but go with dignity.	Mr.Rao,go to Washington but go with dignity 	51972099	1473276548358	1473276548501	a	65
100134	1092673	Mr. Rao, go to Washington but go with dignity.	Mr.Rao,go to Washington but go with dignity 	51972154	1473276548469	1473276548566	o	79
100134	1092673	Mr. Rao, go to Washington but go with dignity.	Mr.Rao,go to Washington but go with dignity 	51972158	1473276548696	1473276548821	,	188
100134	1092673	Mr. Rao, go to Washington but go with dignity.	Mr.Rao,go to Washington but go with dignity 	51972163	1473276548901	1473276549007	 	32
100134	1092673	Mr. Rao, go to Washington but go with dignity.	Mr.Rao,go to Washington but go with dignity 	51972167	1473276549071	1473276549139	CAPS_LOCK	20
100134	1092673	Mr. Rao, go to Washington but go with dignity.	Mr.Rao,go to Washington but go with dignity 	51972171	1473276549368	1473276549503	BKSP	8
100134	1092673	Mr. Rao, go to Washington but go with dignity.	Mr.Rao,go to Washington but go with dignity 	51972175	1473276549651	1473276549794	G	71
100134	1092673	Mr. Rao, go to Washington but go with dignity.	Mr.Rao,go to Washington but go with dignity 	51972177	1473276549767	1473276549883	O	79
100134	1092673	Mr. Rao, go to Washington but go with dignity.	Mr.Rao,go to Washington but go with dignity 	51972179	1473276549934	1473276550042	 	32
100134	1092673	Mr. Rao, go to Washington but go with dignity.	Mr.Rao,go to Washington but go with dignity 	51972210	1473276550134	1473276550216	BKSP	8
100134	1092673	Mr. Rao, go to Washington but go with dignity.	Mr.Rao,go to Washington but go with dignity 	51972214	1473276550292	1473276550368	BKSP	8
100134	1092673	Mr. Rao, go to Washington but go with dignity.	Mr.Rao,go to Washington but go with dignity 	51972216	1473276550433	1473276550537	BKSP	8
100134	1092673	Mr. Rao, go to Washington but go with dignity.	Mr.Rao,go to Washington but go with dignity 	51972221	1473276550491	1473276550595	CAPS_LOCK	20
100134	1092673	Mr. Rao, go to Washington but go with dignity.	Mr.Rao,go to Washington but go with dignity 	51972224	1473276550545	1473276550678	g	71
100134	1092673	Mr. Rao, go to Washington but go with dignity.	Mr.Rao,go to Washington but go with dignity 	51972227	1473276550670	1473276550794	o	79
100134	1092673	Mr. Rao, go to Washington but go with dignity.	Mr.Rao,go to Washington but go with dignity 	51972229	1473276550764	1473276550876	 	32
100134	1092673	Mr. Rao, go to Washington but go with dignity.	Mr.Rao,go to Washington but go with dignity 	51972230	1473276550874	1473276551012	t	84
100134	1092673	Mr. Rao, go to Washington but go with dignity.	Mr.Rao,go to Washington but go with dignity 	51972284	1473276550969	1473276551098	o	79
100134	1092673	Mr. Rao, go to Washington but go with dignity.	Mr.Rao,go to Washington but go with dignity 	51972288	1473276551108	1473276551209	 	32
100134	1092673	Mr. Rao, go to Washington but go with dignity.	Mr.Rao,go to Washington but go with dignity 	51972291	1473276551546	1473276551673	CAPS_LOCK	20
100134	1092673	Mr. Rao, go to Washington but go with dignity.	Mr.Rao,go to Washington but go with dignity 	51972302	1473276551651	1473276551794	W	87
100134	1092673	Mr. Rao, go to Washington but go with dignity.	Mr.Rao,go to Washington but go with dignity 	51972296	1473276551695	1473276551780	S	83
100134	1092673	Mr. Rao, go to Washington but go with dignity.	Mr.Rao,go to Washington but go with dignity 	51972309	1473276551761	1473276551908	CAPS_LOCK	20
100134	1092673	Mr. Rao, go to Washington but go with dignity.	Mr.Rao,go to Washington but go with dignity 	51972316	1473276552074	1473276552150	BKSP	8
100134	1092673	Mr. Rao, go to Washington but go with dignity.	Mr.Rao,go to Washington but go with dignity 	51972321	1473276552277	1473276552413	a	65
100134	1092673	Mr. Rao, go to Washington but go with dignity.	Mr.Rao,go to Washington but go with dignity 	51972347	1473276552348	1473276552475	s	83
100134	1092673	Mr. Rao, go to Washington but go with dignity.	Mr.Rao,go to Washington but go with dignity 	51972349	1473276552572	1473276552680	t	84
100134	1092673	Mr. Rao, go to Washington but go with dignity.	Mr.Rao,go to Washington but go with dignity 	51972352	1473276552675	1473276552780	h	72
100134	1092673	Mr. Rao, go to Washington but go with dignity.	Mr.Rao,go to Washington but go with dignity 	51972356	1473276552754	1473276552891	i	73
100134	1092673	Mr. Rao, go to Washington but go with dignity.	Mr.Rao,go to Washington but go with dignity 	51972358	1473276553006	1473276553085	BKSP	8
100134	1092673	Mr. Rao, go to Washington but go with dignity.	Mr.Rao,go to Washington but go with dignity 	51972360	1473276553163	1473276553241	BKSP	8
100134	1092673	Mr. Rao, go to Washington but go with dignity.	Mr.Rao,go to Washington but go with dignity 	51972363	1473276553295	1473276553397	BKSP	8
100134	1092673	Mr. Rao, go to Washington but go with dignity.	Mr.Rao,go to Washington but go with dignity 	51972369	1473276553514	1473276553580	j	72
100134	1092673	Mr. Rao, go to Washington but go with dignity.	Mr.Rao,go to Washington but go with dignity 	51972430	1473276553851	1473276553931	BKSP	8
100134	1092673	Mr. Rao, go to Washington but go with dignity.	Mr.Rao,go to Washington but go with dignity 	51972433	1473276554012	1473276554083	BKSP	8
100134	1092673	Mr. Rao, go to Washington but go with dignity.	Mr.Rao,go to Washington but go with dignity 	51972437	1473276554269	1473276554360	h	72
100134	1092673	Mr. Rao, go to Washington but go with dignity.	Mr.Rao,go to Washington but go with dignity 	51972442	1473276554322	1473276554537	i	73
100134	1092673	Mr. Rao, go to Washington but go with dignity.	Mr.Rao,go to Washington but go with dignity 	51972445	1473276554441	1473276554565	n	78
100134	1092673	Mr. Rao, go to Washington but go with dignity.	Mr.Rao,go to Washington but go with dignity 	51972450	1473276554576	1473276554689	g	71
100134	1092673	Mr. Rao, go to Washington but go with dignity.	Mr.Rao,go to Washington but go with dignity 	51972453	1473276554778	1473276554911	t	84
100134	1092673	Mr. Rao, go to Washington but go with dignity.	Mr.Rao,go to Washington but go with dignity 	51972463	1473276554870	1473276555025	o	79
100134	1092673	Mr. Rao, go to Washington but go with dignity.	Mr.Rao,go to Washington but go with dignity 	51972465	1473276554946	1473276555084	n	78
100134	1092673	Mr. Rao, go to Washington but go with dignity.	Mr.Rao,go to Washington but go with dignity 	51972468	1473276555240	1473276555340	 	32
100134	1092673	Mr. Rao, go to Washington but go with dignity.	Mr.Rao,go to Washington but go with dignity 	51972471	1473276555384	1473276555517	b	66
100134	1092673	Mr. Rao, go to Washington but go with dignity.	Mr.Rao,go to Washington but go with dignity 	51972473	1473276555466	1473276555629	u	85
100134	1092673	Mr. Rao, go to Washington but go with dignity.	Mr.Rao,go to Washington but go with dignity 	51972488	1473276555595	1473276555706	t	84
100134	1092673	Mr. Rao, go to Washington but go with dignity.	Mr.Rao,go to Washington but go with dignity 	51972490	1473276555688	1473276555776	 	32
100134	1092673	Mr. Rao, go to Washington but go with dignity.	Mr.Rao,go to Washington but go with dignity 	51972493	1473276555796	1473276555932	g	71
100134	1092673	Mr. Rao, go to Washington but go with dignity.	Mr.Rao,go to Washington but go with dignity 	51972499	1473276555856	1473276555981	o	79
100134	1092673	Mr. Rao, go to Washington but go with dignity.	Mr.Rao,go to Washington but go with dignity 	51972502	1473276555944	1473276556074	 	32
100134	1092673	Mr. Rao, go to Washington but go with dignity.	Mr.Rao,go to Washington but go with dignity 	51972568	1473276556222	1473276556334	e	87
100134	1092673	Mr. Rao, go to Washington but go with dignity.	Mr.Rao,go to Washington but go with dignity 	51972569	1473276556718	1473276556841	i	73
100134	1092673	Mr. Rao, go to Washington but go with dignity.	Mr.Rao,go to Washington but go with dignity 	51972570	1473276556940	1473276557008	BKSP	8
100134	1092673	Mr. Rao, go to Washington but go with dignity.	Mr.Rao,go to Washington but go with dignity 	51972571	1473276557091	1473276557167	BKSP	8
100134	1092673	Mr. Rao, go to Washington but go with dignity.	Mr.Rao,go to Washington but go with dignity 	51972572	1473276557188	1473276557284	i	73
100134	1092673	Mr. Rao, go to Washington but go with dignity.	Mr.Rao,go to Washington but go with dignity 	51972573	1473276557296	1473276557418	t	84
100134	1092673	Mr. Rao, go to Washington but go with dignity.	Mr.Rao,go to Washington but go with dignity 	51972575	1473276557377	1473276557516	h	72
100134	1092673	Mr. Rao, go to Washington but go with dignity.	Mr.Rao,go to Washington but go with dignity 	51972603	1473276557487	1473276557591	 	32
100134	1092673	Mr. Rao, go to Washington but go with dignity.	Mr.Rao,go to Washington but go with dignity 	51972607	1473276557637	1473276557769	d	68
100134	1092673	Mr. Rao, go to Washington but go with dignity.	Mr.Rao,go to Washington but go with dignity 	51972614	1473276557744	1473276557868	i	73
100134	1092673	Mr. Rao, go to Washington but go with dignity.	Mr.Rao,go to Washington but go with dignity 	51972618	1473276557865	1473276557993	g	71
100134	1092673	Mr. Rao, go to Washington but go with dignity.	Mr.Rao,go to Washington but go with dignity 	51972620	1473276557970	1473276558072	n	78
100134	1092673	Mr. Rao, go to Washington but go with dignity.	Mr.Rao,go to Washington but go with dignity 	51972622	1473276558078	1473276558205	i	73
100134	1092673	Mr. Rao, go to Washington but go with dignity.	Mr.Rao,go to Washington but go with dignity 	51972629	1473276558187	1473276558327	t	84
100134	1092673	Mr. Rao, go to Washington but go with dignity.	Mr.Rao,go to Washington but go with dignity 	51972631	1473276558406	1473276558534	y	89
100134	1092673	Mr. Rao, go to Washington but go with dignity.	Mr.Rao,go to Washington but go with dignity 	51972633	1473276558482	1473276558556	 	32
100134	1092687	But he added the list given was still incomplete.	But he added the list given was still incomplete.	51972810	1473276560985	1473276561128	CAPS_LOCK	20
100134	1092687	But he added the list given was still incomplete.	But he added the list given was still incomplete.	51972817	1473276561120	1473276561221	B	66
100134	1092687	But he added the list given was still incomplete.	But he added the list given was still incomplete.	51972823	1473276561179	1473276561300	CAPS_LOCK	20
100134	1092687	But he added the list given was still incomplete.	But he added the list given was still incomplete.	51972828	1473276561313	1473276561438	u	85
100134	1092687	But he added the list given was still incomplete.	But he added the list given was still incomplete.	51972836	1473276561390	1473276561505	t	84
100134	1092687	But he added the list given was still incomplete.	But he added the list given was still incomplete.	51972843	1473276561493	1473276561570	 	32
100134	1092687	But he added the list given was still incomplete.	But he added the list given was still incomplete.	51972849	1473276561609	1473276561712	h	72
100134	1092687	But he added the list given was still incomplete.	But he added the list given was still incomplete.	51972859	1473276561690	1473276561826	e	69
100134	1092687	But he added the list given was still incomplete.	But he added the list given was still incomplete.	51972864	1473276561818	1473276561924	 	32
100134	1092687	But he added the list given was still incomplete.	But he added the list given was still incomplete.	51972866	1473276561921	1473276562041	a	65
100134	1092687	But he added the list given was still incomplete.	But he added the list given was still incomplete.	51972868	1473276562009	1473276562106	d	68
100134	1092687	But he added the list given was still incomplete.	But he added the list given was still incomplete.	51972870	1473276562167	1473276562295	d	68
100134	1092687	But he added the list given was still incomplete.	But he added the list given was still incomplete.	51972873	1473276562272	1473276562410	e	69
100134	1092687	But he added the list given was still incomplete.	But he added the list given was still incomplete.	51972879	1473276562331	1473276562460	d	68
100134	1092687	But he added the list given was still incomplete.	But he added the list given was still incomplete.	51972882	1473276562428	1473276562516	 	32
100134	1092687	But he added the list given was still incomplete.	But he added the list given was still incomplete.	51972889	1473276562564	1473276562683	t	84
100134	1092687	But he added the list given was still incomplete.	But he added the list given was still incomplete.	51972897	1473276562646	1473276562764	h	72
100134	1092687	But he added the list given was still incomplete.	But he added the list given was still incomplete.	51972913	1473276562743	1473276562861	e	69
100134	1092687	But he added the list given was still incomplete.	But he added the list given was still incomplete.	51972917	1473276562835	1473276562940	 	32
100134	1092687	But he added the list given was still incomplete.	But he added the list given was still incomplete.	51972921	1473276562988	1473276563099	l	76
100134	1092687	But he added the list given was still incomplete.	But he added the list given was still incomplete.	51972924	1473276563183	1473276563280	i	73
100134	1092687	But he added the list given was still incomplete.	But he added the list given was still incomplete.	51972928	1473276563222	1473276563371	s	83
100134	1092687	But he added the list given was still incomplete.	But he added the list given was still incomplete.	51972937	1473276563317	1473276563438	t	84
100134	1092687	But he added the list given was still incomplete.	But he added the list given was still incomplete.	51972938	1473276563415	1473276563519	 	32
100134	1092687	But he added the list given was still incomplete.	But he added the list given was still incomplete.	51972940	1473276563530	1473276563660	g	71
100134	1092687	But he added the list given was still incomplete.	But he added the list given was still incomplete.	51972945	1473276563626	1473276563768	e	69
100134	1092687	But he added the list given was still incomplete.	But he added the list given was still incomplete.	51972953	1473276563762	1473276563907	i	73
100134	1092687	But he added the list given was still incomplete.	But he added the list given was still incomplete.	51973009	1473276563901	1473276564013	v	86
100134	1092687	But he added the list given was still incomplete.	But he added the list given was still incomplete.	51973013	1473276563954	1473276564111	e	69
100134	1092687	But he added the list given was still incomplete.	But he added the list given was still incomplete.	51973017	1473276564091	1473276564158	n	78
100134	1092687	But he added the list given was still incomplete.	But he added the list given was still incomplete.	51973020	1473276564267	1473276564360	BKSP	8
100134	1092687	But he added the list given was still incomplete.	But he added the list given was still incomplete.	51973023	1473276564422	1473276564507	BKSP	8
100134	1092687	But he added the list given was still incomplete.	But he added the list given was still incomplete.	51973025	1473276564576	1473276564665	BKSP	8
100134	1092687	But he added the list given was still incomplete.	But he added the list given was still incomplete.	51973027	1473276564733	1473276564822	BKSP	8
100134	1092687	But he added the list given was still incomplete.	But he added the list given was still incomplete.	51973029	1473276564898	1473276565016	BKSP	8
100134	1092687	But he added the list given was still incomplete.	But he added the list given was still incomplete.	51973031	1473276564977	1473276565099	i	73
100134	1092687	But he added the list given was still incomplete.	But he added the list given was still incomplete.	51973033	1473276565110	1473276565252	e	69
100134	1092687	But he added the list given was still incomplete.	But he added the list given was still incomplete.	51973074	1473276565214	1473276565323	n	78
100134	1092687	But he added the list given was still incomplete.	But he added the list given was still incomplete.	51973076	1473276565293	1473276565387	 	32
100134	1092687	But he added the list given was still incomplete.	But he added the list given was still incomplete.	51973082	1473276565429	1473276565568	w	87
100134	1092687	But he added the list given was still incomplete.	But he added the list given was still incomplete.	51973088	1473276565608	1473276565681	BKSP	8
100134	1092687	But he added the list given was still incomplete.	But he added the list given was still incomplete.	51973093	1473276565760	1473276565836	BKSP	8
100134	1092687	But he added the list given was still incomplete.	But he added the list given was still incomplete.	51973100	1473276565908	1473276565977	BKSP	8
100134	1092687	But he added the list given was still incomplete.	But he added the list given was still incomplete.	51973105	1473276566063	1473276566121	BKSP	8
100134	1092687	But he added the list given was still incomplete.	But he added the list given was still incomplete.	51973109	1473276566225	1473276566266	BKSP	8
100134	1092687	But he added the list given was still incomplete.	But he added the list given was still incomplete.	51973115	1473276566716	1473276566831	i	73
100134	1092687	But he added the list given was still incomplete.	But he added the list given was still incomplete.	51973123	1473276566828	1473276566930	v	86
100134	1092687	But he added the list given was still incomplete.	But he added the list given was still incomplete.	51973116	1473276566870	1473276566992	e	69
100134	1092687	But he added the list given was still incomplete.	But he added the list given was still incomplete.	51973124	1473276566997	1473276567135	n	78
100134	1092687	But he added the list given was still incomplete.	But he added the list given was still incomplete.	51973128	1473276567117	1473276567202	 	32
100134	1092687	But he added the list given was still incomplete.	But he added the list given was still incomplete.	51973133	1473276567225	1473276567481	w	87
100134	1092687	But he added the list given was still incomplete.	But he added the list given was still incomplete.	51973147	1473276567347	1473276567498	a	65
100134	1092687	But he added the list given was still incomplete.	But he added the list given was still incomplete.	51973148	1473276567400	1473276567536	s	83
100134	1092687	But he added the list given was still incomplete.	But he added the list given was still incomplete.	51973149	1473276567495	1473276567599	 	32
100134	1092687	But he added the list given was still incomplete.	But he added the list given was still incomplete.	51973150	1473276567625	1473276567725	s	83
100134	1092687	But he added the list given was still incomplete.	But he added the list given was still incomplete.	51973151	1473276567830	1473276567926	t	84
100134	1092687	But he added the list given was still incomplete.	But he added the list given was still incomplete.	51973153	1473276567901	1473276567984	i	73
100134	1092687	But he added the list given was still incomplete.	But he added the list given was still incomplete.	51973155	1473276568058	1473276568150	l	76
100134	1092687	But he added the list given was still incomplete.	But he added the list given was still incomplete.	51973187	1473276568187	1473276568295	l	76
100134	1092687	But he added the list given was still incomplete.	But he added the list given was still incomplete.	51973191	1473276568239	1473276568350	 	32
100134	1092687	But he added the list given was still incomplete.	But he added the list given was still incomplete.	51973196	1473276568406	1473276568564	i	73
100134	1092687	But he added the list given was still incomplete.	But he added the list given was still incomplete.	51973201	1473276568472	1473276568598	m	77
100134	1092687	But he added the list given was still incomplete.	But he added the list given was still incomplete.	51973206	1473276568738	1473276568834	BKSP	8
100134	1092687	But he added the list given was still incomplete.	But he added the list given was still incomplete.	51973210	1473276568897	1473276569005	n	78
100134	1092687	But he added the list given was still incomplete.	But he added the list given was still incomplete.	51973246	1473276569061	1473276569213	c	67
100134	1092687	But he added the list given was still incomplete.	But he added the list given was still incomplete.	51973249	1473276569224	1473276569348	i	79
100134	1092687	But he added the list given was still incomplete.	But he added the list given was still incomplete.	51973253	1473276569362	1473276569464	m	77
100134	1092687	But he added the list given was still incomplete.	But he added the list given was still incomplete.	51973260	1473276569616	1473276569702	BKSP	8
100134	1092687	But he added the list given was still incomplete.	But he added the list given was still incomplete.	51973266	1473276569782	1473276569874	BKSP	8
100134	1092687	But he added the list given was still incomplete.	But he added the list given was still incomplete.	51973272	1473276569989	1473276570093	m	77
100134	1092687	But he added the list given was still incomplete.	But he added the list given was still incomplete.	51973283	1473276570150	1473276570292	p	80
100134	1092687	But he added the list given was still incomplete.	But he added the list given was still incomplete.	51973286	1473276570209	1473276570344	l	76
100134	1092687	But he added the list given was still incomplete.	But he added the list given was still incomplete.	51973290	1473276570338	1473276570463	e	69
100134	1092687	But he added the list given was still incomplete.	But he added the list given was still incomplete.	51973294	1473276570408	1473276570560	t	84
100134	1092687	But he added the list given was still incomplete.	But he added the list given was still incomplete.	51973331	1473276570528	1473276570675	e	69
100134	1092687	But he added the list given was still incomplete.	But he added the list given was still incomplete.	51973333	1473276570834	1473276570934	,	190
100134	1092687	But he added the list given was still incomplete.	But he added the list given was still incomplete.	51973338	1473276571274	1473276571367	BKSP	8
100134	1092698	Do we need to do anything here?	Do we need to anything here?	51973505	1473276574177	1473276574270	CAPS_LOCK	20
100134	1092698	Do we need to do anything here?	Do we need to anything here?	51973508	1473276574239	1473276574391	D	68
100134	1092698	Do we need to do anything here?	Do we need to anything here?	51973513	1473276574345	1473276574465	CAPS_LOCK	20
100134	1092698	Do we need to do anything here?	Do we need to anything here?	51973519	1473276574416	1473276574563	o	79
100134	1092698	Do we need to do anything here?	Do we need to anything here?	51973526	1473276574518	1473276574620	 	32
100134	1092698	Do we need to do anything here?	Do we need to anything here?	51973535	1473276574707	1473276574869	w	87
100134	1092698	Do we need to do anything here?	Do we need to anything here?	51973550	1473276574797	1473276574933	e	69
100134	1092698	Do we need to do anything here?	Do we need to anything here?	51973553	1473276574890	1473276574974	 	32
100134	1092698	Do we need to do anything here?	Do we need to anything here?	51973557	1473276575014	1473276575118	n	78
100134	1092698	Do we need to do anything here?	Do we need to anything here?	51973560	1473276575071	1473276575179	e	69
100134	1092698	Do we need to do anything here?	Do we need to anything here?	51973563	1473276575254	1473276575398	e	69
100134	1092698	Do we need to do anything here?	Do we need to anything here?	51973569	1473276575330	1473276575447	d	68
100134	1092698	Do we need to do anything here?	Do we need to anything here?	51973572	1473276575421	1473276575528	 	32
100134	1092698	Do we need to do anything here?	Do we need to anything here?	51973578	1473276575553	1473276575661	t	84
100134	1092698	Do we need to do anything here?	Do we need to anything here?	51973581	1473276575642	1473276575767	o	79
100134	1092698	Do we need to do anything here?	Do we need to anything here?	51973585	1473276575700	1473276575795	 	32
100134	1092698	Do we need to do anything here?	Do we need to anything here?	51973594	1473276575778	1473276575935	a	65
100134	1092698	Do we need to do anything here?	Do we need to anything here?	51973596	1473276575889	1473276576045	n	78
100134	1092698	Do we need to do anything here?	Do we need to anything here?	51973598	1473276576019	1473276576138	y	89
100134	1092698	Do we need to do anything here?	Do we need to anything here?	51973601	1473276576150	1473276576295	t	84
100134	1092698	Do we need to do anything here?	Do we need to anything here?	51973605	1473276576232	1473276576345	h	72
100134	1092698	Do we need to do anything here?	Do we need to anything here?	51973622	1473276576309	1473276576545	i	73
100134	1092698	Do we need to do anything here?	Do we need to anything here?	51973625	1473276576433	1473276576599	n	78
100134	1092698	Do we need to do anything here?	Do we need to anything here?	51973630	1473276576574	1473276576685	g	71
100134	1092698	Do we need to do anything here?	Do we need to anything here?	51973633	1473276576671	1473276576771	 	32
100134	1092698	Do we need to do anything here?	Do we need to anything here?	51973637	1473276576894	1473276577031	h	72
100134	1092698	Do we need to do anything here?	Do we need to anything here?	51973648	1473276576967	1473276577076	e	69
100134	1092698	Do we need to do anything here?	Do we need to anything here?	51973653	1473276577035	1473276577179	r	82
100134	1092698	Do we need to do anything here?	Do we need to anything here?	51973657	1473276577150	1473276577289	e	69
100134	1092698	Do we need to do anything here?	Do we need to anything here?	51973661	1473276577195	1473276577378	SHIFT	16
100134	1092698	Do we need to do anything here?	Do we need to anything here?	51973663	1473276577290	1473276577424	?	191
100134	1092703	Europe has lost a great ally.	Europe has lost a great ally. 	51973834	1473276579872	1473276579942	CAPS_LOCK	20
100134	1092703	Europe has lost a great ally.	Europe has lost a great ally. 	51973835	1473276579911	1473276580077	E	69
100134	1092703	Europe has lost a great ally.	Europe has lost a great ally. 	51973836	1473276580106	1473276580189	CAPS_LOCK	20
100134	1092703	Europe has lost a great ally.	Europe has lost a great ally. 	51973838	1473276580478	1473276580590	u	85
100134	1092703	Europe has lost a great ally.	Europe has lost a great ally. 	51973840	1473276581226	1473276581393	r	82
100134	1092703	Europe has lost a great ally.	Europe has lost a great ally. 	51973842	1473276581639	1473276581732	o	79
100134	1092703	Europe has lost a great ally.	Europe has lost a great ally. 	51973861	1473276581687	1473276581831	p	80
100134	1092703	Europe has lost a great ally.	Europe has lost a great ally. 	51973867	1473276581786	1473276581933	e	69
100134	1092703	Europe has lost a great ally.	Europe has lost a great ally. 	51973875	1473276581917	1473276582027	 	32
100134	1092703	Europe has lost a great ally.	Europe has lost a great ally. 	51973884	1473276582092	1473276582221	h	72
100134	1092703	Europe has lost a great ally.	Europe has lost a great ally. 	51973888	1473276582156	1473276582295	a	65
100134	1092703	Europe has lost a great ally.	Europe has lost a great ally. 	51973896	1473276582237	1473276582371	s	83
100134	1092703	Europe has lost a great ally.	Europe has lost a great ally. 	51973897	1473276582300	1473276582372	 	32
100134	1092703	Europe has lost a great ally.	Europe has lost a great ally. 	51973900	1473276582471	1473276582606	l	76
100134	1092703	Europe has lost a great ally.	Europe has lost a great ally. 	51973904	1473276582555	1473276582721	o	79
100134	1092703	Europe has lost a great ally.	Europe has lost a great ally. 	51973907	1473276582664	1473276582812	s	83
100134	1092703	Europe has lost a great ally.	Europe has lost a great ally. 	51973926	1473276582726	1473276582847	t	84
100134	1092703	Europe has lost a great ally.	Europe has lost a great ally. 	51973931	1473276582863	1473276582972	 	32
100134	1092703	Europe has lost a great ally.	Europe has lost a great ally. 	51973935	1473276583075	1473276583224	a	65
100134	1092703	Europe has lost a great ally.	Europe has lost a great ally. 	51973938	1473276583222	1473276583305	 	71
100134	1092703	Europe has lost a great ally.	Europe has lost a great ally. 	51973940	1473276583536	1473276583687	r	82
100134	1092703	Europe has lost a great ally.	Europe has lost a great ally. 	51973954	1473276583737	1473276583829	BKSP	8
100134	1092703	Europe has lost a great ally.	Europe has lost a great ally. 	51973957	1473276583904	1473276583989	BKSP	8
100134	1092703	Europe has lost a great ally.	Europe has lost a great ally. 	51973960	1473276584066	1473276584217	BKSP	8
100134	1092703	Europe has lost a great ally.	Europe has lost a great ally. 	51973964	1473276584196	1473276584315	 	32
100134	1092703	Europe has lost a great ally.	Europe has lost a great ally. 	51973969	1473276584276	1473276584379	g	71
100134	1092703	Europe has lost a great ally.	Europe has lost a great ally. 	51973975	1473276584458	1473276584605	r	82
100134	1092703	Europe has lost a great ally.	Europe has lost a great ally. 	51974013	1473276584547	1473276584751	e	69
100134	1092703	Europe has lost a great ally.	Europe has lost a great ally. 	51974008	1473276584601	1473276584732	a	65
100134	1092703	Europe has lost a great ally.	Europe has lost a great ally. 	51974017	1473276584719	1473276584821	t	89
100134	1092703	Europe has lost a great ally.	Europe has lost a great ally. 	51974020	1473276584793	1473276584888	 	32
100134	1092703	Europe has lost a great ally.	Europe has lost a great ally. 	51974026	1473276584989	1473276585116	a	65
100134	1092703	Europe has lost a great ally.	Europe has lost a great ally. 	51974031	1473276585402	1473276585449	a	65
100134	1092703	Europe has lost a great ally.	Europe has lost a great ally. 	51974099	1473276585441	1473276585548	BKSP	8
100134	1092703	Europe has lost a great ally.	Europe has lost a great ally. 	51974101	1473276585579	1473276585670	BKSP	8
100134	1092703	Europe has lost a great ally.	Europe has lost a great ally. 	51974107	1473276585739	1473276585805	BKSP	8
100134	1092703	Europe has lost a great ally.	Europe has lost a great ally. 	51974110	1473276585874	1473276585944	BKSP	8
100134	1092703	Europe has lost a great ally.	Europe has lost a great ally. 	51974113	1473276586036	1473276586174	BKSP	8
100134	1092703	Europe has lost a great ally.	Europe has lost a great ally. 	51974119	1473276586228	1473276586350	 	32
100134	1092703	Europe has lost a great ally.	Europe has lost a great ally. 	51974125	1473276586647	1473276586729	BKSP	8
100134	1092703	Europe has lost a great ally.	Europe has lost a great ally. 	51974128	1473276586886	1473276586983	t	84
100134	1092703	Europe has lost a great ally.	Europe has lost a great ally. 	51974130	1473276587199	1473276587282	 	32
100134	1092703	Europe has lost a great ally.	Europe has lost a great ally. 	51974132	1473276587279	1473276587393	a	65
100134	1092703	Europe has lost a great ally.	Europe has lost a great ally. 	51974134	1473276587381	1473276587474	l	76
100134	1092703	Europe has lost a great ally.	Europe has lost a great ally. 	51974135	1473276587528	1473276587608	l	76
100134	1092703	Europe has lost a great ally.	Europe has lost a great ally. 	51974136	1473276587628	1473276587787	y	89
100134	1092703	Europe has lost a great ally.	Europe has lost a great ally. 	51974137	1473276587718	1473276587843	.	190
100134	1092703	Europe has lost a great ally.	Europe has lost a great ally. 	51974138	1473276587856	1473276587955	 	32
100134	1092715	If not can I call you?	If not can I call you?	51974274	1473276590234	1473276590366	CAPS_LOCK	20
100134	1092715	If not can I call you?	If not can I call you?	51974276	1473276590367	1473276590461	I	73
100134	1092715	If not can I call you?	If not can I call you?	51974279	1473276590431	1473276590543	CAPS_LOCK	20
100134	1092715	If not can I call you?	If not can I call you?	51974282	1473276590520	1473276590655	f	70
100134	1092715	If not can I call you?	If not can I call you?	51974286	1473276590604	1473276590697	 	32
100134	1092715	If not can I call you?	If not can I call you?	51974293	1473276590778	1473276590904	n	78
100134	1092715	If not can I call you?	If not can I call you?	51974304	1473276590850	1473276591019	o	79
100134	1092715	If not can I call you?	If not can I call you?	51974308	1473276590975	1473276591080	 	32
100134	1092715	If not can I call you?	If not can I call you?	51974313	1473276591225	1473276591347	c	67
100134	1092715	If not can I call you?	If not can I call you?	51974318	1473276591293	1473276591463	a	65
100134	1092715	If not can I call you?	If not can I call you?	51974395	1473276591377	1473276591525	n	78
100134	1092715	If not can I call you?	If not can I call you?	51974399	1473276591439	1473276591568	 	32
100134	1092715	If not can I call you?	If not can I call you?	51974402	1473276591611	1473276591760	i	73
100134	1092715	If not can I call you?	If not can I call you?	51974405	1473276591697	1473276591830	 	32
100134	1092715	If not can I call you?	If not can I call you?	51974409	1473276591962	1473276592037	BKSP	8
100134	1092715	If not can I call you?	If not can I call you?	51974413	1473276592097	1473276592185	BKSP	8
100134	1092715	If not can I call you?	If not can I call you?	51974415	1473276592245	1473276592333	BKSP	8
100134	1092715	If not can I call you?	If not can I call you?	51974418	1473276592394	1473276592474	BKSP	8
100134	1092715	If not can I call you?	If not can I call you?	51974420	1473276592546	1473276592616	BKSP	8
100134	1092715	If not can I call you?	If not can I call you?	51974422	1473276592700	1473276592769	BKSP	8
100134	1092715	If not can I call you?	If not can I call you?	51974425	1473276592851	1473276592940	BKSP	8
100134	1092715	If not can I call you?	If not can I call you?	51974428	1473276593030	1473276593145	t	84
100134	1092715	If not can I call you?	If not can I call you?	51974433	1473276593139	1473276593252	 	32
100134	1092715	If not can I call you?	If not can I call you?	51974423	1473276593250	1473276593382	c	67
100134	1092715	If not can I call you?	If not can I call you?	51974426	1473276593314	1473276593481	a	65
100134	1092715	If not can I call you?	If not can I call you?	51974429	1473276593400	1473276593543	n	78
100134	1092715	If not can I call you?	If not can I call you?	51974432	1473276593457	1473276593581	 	32
100134	1092715	If not can I call you?	If not can I call you?	51974437	1473276593620	1473276593763	i	73
100134	1092715	If not can I call you?	If not can I call you?	51974481	1473276593732	1473276593847	 	32
100134	1092715	If not can I call you?	If not can I call you?	51974488	1473276593985	1473276594127	c	67
100134	1092715	If not can I call you?	If not can I call you?	51974494	1473276594071	1473276594215	a	65
100134	1092715	If not can I call you?	If not can I call you?	51974502	1473276594166	1473276594259	l	76
100134	1092715	If not can I call you?	If not can I call you?	51974510	1473276594314	1473276594452	l	76
100134	1092715	If not can I call you?	If not can I call you?	51974519	1473276594478	1473276594556	 	32
100134	1092715	If not can I call you?	If not can I call you?	51974622	1473276594579	1473276594652	BKSP	8
100134	1092715	If not can I call you?	If not can I call you?	51974627	1473276594714	1473276594805	BKSP	8
100134	1092715	If not can I call you?	If not can I call you?	51974631	1473276594858	1473276594944	BKSP	8
100134	1092715	If not can I call you?	If not can I call you?	51974636	1473276595010	1473276595091	BKSP	8
100134	1092715	If not can I call you?	If not can I call you?	51974641	1473276595166	1473276595246	BKSP	8
100134	1092715	If not can I call you?	If not can I call you?	51974647	1473276595331	1473276595385	BKSP	8
100134	1092715	If not can I call you?	If not can I call you?	51974653	1473276595489	1473276595577	BKSP	8
100134	1092715	If not can I call you?	If not can I call you?	51974656	1473276595663	1473276595786	CAPS_LOCK	20
100134	1092715	If not can I call you?	If not can I call you?	51974660	1473276595753	1473276595865	I	73
100134	1092715	If not can I call you?	If not can I call you?	51974664	1473276595826	1473276595920	 	32
100134	1092715	If not can I call you?	If not can I call you?	51974668	1473276596060	1473276596183	C	67
100134	1092715	If not can I call you?	If not can I call you?	51974672	1473276596133	1473276596274	A	65
100134	1092715	If not can I call you?	If not can I call you?	51974759	1473276596250	1473276596351	N	78
100134	1092715	If not can I call you?	If not can I call you?	51974761	1473276596522	1473276596617	BKSP	8
100134	1092715	If not can I call you?	If not can I call you?	51974766	1473276596684	1473276596805	BKSP	8
100134	1092715	If not can I call you?	If not can I call you?	51974768	1473276596761	1473276596906	CAPS_LOCK	20
100134	1092715	If not can I call you?	If not can I call you?	51974772	1473276596889	1473276597004	c	67
100134	1092715	If not can I call you?	If not can I call you?	51974778	1473276596952	1473276597123	a	65
100134	1092715	If not can I call you?	If not can I call you?	51974787	1473276597240	1473276597340	l	76
100134	1092715	If not can I call you?	If not can I call you?	51974795	1473276597422	1473276597507	BKSP	8
100134	1092715	If not can I call you?	If not can I call you?	51974800	1473276597585	1473276597669	BKSP	8
100134	1092715	If not can I call you?	If not can I call you?	51974806	1473276597755	1473276597837	BKSP	8
100134	1092715	If not can I call you?	If not can I call you?	51974809	1473276597897	1473276597995	BKSP	8
100134	1092715	If not can I call you?	If not can I call you?	51974815	1473276597991	1473276598094	c	67
100134	1092715	If not can I call you?	If not can I call you?	51974830	1473276598035	1473276598188	a	65
100134	1092715	If not can I call you?	If not can I call you?	51974836	1473276598098	1473276598190	l	76
100134	1092715	If not can I call you?	If not can I call you?	51974843	1473276598249	1473276598364	l	76
100134	1092715	If not can I call you?	If not can I call you?	51974847	1473276598362	1473276598480	 	32
100134	1092715	If not can I call you?	If not can I call you?	51974850	1473276598561	1473276598638	y	89
100134	1092715	If not can I call you?	If not can I call you?	51974854	1473276598698	1473276598851	o	79
100134	1092715	If not can I call you?	If not can I call you?	51974872	1473276598755	1473276598892	u	85
100134	1092715	If not can I call you?	If not can I call you?	51974881	1473276599002	1473276599401	SHIFT	16
100134	1092715	If not can I call you?	If not can I call you?	51974874	1473276599281	1473276599396	?	191
100134	1092730	Giants due to an ankle injury.	Giants due top an ankle injuryu	51975044	1473276601695	1473276601856	CAPS_LOCK	20
100134	1092730	Giants due to an ankle injury.	Giants due top an ankle injuryu	51975047	1473276601814	1473276601968	G	71
100134	1092730	Giants due to an ankle injury.	Giants due top an ankle injuryu	51975051	1473276601885	1473276602255	CAPS_LOCK	20
100134	1092730	Giants due to an ankle injury.	Giants due top an ankle injuryu	51975049	1473276602032	1473276602138	i	73
100134	1092730	Giants due to an ankle injury.	Giants due top an ankle injuryu	51975058	1473276602646	1473276602785	a	65
100134	1092730	Giants due to an ankle injury.	Giants due top an ankle injuryu	51975063	1473276602752	1473276602856	n	78
100134	1092730	Giants due to an ankle injury.	Giants due top an ankle injuryu	51975074	1473276602830	1473276602981	t	84
100134	1092730	Giants due to an ankle injury.	Giants due top an ankle injuryu	51975076	1473276602941	1473276603092	s	83
100134	1092730	Giants due to an ankle injury.	Giants due top an ankle injuryu	51975079	1473276603060	1473276603161	 	32
100134	1092730	Giants due to an ankle injury.	Giants due top an ankle injuryu	51975082	1473276603164	1473276603298	d	68
100134	1092730	Giants due to an ankle injury.	Giants due top an ankle injuryu	51975122	1473276603280	1473276603370	y	85
100134	1092730	Giants due to an ankle injury.	Giants due top an ankle injuryu	51975125	1473276603356	1473276603480	d	68
100134	1092730	Giants due to an ankle injury.	Giants due top an ankle injuryu	51975131	1473276603424	1473276603558	e	69
100134	1092730	Giants due to an ankle injury.	Giants due top an ankle injuryu	51975135	1473276603707	1473276603777	BKSP	8
100134	1092730	Giants due to an ankle injury.	Giants due top an ankle injuryu	51975141	1473276603859	1473276603916	BKSP	8
100134	1092730	Giants due to an ankle injury.	Giants due top an ankle injuryu	51975144	1473276604009	1473276604081	BKSP	8
100134	1092730	Giants due to an ankle injury.	Giants due top an ankle injuryu	51975147	1473276604249	1473276604350	e	69
100134	1092730	Giants due to an ankle injury.	Giants due top an ankle injuryu	51975149	1473276604338	1473276604418	 	32
100134	1092730	Giants due to an ankle injury.	Giants due top an ankle injuryu	51975150	1473276604436	1473276604556	t	84
100134	1092730	Giants due to an ankle injury.	Giants due top an ankle injuryu	51975160	1473276604527	1473276604644	p	79
100134	1092730	Giants due to an ankle injury.	Giants due top an ankle injuryu	51975164	1473276604626	1473276604729	 	32
100134	1092730	Giants due to an ankle injury.	Giants due top an ankle injuryu	51975169	1473276604745	1473276604893	a	65
100134	1092730	Giants due to an ankle injury.	Giants due top an ankle injuryu	51975171	1473276604868	1473276604965	n	78
100134	1092730	Giants due to an ankle injury.	Giants due top an ankle injuryu	51975174	1473276604983	1473276605073	 	32
100134	1092730	Giants due to an ankle injury.	Giants due top an ankle injuryu	51975178	1473276605093	1473276605239	a	65
100134	1092730	Giants due to an ankle injury.	Giants due top an ankle injuryu	51975223	1473276605232	1473276605317	n	78
100134	1092730	Giants due to an ankle injury.	Giants due top an ankle injuryu	51975228	1473276605512	1473276605590	k	75
100134	1092730	Giants due to an ankle injury.	Giants due top an ankle injuryu	51975232	1473276605686	1473276605776	l	76
100134	1092730	Giants due to an ankle injury.	Giants due top an ankle injuryu	51975238	1473276605791	1473276605915	e	69
100134	1092730	Giants due to an ankle injury.	Giants due top an ankle injuryu	51975243	1473276605890	1473276605986	 	32
100134	1092730	Giants due to an ankle injury.	Giants due top an ankle injuryu	51975249	1473276606012	1473276606153	i	73
100134	1092730	Giants due to an ankle injury.	Giants due top an ankle injuryu	51975272	1473276606092	1473276606192	n	78
100134	1092730	Giants due to an ankle injury.	Giants due top an ankle injuryu	51975276	1473276606267	1473276606365	j	74
100134	1092730	Giants due to an ankle injury.	Giants due top an ankle injuryu	51975282	1473276606424	1473276606562	y	85
100134	1092730	Giants due to an ankle injury.	Giants due top an ankle injuryu	51975285	1473276606550	1473276606729	r	82
100134	1092730	Giants due to an ankle injury.	Giants due top an ankle injuryu	51975394	1473276606702	1473276606859	y	89
100134	1092730	Giants due to an ankle injury.	Giants due top an ankle injuryu	51975400	1473276606861	1473276606962	 	32
100134	1092730	Giants due to an ankle injury.	Giants due top an ankle injuryu	51975407	1473276607787	1473276607857	BKSP	8
100134	1092730	Giants due to an ankle injury.	Giants due top an ankle injuryu	51975415	1473276607942	1473276607994	BKSP	8
100134	1092730	Giants due to an ankle injury.	Giants due top an ankle injuryu	51975425	1473276608079	1473276608158	BKSP	8
100134	1092730	Giants due to an ankle injury.	Giants due top an ankle injuryu	51975435	1473276608242	1473276608316	BKSP	8
100134	1092730	Giants due to an ankle injury.	Giants due top an ankle injuryu	51975441	1473276608265	1473276608380	r	82
100134	1092730	Giants due to an ankle injury.	Giants due top an ankle injuryu	51975443	1473276608475	1473276608551	u	89
100134	1092739	I'll take up my problem with weak Scott H.	I'll take up my problem with weak Scott H. 	51975663	1473276611254	1473276611374	CAPS_LOCK	20
100134	1092739	I'll take up my problem with weak Scott H.	I'll take up my problem with weak Scott H. 	51975666	1473276611704	1473276611803	I	73
100134	1092739	I'll take up my problem with weak Scott H.	I'll take up my problem with weak Scott H. 	51975671	1473276611806	1473276611938	CAPS_LOCK	20
100134	1092739	I'll take up my problem with weak Scott H.	I'll take up my problem with weak Scott H. 	51975676	1473276611940	1473276612032	;	186
100134	1092739	I'll take up my problem with weak Scott H.	I'll take up my problem with weak Scott H. 	51975678	1473276612222	1473276612316	l	76
100134	1092739	I'll take up my problem with weak Scott H.	I'll take up my problem with weak Scott H. 	51975682	1473276612468	1473276612543	BKSP	8
100134	1092739	I'll take up my problem with weak Scott H.	I'll take up my problem with weak Scott H. 	51975686	1473276612609	1473276612708	BKSP	8
100134	1092739	I'll take up my problem with weak Scott H.	I'll take up my problem with weak Scott H. 	51975691	1473276612776	1473276612889	'	222
100134	1092739	I'll take up my problem with weak Scott H.	I'll take up my problem with weak Scott H. 	51975698	1473276612990	1473276613111	l	76
100134	1092739	I'll take up my problem with weak Scott H.	I'll take up my problem with weak Scott H. 	51975695	1473276613161	1473276613283	l	76
100134	1092739	I'll take up my problem with weak Scott H.	I'll take up my problem with weak Scott H. 	51975700	1473276613309	1473276613429	 	32
100134	1092739	I'll take up my problem with weak Scott H.	I'll take up my problem with weak Scott H. 	51975824	1473276613434	1473276613555	r	84
100134	1092739	I'll take up my problem with weak Scott H.	I'll take up my problem with weak Scott H. 	51975828	1473276613507	1473276613681	a	65
100134	1092739	I'll take up my problem with weak Scott H.	I'll take up my problem with weak Scott H. 	51975833	1473276613756	1473276613838	BKSP	8
100134	1092739	I'll take up my problem with weak Scott H.	I'll take up my problem with weak Scott H. 	51975837	1473276613909	1473276613979	BKSP	8
100134	1092739	I'll take up my problem with weak Scott H.	I'll take up my problem with weak Scott H. 	51975840	1473276614120	1473276614247	CAPS_LOCK	20
100134	1092739	I'll take up my problem with weak Scott H.	I'll take up my problem with weak Scott H. 	51975847	1473276614222	1473276614360	K	75
100134	1092739	I'll take up my problem with weak Scott H.	I'll take up my problem with weak Scott H. 	51975851	1473276614320	1473276614456	W	87
100134	1092739	I'll take up my problem with weak Scott H.	I'll take up my problem with weak Scott H. 	51975856	1473276614433	1473276614532	 	32
100134	1092739	I'll take up my problem with weak Scott H.	I'll take up my problem with weak Scott H. 	51975859	1473276614698	1473276614806	BKSP	8
100134	1092739	I'll take up my problem with weak Scott H.	I'll take up my problem with weak Scott H. 	51975861	1473276614869	1473276614961	BKSP	8
100134	1092739	I'll take up my problem with weak Scott H.	I'll take up my problem with weak Scott H. 	51975863	1473276615021	1473276615116	BKSP	8
100134	1092739	I'll take up my problem with weak Scott H.	I'll take up my problem with weak Scott H. 	51975865	1473276615078	1473276615190	CAPS_LOCK	20
100134	1092739	I'll take up my problem with weak Scott H.	I'll take up my problem with weak Scott H. 	51975873	1473276615281	1473276615463	a	65
100134	1092739	I'll take up my problem with weak Scott H.	I'll take up my problem with weak Scott H. 	51975869	1473276615378	1473276615437	CAPS_LOCK	20
100134	1092739	I'll take up my problem with weak Scott H.	I'll take up my problem with weak Scott H. 	51975879	1473276615518	1473276615602	K	75
100134	1092739	I'll take up my problem with weak Scott H.	I'll take up my problem with weak Scott H. 	51975933	1473276615798	1473276615945	W	69
100134	1092739	I'll take up my problem with weak Scott H.	I'll take up my problem with weak Scott H. 	51975936	1473276616046	1473276616120	BKSP	8
100134	1092739	I'll take up my problem with weak Scott H.	I'll take up my problem with weak Scott H. 	51975938	1473276616198	1473276616276	BKSP	8
100134	1092739	I'll take up my problem with weak Scott H.	I'll take up my problem with weak Scott H. 	51975942	1473276616533	1473276616677	CAPS_LOCK	20
100134	1092739	I'll take up my problem with weak Scott H.	I'll take up my problem with weak Scott H. 	51975943	1473276616707	1473276616803	k	75
100134	1092739	I'll take up my problem with weak Scott H.	I'll take up my problem with weak Scott H. 	51975945	1473276616899	1473276617014	BKSP	8
100134	1092739	I'll take up my problem with weak Scott H.	I'll take up my problem with weak Scott H. 	51975947	1473276617077	1473276617171	BKSP	8
100134	1092739	I'll take up my problem with weak Scott H.	I'll take up my problem with weak Scott H. 	51975980	1473276617207	1473276617324	e	75
100134	1092739	I'll take up my problem with weak Scott H.	I'll take up my problem with weak Scott H. 	51975982	1473276617617	1473276617700	BKSP	8
100134	1092739	I'll take up my problem with weak Scott H.	I'll take up my problem with weak Scott H. 	51975985	1473276617890	1473276618028	e	69
100134	1092739	I'll take up my problem with weak Scott H.	I'll take up my problem with weak Scott H. 	51975988	1473276618013	1473276618121	 	32
100134	1092739	I'll take up my problem with weak Scott H.	I'll take up my problem with weak Scott H. 	51975992	1473276618163	1473276618271	u	85
100134	1092739	I'll take up my problem with weak Scott H.	I'll take up my problem with weak Scott H. 	51975995	1473276618316	1473276618516	p	80
100134	1092739	I'll take up my problem with weak Scott H.	I'll take up my problem with weak Scott H. 	51976020	1473276618499	1473276618581	 	32
100134	1092739	I'll take up my problem with weak Scott H.	I'll take up my problem with weak Scott H. 	51976025	1473276618629	1473276618752	m	77
100134	1092739	I'll take up my problem with weak Scott H.	I'll take up my problem with weak Scott H. 	51976030	1473276618755	1473276618914	y	89
100134	1092739	I'll take up my problem with weak Scott H.	I'll take up my problem with weak Scott H. 	51976035	1473276618874	1473276618958	 	32
100134	1092739	I'll take up my problem with weak Scott H.	I'll take up my problem with weak Scott H. 	51976039	1473276619011	1473276619138	p	80
100134	1092739	I'll take up my problem with weak Scott H.	I'll take up my problem with weak Scott H. 	51976045	1473276619199	1473276619348	b	66
100134	1092739	I'll take up my problem with weak Scott H.	I'll take up my problem with weak Scott H. 	51976114	1473276619888	1473276619997	BKSP	8
100134	1092739	I'll take up my problem with weak Scott H.	I'll take up my problem with weak Scott H. 	51976118	1473276620061	1473276620182	r	82
100134	1092739	I'll take up my problem with weak Scott H.	I'll take up my problem with weak Scott H. 	51976123	1473276620172	1473276620269	o	79
100134	1092739	I'll take up my problem with weak Scott H.	I'll take up my problem with weak Scott H. 	51976129	1473276620278	1473276620392	b	66
100134	1092739	I'll take up my problem with weak Scott H.	I'll take up my problem with weak Scott H. 	51976135	1473276620386	1473276620482	l	76
100134	1092739	I'll take up my problem with weak Scott H.	I'll take up my problem with weak Scott H. 	51976139	1473276620520	1473276620636	e	69
100134	1092739	I'll take up my problem with weak Scott H.	I'll take up my problem with weak Scott H. 	51976153	1473276620584	1473276620712	m	77
100134	1092739	I'll take up my problem with weak Scott H.	I'll take up my problem with weak Scott H. 	51976157	1473276620682	1473276620789	 	32
100134	1092739	I'll take up my problem with weak Scott H.	I'll take up my problem with weak Scott H. 	51976160	1473276620790	1473276620928	w	87
100134	1092739	I'll take up my problem with weak Scott H.	I'll take up my problem with weak Scott H. 	51976164	1473276620919	1473276621040	i	73
100134	1092739	I'll take up my problem with weak Scott H.	I'll take up my problem with weak Scott H. 	51976168	1473276621047	1473276621195	t	84
100134	1092739	I'll take up my problem with weak Scott H.	I'll take up my problem with weak Scott H. 	51976198	1473276621135	1473276621257	h	72
100134	1092739	I'll take up my problem with weak Scott H.	I'll take up my problem with weak Scott H. 	51976201	1473276621214	1473276621299	 	32
100134	1092739	I'll take up my problem with weak Scott H.	I'll take up my problem with weak Scott H. 	51976204	1473276621521	1473276621821	w	87
100134	1092739	I'll take up my problem with weak Scott H.	I'll take up my problem with weak Scott H. 	51976207	1473276621992	1473276622143	e	69
100134	1092739	I'll take up my problem with weak Scott H.	I'll take up my problem with weak Scott H. 	51976210	1473276622080	1473276622233	a	65
100134	1092739	I'll take up my problem with weak Scott H.	I'll take up my problem with weak Scott H. 	51976253	1473276622196	1473276622330	k	75
100134	1092739	I'll take up my problem with weak Scott H.	I'll take up my problem with weak Scott H. 	51976258	1473276622307	1473276622415	 	32
100134	1092739	I'll take up my problem with weak Scott H.	I'll take up my problem with weak Scott H. 	51976263	1473276622416	1473276622580	CAPS_LOCK	20
100134	1092739	I'll take up my problem with weak Scott H.	I'll take up my problem with weak Scott H. 	51976269	1473276622521	1473276622671	S	83
100134	1092739	I'll take up my problem with weak Scott H.	I'll take up my problem with weak Scott H. 	51976275	1473276622628	1473276622760	CAPS_LOCK	20
100134	1092739	I'll take up my problem with weak Scott H.	I'll take up my problem with weak Scott H. 	51976277	1473276622754	1473276622912	c	67
100134	1092739	I'll take up my problem with weak Scott H.	I'll take up my problem with weak Scott H. 	51976281	1473276622935	1473276623020	o	79
100134	1092739	I'll take up my problem with weak Scott H.	I'll take up my problem with weak Scott H. 	51976283	1473276623100	1473276623186	o	79
100134	1092739	I'll take up my problem with weak Scott H.	I'll take up my problem with weak Scott H. 	51976376	1473276623199	1473276623353	t	84
100134	1092739	I'll take up my problem with weak Scott H.	I'll take up my problem with weak Scott H. 	51976378	1473276623548	1473276623630	BKSP	8
100134	1092739	I'll take up my problem with weak Scott H.	I'll take up my problem with weak Scott H. 	51976381	1473276623691	1473276623791	BKSP	8
100134	1092739	I'll take up my problem with weak Scott H.	I'll take up my problem with weak Scott H. 	51976383	1473276623792	1473276623897	t	84
100134	1092739	I'll take up my problem with weak Scott H.	I'll take up my problem with weak Scott H. 	51976385	1473276623945	1473276624088	t	84
100134	1092739	I'll take up my problem with weak Scott H.	I'll take up my problem with weak Scott H. 	51976387	1473276624167	1473276624279	 	32
100134	1092739	I'll take up my problem with weak Scott H.	I'll take up my problem with weak Scott H. 	51976389	1473276624269	1473276624431	CAPS_LOCK	20
100134	1092739	I'll take up my problem with weak Scott H.	I'll take up my problem with weak Scott H. 	51976392	1473276624523	1473276624676	H	72
100134	1092739	I'll take up my problem with weak Scott H.	I'll take up my problem with weak Scott H. 	51976404	1473276624669	1473276624760	.	190
100134	1092739	I'll take up my problem with weak Scott H.	I'll take up my problem with weak Scott H. 	51976411	1473276624789	1473276624921	CAPS_LOCK	20
100134	1092739	I'll take up my problem with weak Scott H.	I'll take up my problem with weak Scott H. 	51976414	1473276625035	1473276625129	 	32
100134	1092760	I am now officially a Blackberry addict.	I am now officaly a Blackberry addict. 	51976686	1473276630728	1473276630826	CAPS_LOCK	20
100134	1092760	I am now officially a Blackberry addict.	I am now officaly a Blackberry addict. 	51976688	1473276630877	1473276630966	I	73
100134	1092760	I am now officially a Blackberry addict.	I am now officaly a Blackberry addict. 	51976691	1473276630921	1473276631049	CAPS_LOCK	20
100134	1092760	I am now officially a Blackberry addict.	I am now officaly a Blackberry addict. 	51976695	1473276631094	1473276631178	 	32
100134	1092760	I am now officially a Blackberry addict.	I am now officaly a Blackberry addict. 	51976700	1473276631274	1473276631415	a	65
100134	1092760	I am now officially a Blackberry addict.	I am now officaly a Blackberry addict. 	51976704	1473276631326	1473276631456	m	77
100134	1092760	I am now officially a Blackberry addict.	I am now officaly a Blackberry addict. 	51976740	1473276631421	1473276631516	 	32
100134	1092760	I am now officially a Blackberry addict.	I am now officaly a Blackberry addict. 	51976745	1473276631561	1473276631672	n	78
100134	1092760	I am now officially a Blackberry addict.	I am now officaly a Blackberry addict. 	51976752	1473276631617	1473276631770	o	79
100134	1092760	I am now officially a Blackberry addict.	I am now officaly a Blackberry addict. 	51976756	1473276631774	1473276631893	w	87
100134	1092760	I am now officially a Blackberry addict.	I am now officaly a Blackberry addict. 	51976758	1473276631865	1473276631956	 	32
100134	1092760	I am now officially a Blackberry addict.	I am now officaly a Blackberry addict. 	51976760	1473276632022	1473276632127	o	79
100134	1092760	I am now officially a Blackberry addict.	I am now officaly a Blackberry addict. 	51976784	1473276632151	1473276632309	f	70
100134	1092760	I am now officially a Blackberry addict.	I am now officaly a Blackberry addict. 	51976787	1473276632368	1473276632461	f	70
100134	1092760	I am now officially a Blackberry addict.	I am now officaly a Blackberry addict. 	51976792	1473276632521	1473276632632	i	73
100134	1092760	I am now officially a Blackberry addict.	I am now officaly a Blackberry addict. 	51976795	1473276632605	1473276632737	c	67
100134	1092760	I am now officially a Blackberry addict.	I am now officaly a Blackberry addict. 	51976864	1473276632698	1473276632848	a	65
100134	1092760	I am now officially a Blackberry addict.	I am now officaly a Blackberry addict. 	51976868	1473276632898	1473276633011	l	76
100134	1092760	I am now officially a Blackberry addict.	I am now officaly a Blackberry addict. 	51976872	1473276633087	1473276633229	y	89
100134	1092760	I am now officially a Blackberry addict.	I am now officaly a Blackberry addict. 	51976874	1473276633202	1473276633293	 	32
100134	1092760	I am now officially a Blackberry addict.	I am now officaly a Blackberry addict. 	51976877	1473276633391	1473276633587	a	65
100134	1092760	I am now officially a Blackberry addict.	I am now officaly a Blackberry addict. 	51976880	1473276633706	1473276633781	BKSP	8
100134	1092760	I am now officially a Blackberry addict.	I am now officaly a Blackberry addict. 	51976882	1473276633986	1473276634094	a	65
100134	1092760	I am now officially a Blackberry addict.	I am now officaly a Blackberry addict. 	51976904	1473276634224	1473276634330	 	32
100134	1092760	I am now officially a Blackberry addict.	I am now officaly a Blackberry addict. 	51976906	1473276634360	1473276634515	CAPS_LOCK	20
100134	1092760	I am now officially a Blackberry addict.	I am now officaly a Blackberry addict. 	51976908	1473276634468	1473276634613	B	66
100134	1092760	I am now officially a Blackberry addict.	I am now officaly a Blackberry addict. 	51976910	1473276634577	1473276634733	CAPS_LOCK	20
100134	1092760	I am now officially a Blackberry addict.	I am now officaly a Blackberry addict. 	51976912	1473276634858	1473276634956	l	76
100134	1092760	I am now officially a Blackberry addict.	I am now officaly a Blackberry addict. 	51976914	1473276634941	1473276635124	a	65
100134	1092760	I am now officially a Blackberry addict.	I am now officaly a Blackberry addict. 	51976941	1473276635071	1473276635230	c	67
100134	1092760	I am now officially a Blackberry addict.	I am now officaly a Blackberry addict. 	51976943	1473276635216	1473276635323	k	75
100134	1092760	I am now officially a Blackberry addict.	I am now officaly a Blackberry addict. 	51976945	1473276635472	1473276635588	b	66
100134	1092760	I am now officially a Blackberry addict.	I am now officaly a Blackberry addict. 	51976946	1473276635581	1473276635764	e	69
100134	1092760	I am now officially a Blackberry addict.	I am now officaly a Blackberry addict. 	51976947	1473276635725	1473276635841	r	82
100134	1092760	I am now officially a Blackberry addict.	I am now officaly a Blackberry addict. 	51976948	1473276635885	1473276636027	r	82
100134	1092760	I am now officially a Blackberry addict.	I am now officaly a Blackberry addict. 	51976953	1473276636001	1473276636136	y	89
100134	1092760	I am now officially a Blackberry addict.	I am now officaly a Blackberry addict. 	51976955	1473276636084	1473276636205	 	32
100134	1092760	I am now officially a Blackberry addict.	I am now officaly a Blackberry addict. 	51976959	1473276636245	1473276636391	a	65
100134	1092760	I am now officially a Blackberry addict.	I am now officaly a Blackberry addict. 	51976963	1473276636342	1473276636432	d	68
100134	1092760	I am now officially a Blackberry addict.	I am now officaly a Blackberry addict. 	51976966	1473276636485	1473276636593	d	68
100134	1092760	I am now officially a Blackberry addict.	I am now officaly a Blackberry addict. 	51976968	1473276636703	1473276636798	c	73
100134	1092760	I am now officially a Blackberry addict.	I am now officaly a Blackberry addict. 	51976998	1473276637069	1473276637208	t	84
100134	1092760	I am now officially a Blackberry addict.	I am now officaly a Blackberry addict. 	51977000	1473276637245	1473276637346	.	190
100134	1092777	I won't be home until 6.	I won't be home until 6.	51977130	1473276637447	1473276640410	 	32
100134	1092777	I won't be home until 6.	I won't be home until 6.	51977121	1473276639853	1473276640093	CAPS_LOCK	20
100134	1092777	I won't be home until 6.	I won't be home until 6.	51977125	1473276640078	1473276640212	I	73
100134	1092777	I won't be home until 6.	I won't be home until 6.	51977127	1473276640171	1473276640319	CAPS_LOCK	20
100134	1092777	I won't be home until 6.	I won't be home until 6.	51977134	1473276640449	1473276640586	w	87
100134	1092777	I won't be home until 6.	I won't be home until 6.	51977137	1473276640578	1473276640702	o	79
100134	1092777	I won't be home until 6.	I won't be home until 6.	51977141	1473276640643	1473276640753	n	78
100134	1092777	I won't be home until 6.	I won't be home until 6.	51977143	1473276640838	1473276640956	'	222
100134	1092777	I won't be home until 6.	I won't be home until 6.	51977181	1473276641094	1473276641256	t	84
100134	1092777	I won't be home until 6.	I won't be home until 6.	51977184	1473276641220	1473276641331	 	32
100134	1092777	I won't be home until 6.	I won't be home until 6.	51977189	1473276641488	1473276641561	b	66
100134	1092777	I won't be home until 6.	I won't be home until 6.	51977193	1473276641565	1473276641697	e	69
100134	1092777	I won't be home until 6.	I won't be home until 6.	51977197	1473276641837	1473276641985	h	72
100134	1092777	I won't be home until 6.	I won't be home until 6.	51977218	1473276642093	1473276642178	BKSP	8
100134	1092777	I won't be home until 6.	I won't be home until 6.	51977222	1473276642219	1473276642330	 	32
100134	1092777	I won't be home until 6.	I won't be home until 6.	51977229	1473276642333	1473276642441	h	72
100134	1092777	I won't be home until 6.	I won't be home until 6.	51977235	1473276642401	1473276642576	o	79
100134	1092777	I won't be home until 6.	I won't be home until 6.	51977240	1473276642473	1473276642625	m	77
100134	1092777	I won't be home until 6.	I won't be home until 6.	51977246	1473276642588	1473276642723	e	69
100134	1092777	I won't be home until 6.	I won't be home until 6.	51977247	1473276642672	1473276642790	 	32
100134	1092777	I won't be home until 6.	I won't be home until 6.	51977248	1473276642872	1473276643006	u	85
100134	1092777	I won't be home until 6.	I won't be home until 6.	51977249	1473276642950	1473276643046	n	78
100134	1092777	I won't be home until 6.	I won't be home until 6.	51977250	1473276643085	1473276643259	t	84
100134	1092777	I won't be home until 6.	I won't be home until 6.	51977317	1473276643196	1473276643343	i	73
100134	1092777	I won't be home until 6.	I won't be home until 6.	51977319	1473276643451	1473276643641	l	76
100134	1092777	I won't be home until 6.	I won't be home until 6.	51977323	1473276643608	1473276643756	 	32
100134	1092777	I won't be home until 6.	I won't be home until 6.	51977326	1473276643819	1473276643961	9	56
100134	1092777	I won't be home until 6.	I won't be home until 6.	51977327	1473276644211	1473276644289	BKSP	8
100134	1092777	I won't be home until 6.	I won't be home until 6.	51977329	1473276644462	1473276644615	BKSP	8
100134	1092777	I won't be home until 6.	I won't be home until 6.	51977332	1473276644705	1473276644850	7	55
100134	1092777	I won't be home until 6.	I won't be home until 6.	51977386	1473276645023	1473276645131	BKSP	8
100134	1092777	I won't be home until 6.	I won't be home until 6.	51977389	1473276645345	1473276645533	a	54
100134	1092777	I won't be home until 6.	I won't be home until 6.	51977394	1473276645959	1473276646041	BKSP	8
100134	1092777	I won't be home until 6.	I won't be home until 6.	51977400	1473276646118	1473276646192	.	190
100134	1092784	It would be great if I could have the files by the 18th or 19th.	It would be great if I could have the files by the 18th or 19th.	51977561	1473276648535	1473276648660	CAPS_LOCK	20
100134	1092784	It would be great if I could have the files by the 18th or 19th.	It would be great if I could have the files by the 18th or 19th.	51977563	1473276648657	1473276648764	O	79
100134	1092784	It would be great if I could have the files by the 18th or 19th.	It would be great if I could have the files by the 18th or 19th.	51977566	1473276648728	1473276648860	CAPS_LOCK	20
100134	1092784	It would be great if I could have the files by the 18th or 19th.	It would be great if I could have the files by the 18th or 19th.	51977571	1473276648956	1473276649111	t	84
100134	1092784	It would be great if I could have the files by the 18th or 19th.	It would be great if I could have the files by the 18th or 19th.	51977574	1473276649118	1473276649195	BKSP	8
100134	1092784	It would be great if I could have the files by the 18th or 19th.	It would be great if I could have the files by the 18th or 19th.	51977576	1473276649278	1473276649384	BKSP	8
100134	1092784	It would be great if I could have the files by the 18th or 19th.	It would be great if I could have the files by the 18th or 19th.	51977579	1473276649405	1473276649545	CAPS_LOCK	20
100134	1092784	It would be great if I could have the files by the 18th or 19th.	It would be great if I could have the files by the 18th or 19th.	51977582	1473276649498	1473276649607	I	73
100134	1092784	It would be great if I could have the files by the 18th or 19th.	It would be great if I could have the files by the 18th or 19th.	51977586	1473276649599	1473276649731	CAPS_LOCK	20
100134	1092784	It would be great if I could have the files by the 18th or 19th.	It would be great if I could have the files by the 18th or 19th.	51977590	1473276649699	1473276649834	t	84
100134	1092784	It would be great if I could have the files by the 18th or 19th.	It would be great if I could have the files by the 18th or 19th.	51977600	1473276649832	1473276649907	 	32
100134	1092784	It would be great if I could have the files by the 18th or 19th.	It would be great if I could have the files by the 18th or 19th.	51977602	1473276649967	1473276650126	w	87
100134	1092784	It would be great if I could have the files by the 18th or 19th.	It would be great if I could have the files by the 18th or 19th.	51977605	1473276650052	1473276650169	o	79
100134	1092784	It would be great if I could have the files by the 18th or 19th.	It would be great if I could have the files by the 18th or 19th.	51977609	1473276650116	1473276650188	u	85
100134	1092784	It would be great if I could have the files by the 18th or 19th.	It would be great if I could have the files by the 18th or 19th.	51977613	1473276650305	1473276650411	l	76
100134	1092784	It would be great if I could have the files by the 18th or 19th.	It would be great if I could have the files by the 18th or 19th.	51977616	1473276650457	1473276650614	d	68
100134	1092784	It would be great if I could have the files by the 18th or 19th.	It would be great if I could have the files by the 18th or 19th.	51977639	1473276650734	1473276650832	 	32
100134	1092784	It would be great if I could have the files by the 18th or 19th.	It would be great if I could have the files by the 18th or 19th.	51977642	1473276650876	1473276650989	b	66
100134	1092784	It would be great if I could have the files by the 18th or 19th.	It would be great if I could have the files by the 18th or 19th.	51977646	1473276650982	1473276651113	e	69
100134	1092784	It would be great if I could have the files by the 18th or 19th.	It would be great if I could have the files by the 18th or 19th.	51977650	1473276651084	1473276651176	 	32
100134	1092784	It would be great if I could have the files by the 18th or 19th.	It would be great if I could have the files by the 18th or 19th.	51977653	1473276651180	1473276651309	g	71
100134	1092784	It would be great if I could have the files by the 18th or 19th.	It would be great if I could have the files by the 18th or 19th.	51977666	1473276651400	1473276651533	r	82
100134	1092784	It would be great if I could have the files by the 18th or 19th.	It would be great if I could have the files by the 18th or 19th.	51977679	1473276651479	1473276651652	e	69
100134	1092784	It would be great if I could have the files by the 18th or 19th.	It would be great if I could have the files by the 18th or 19th.	51977671	1473276651518	1473276651651	a	65
100134	1092784	It would be great if I could have the files by the 18th or 19th.	It would be great if I could have the files by the 18th or 19th.	51977685	1473276651627	1473276651749	t	84
100134	1092784	It would be great if I could have the files by the 18th or 19th.	It would be great if I could have the files by the 18th or 19th.	51977709	1473276651726	1473276651802	 	32
100134	1092784	It would be great if I could have the files by the 18th or 19th.	It would be great if I could have the files by the 18th or 19th.	51977711	1473276651858	1473276651987	i	73
100134	1092784	It would be great if I could have the files by the 18th or 19th.	It would be great if I could have the files by the 18th or 19th.	51977714	1473276651957	1473276652098	f	70
100134	1092784	It would be great if I could have the files by the 18th or 19th.	It would be great if I could have the files by the 18th or 19th.	51977716	1473276652089	1473276652161	 	32
100134	1092784	It would be great if I could have the files by the 18th or 19th.	It would be great if I could have the files by the 18th or 19th.	51977717	1473276652232	1473276652366	i	73
100134	1092784	It would be great if I could have the files by the 18th or 19th.	It would be great if I could have the files by the 18th or 19th.	51977718	1473276652377	1473276652499	 	32
100134	1092784	It would be great if I could have the files by the 18th or 19th.	It would be great if I could have the files by the 18th or 19th.	51977805	1473276652841	1473276652922	BKSP	8
100134	1092784	It would be great if I could have the files by the 18th or 19th.	It would be great if I could have the files by the 18th or 19th.	51977808	1473276653000	1473276653073	BKSP	8
100134	1092784	It would be great if I could have the files by the 18th or 19th.	It would be great if I could have the files by the 18th or 19th.	51977811	1473276653159	1473276653238	BKSP	8
100134	1092784	It would be great if I could have the files by the 18th or 19th.	It would be great if I could have the files by the 18th or 19th.	51977816	1473276653230	1473276653351	CAPS_LOCK	20
100134	1092784	It would be great if I could have the files by the 18th or 19th.	It would be great if I could have the files by the 18th or 19th.	51977820	1473276653339	1473276653465	I	73
100134	1092784	It would be great if I could have the files by the 18th or 19th.	It would be great if I could have the files by the 18th or 19th.	51977822	1473276653442	1473276653500	CAPS_LOCK	20
100134	1092784	It would be great if I could have the files by the 18th or 19th.	It would be great if I could have the files by the 18th or 19th.	51977824	1473276653584	1473276653646	BKSP	8
100134	1092784	It would be great if I could have the files by the 18th or 19th.	It would be great if I could have the files by the 18th or 19th.	51977827	1473276653825	1473276653903	 	32
100134	1092784	It would be great if I could have the files by the 18th or 19th.	It would be great if I could have the files by the 18th or 19th.	51977828	1473276654032	1473276654162	i	73
100134	1092784	It would be great if I could have the files by the 18th or 19th.	It would be great if I could have the files by the 18th or 19th.	51977830	1473276654164	1473276654307	CAPS_LOCK	20
100134	1092784	It would be great if I could have the files by the 18th or 19th.	It would be great if I could have the files by the 18th or 19th.	51977832	1473276654268	1473276654389	C	67
100134	1092784	It would be great if I could have the files by the 18th or 19th.	It would be great if I could have the files by the 18th or 19th.	51977834	1473276654410	1473276654542	O	79
100134	1092784	It would be great if I could have the files by the 18th or 19th.	It would be great if I could have the files by the 18th or 19th.	51977849	1473276654667	1473276654750	BKSP	8
100134	1092784	It would be great if I could have the files by the 18th or 19th.	It would be great if I could have the files by the 18th or 19th.	51977851	1473276654828	1473276654889	BKSP	8
100134	1092784	It would be great if I could have the files by the 18th or 19th.	It would be great if I could have the files by the 18th or 19th.	51977853	1473276654971	1473276655058	BKSP	8
100134	1092784	It would be great if I could have the files by the 18th or 19th.	It would be great if I could have the files by the 18th or 19th.	51977856	1473276655161	1473276655279	I	73
100134	1092784	It would be great if I could have the files by the 18th or 19th.	It would be great if I could have the files by the 18th or 19th.	51977859	1473276655284	1473276655364	 	32
100134	1092784	It would be great if I could have the files by the 18th or 19th.	It would be great if I could have the files by the 18th or 19th.	51977862	1473276655473	1473276655596	CAPS_LOCK	20
100134	1092784	It would be great if I could have the files by the 18th or 19th.	It would be great if I could have the files by the 18th or 19th.	51977863	1473276655545	1473276655666	c	67
100134	1092784	It would be great if I could have the files by the 18th or 19th.	It would be great if I could have the files by the 18th or 19th.	51977864	1473276655659	1473276655794	o	79
100134	1092784	It would be great if I could have the files by the 18th or 19th.	It would be great if I could have the files by the 18th or 19th.	51977959	1473276655784	1473276655887	u	85
100134	1092784	It would be great if I could have the files by the 18th or 19th.	It would be great if I could have the files by the 18th or 19th.	51977962	1473276655999	1473276656129	;	186
100134	1092784	It would be great if I could have the files by the 18th or 19th.	It would be great if I could have the files by the 18th or 19th.	51977966	1473276656319	1473276656412	BKSP	8
100134	1092784	It would be great if I could have the files by the 18th or 19th.	It would be great if I could have the files by the 18th or 19th.	51977968	1473276656488	1473276656596	l	76
100134	1092784	It would be great if I could have the files by the 18th or 19th.	It would be great if I could have the files by the 18th or 19th.	51977971	1473276656694	1473276656735	 	32
100134	1092784	It would be great if I could have the files by the 18th or 19th.	It would be great if I could have the files by the 18th or 19th.	51977974	1473276656823	1473276656970	d	68
100134	1092784	It would be great if I could have the files by the 18th or 19th.	It would be great if I could have the files by the 18th or 19th.	51977976	1473276656996	1473276657078	BKSP	8
100134	1092784	It would be great if I could have the files by the 18th or 19th.	It would be great if I could have the files by the 18th or 19th.	51977979	1473276657163	1473276657261	BKSP	8
100134	1092784	It would be great if I could have the files by the 18th or 19th.	It would be great if I could have the files by the 18th or 19th.	51977982	1473276657344	1473276657399	BKSP	8
100134	1092784	It would be great if I could have the files by the 18th or 19th.	It would be great if I could have the files by the 18th or 19th.	51977985	1473276657822	1473276657926	l	76
100134	1092784	It would be great if I could have the files by the 18th or 19th.	It would be great if I could have the files by the 18th or 19th.	51977984	1473276657974	1473276658124	d	68
100134	1092784	It would be great if I could have the files by the 18th or 19th.	It would be great if I could have the files by the 18th or 19th.	51977987	1473276658084	1473276658154	 	32
100134	1092784	It would be great if I could have the files by the 18th or 19th.	It would be great if I could have the files by the 18th or 19th.	51977989	1473276658239	1473276658333	h	72
100134	1092784	It would be great if I could have the files by the 18th or 19th.	It would be great if I could have the files by the 18th or 19th.	51977991	1473276658268	1473276658421	a	65
100134	1092784	It would be great if I could have the files by the 18th or 19th.	It would be great if I could have the files by the 18th or 19th.	51978000	1473276658381	1473276658521	v	86
100134	1092784	It would be great if I could have the files by the 18th or 19th.	It would be great if I could have the files by the 18th or 19th.	51978001	1473276658476	1473276658621	e	69
100134	1092784	It would be great if I could have the files by the 18th or 19th.	It would be great if I could have the files by the 18th or 19th.	51978002	1473276658586	1473276658702	 	32
100134	1092784	It would be great if I could have the files by the 18th or 19th.	It would be great if I could have the files by the 18th or 19th.	51978003	1473276658694	1473276658813	t	84
100134	1092784	It would be great if I could have the files by the 18th or 19th.	It would be great if I could have the files by the 18th or 19th.	51978005	1473276658794	1473276658888	h	72
100134	1092784	It would be great if I could have the files by the 18th or 19th.	It would be great if I could have the files by the 18th or 19th.	51978024	1473276658851	1473276658992	e	69
100134	1092784	It would be great if I could have the files by the 18th or 19th.	It would be great if I could have the files by the 18th or 19th.	51978027	1473276658978	1473276659081	 	32
100134	1092784	It would be great if I could have the files by the 18th or 19th.	It would be great if I could have the files by the 18th or 19th.	51978030	1473276659095	1473276659239	f	70
100134	1092784	It would be great if I could have the files by the 18th or 19th.	It would be great if I could have the files by the 18th or 19th.	51978034	1473276659180	1473276659269	i	73
100134	1092784	It would be great if I could have the files by the 18th or 19th.	It would be great if I could have the files by the 18th or 19th.	51978040	1473276659357	1473276659469	l	76
100134	1092784	It would be great if I could have the files by the 18th or 19th.	It would be great if I could have the files by the 18th or 19th.	51978049	1473276659401	1473276659595	e	69
100134	1092784	It would be great if I could have the files by the 18th or 19th.	It would be great if I could have the files by the 18th or 19th.	51978048	1473276659481	1473276659585	s	83
100134	1092784	It would be great if I could have the files by the 18th or 19th.	It would be great if I could have the files by the 18th or 19th.	51978051	1473276659551	1473276659672	 	32
100134	1092784	It would be great if I could have the files by the 18th or 19th.	It would be great if I could have the files by the 18th or 19th.	51978053	1473276659707	1473276659888	b	66
100134	1092784	It would be great if I could have the files by the 18th or 19th.	It would be great if I could have the files by the 18th or 19th.	51978055	1473276659816	1473276659996	y	89
100134	1092784	It would be great if I could have the files by the 18th or 19th.	It would be great if I could have the files by the 18th or 19th.	51978062	1473276659920	1473276660053	 	32
100134	1092784	It would be great if I could have the files by the 18th or 19th.	It would be great if I could have the files by the 18th or 19th.	51978064	1473276660049	1473276660182	t	84
100134	1092784	It would be great if I could have the files by the 18th or 19th.	It would be great if I could have the files by the 18th or 19th.	51978065	1473276660145	1473276660279	g	72
100134	1092784	It would be great if I could have the files by the 18th or 19th.	It would be great if I could have the files by the 18th or 19th.	51978066	1473276660238	1473276660364	e	69
100134	1092784	It would be great if I could have the files by the 18th or 19th.	It would be great if I could have the files by the 18th or 19th.	51978068	1473276660369	1473276660465	 	32
100134	1092784	It would be great if I could have the files by the 18th or 19th.	It would be great if I could have the files by the 18th or 19th.	51978139	1473276660669	1473276660748	BKSP	8
100134	1092784	It would be great if I could have the files by the 18th or 19th.	It would be great if I could have the files by the 18th or 19th.	51978144	1473276660803	1473276660862	BKSP	8
100134	1092784	It would be great if I could have the files by the 18th or 19th.	It would be great if I could have the files by the 18th or 19th.	51978146	1473276660958	1473276661023	BKSP	8
100134	1092784	It would be great if I could have the files by the 18th or 19th.	It would be great if I could have the files by the 18th or 19th.	51978147	1473276661093	1473276661189	e	69
100134	1092784	It would be great if I could have the files by the 18th or 19th.	It would be great if I could have the files by the 18th or 19th.	51978149	1473276661200	1473276661329	 	32
100134	1092784	It would be great if I could have the files by the 18th or 19th.	It would be great if I could have the files by the 18th or 19th.	51978154	1473276661266	1473276661487	1	49
100134	1092784	It would be great if I could have the files by the 18th or 19th.	It would be great if I could have the files by the 18th or 19th.	51978161	1473276661472	1473276661636	7	55
100134	1092784	It would be great if I could have the files by the 18th or 19th.	It would be great if I could have the files by the 18th or 19th.	51978167	1473276661638	1473276661800	 	32
100134	1092784	It would be great if I could have the files by the 18th or 19th.	It would be great if I could have the files by the 18th or 19th.	51978233	1473276661931	1473276662018	BKSP	8
100134	1092784	It would be great if I could have the files by the 18th or 19th.	It would be great if I could have the files by the 18th or 19th.	51978235	1473276662081	1473276662179	BKSP	8
100134	1092784	It would be great if I could have the files by the 18th or 19th.	It would be great if I could have the files by the 18th or 19th.	51978238	1473276662232	1473276662400	6	54
100134	1092784	It would be great if I could have the files by the 18th or 19th.	It would be great if I could have the files by the 18th or 19th.	51978240	1473276662423	1473276662560	 	32
100134	1092784	It would be great if I could have the files by the 18th or 19th.	It would be great if I could have the files by the 18th or 19th.	51978242	1473276662675	1473276662771	BKSP	8
100134	1092784	It would be great if I could have the files by the 18th or 19th.	It would be great if I could have the files by the 18th or 19th.	51978244	1473276662846	1473276662943	BKSP	8
100134	1092784	It would be great if I could have the files by the 18th or 19th.	It would be great if I could have the files by the 18th or 19th.	51978245	1473276663128	1473276663215	8	56
100134	1092784	It would be great if I could have the files by the 18th or 19th.	It would be great if I could have the files by the 18th or 19th.	51978247	1473276663243	1473276663355	 	32
100134	1092784	It would be great if I could have the files by the 18th or 19th.	It would be great if I could have the files by the 18th or 19th.	51978249	1473276663393	1473276663532	t	84
100134	1092784	It would be great if I could have the files by the 18th or 19th.	It would be great if I could have the files by the 18th or 19th.	51978296	1473276663623	1473276663707	BKSP	8
100134	1092784	It would be great if I could have the files by the 18th or 19th.	It would be great if I could have the files by the 18th or 19th.	51978301	1473276663959	1473276664031	BKSP	8
100134	1092784	It would be great if I could have the files by the 18th or 19th.	It would be great if I could have the files by the 18th or 19th.	51978308	1473276664159	1473276664276	t	84
100134	1092784	It would be great if I could have the files by the 18th or 19th.	It would be great if I could have the files by the 18th or 19th.	51978312	1473276664643	1473276664717	BKSP	8
100134	1092784	It would be great if I could have the files by the 18th or 19th.	It would be great if I could have the files by the 18th or 19th.	51978318	1473276664878	1473276665006	t	84
100134	1092784	It would be great if I could have the files by the 18th or 19th.	It would be great if I could have the files by the 18th or 19th.	51978322	1473276664959	1473276665080	h	72
100134	1092784	It would be great if I could have the files by the 18th or 19th.	It would be great if I could have the files by the 18th or 19th.	51978327	1473276665060	1473276665143	 	32
100134	1092784	It would be great if I could have the files by the 18th or 19th.	It would be great if I could have the files by the 18th or 19th.	51978330	1473276665184	1473276665317	o	79
100134	1092784	It would be great if I could have the files by the 18th or 19th.	It would be great if I could have the files by the 18th or 19th.	51978381	1473276665311	1473276665462	r	82
100134	1092784	It would be great if I could have the files by the 18th or 19th.	It would be great if I could have the files by the 18th or 19th.	51978385	1473276665411	1473276665529	 	32
100134	1092784	It would be great if I could have the files by the 18th or 19th.	It would be great if I could have the files by the 18th or 19th.	51978388	1473276665666	1473276665891	1	49
100134	1092784	It would be great if I could have the files by the 18th or 19th.	It would be great if I could have the files by the 18th or 19th.	51978392	1473276665906	1473276666017	9	57
100134	1092784	It would be great if I could have the files by the 18th or 19th.	It would be great if I could have the files by the 18th or 19th.	51978395	1473276666109	1473276666256	t	84
100134	1092784	It would be great if I could have the files by the 18th or 19th.	It would be great if I could have the files by the 18th or 19th.	51978519	1473276666171	1473276666322	h	72
100134	1092784	It would be great if I could have the files by the 18th or 19th.	It would be great if I could have the files by the 18th or 19th.	51978521	1473276666288	1473276666431	 	32
100134	1092784	It would be great if I could have the files by the 18th or 19th.	It would be great if I could have the files by the 18th or 19th.	51978524	1473276666597	1473276666705	.	190
100134	1092784	It would be great if I could have the files by the 18th or 19th.	It would be great if I could have the files by the 18th or 19th.	51978526	1473276667237	1473276667328	BKSP	8
100134	1092784	It would be great if I could have the files by the 18th or 19th.	It would be great if I could have the files by the 18th or 19th.	51978530	1473276667397	1473276667481	\	8
100134	1092784	It would be great if I could have the files by the 18th or 19th.	It would be great if I could have the files by the 18th or 19th.	51978532	1473276667559	1473276667675	.	190
100134	1092784	It would be great if I could have the files by the 18th or 19th.	It would be great if I could have the files by the 18th or 19th.	51978535	1473276667892	1473276667979	BKSP	8
100134	1092784	It would be great if I could have the files by the 18th or 19th.	It would be great if I could have the files by the 18th or 19th.	51978537	1473276668032	1473276668119	BKSP	8
100134	1092784	It would be great if I could have the files by the 18th or 19th.	It would be great if I could have the files by the 18th or 19th.	51978539	1473276668187	1473276668281	.	190
