PARTICIPANT_ID	TEST_SECTION_ID	SENTENCE	USER_INPUT	KEYSTROKE_ID	PRESS_TIME	RELEASE_TIME	LETTER	KEYCODE
100330	1094585	Did you ever hear anything?.	Did you ever hear anything?.	52062621	1473278142461	1473278142877	SHIFT	16
100330	1094585	Did you ever hear anything?.	Did you ever hear anything?.	52062625	1473278142765	1473278142908	D	68
100330	1094585	Did you ever hear anything?.	Did you ever hear anything?.	52062630	1473278143181	1473278143324	i	73
100330	1094585	Did you ever hear anything?.	Did you ever hear anything?.	52062634	1473278143420	1473278143580	d	68
100330	1094585	Did you ever hear anything?.	Did you ever hear anything?.	52062641	1473278143613	1473278143804	 	32
100330	1094585	Did you ever hear anything?.	Did you ever hear anything?.	52062646	1473278144908	1473278145036	y	89
100330	1094585	Did you ever hear anything?.	Did you ever hear anything?.	52062725	1473278145212	1473278145340	o	79
100330	1094585	Did you ever hear anything?.	Did you ever hear anything?.	52062729	1473278145548	1473278145660	u	85
100330	1094585	Did you ever hear anything?.	Did you ever hear anything?.	52062732	1473278145676	1473278145853	 	32
100330	1094585	Did you ever hear anything?.	Did you ever hear anything?.	52062734	1473278146412	1473278146588	e	69
100330	1094585	Did you ever hear anything?.	Did you ever hear anything?.	52062736	1473278146828	1473278146956	v	86
100330	1094585	Did you ever hear anything?.	Did you ever hear anything?.	52062838	1473278147116	1473278147260	e	69
100330	1094585	Did you ever hear anything?.	Did you ever hear anything?.	52062840	1473278147388	1473278147516	r	82
100330	1094585	Did you ever hear anything?.	Did you ever hear anything?.	52062843	1473278147788	1473278147964	 	32
100330	1094585	Did you ever hear anything?.	Did you ever hear anything?.	52062845	1473278148476	1473278148604	h	72
100330	1094585	Did you ever hear anything?.	Did you ever hear anything?.	52062850	1473278148716	1473278148844	e	69
100330	1094585	Did you ever hear anything?.	Did you ever hear anything?.	52062948	1473278149036	1473278149180	a	65
100330	1094585	Did you ever hear anything?.	Did you ever hear anything?.	52062952	1473278149404	1473278149516	r	82
100330	1094585	Did you ever hear anything?.	Did you ever hear anything?.	52062956	1473278149644	1473278149804	 	32
100330	1094585	Did you ever hear anything?.	Did you ever hear anything?.	52062961	1473278150348	1473278150508	a	65
100330	1094585	Did you ever hear anything?.	Did you ever hear anything?.	52062966	1473278151036	1473278151196	n	78
100330	1094585	Did you ever hear anything?.	Did you ever hear anything?.	52063063	1473278151452	1473278151564	y	89
100330	1094585	Did you ever hear anything?.	Did you ever hear anything?.	52063069	1473278151804	1473278151932	t	84
100330	1094585	Did you ever hear anything?.	Did you ever hear anything?.	52063073	1473278152060	1473278152172	h	72
100330	1094585	Did you ever hear anything?.	Did you ever hear anything?.	52063077	1473278152316	1473278152460	i	73
100330	1094585	Did you ever hear anything?.	Did you ever hear anything?.	52063080	1473278152941	1473278153052	n	78
100330	1094585	Did you ever hear anything?.	Did you ever hear anything?.	52063880	1473278153292	1473278153436	g	71
100330	1094585	Did you ever hear anything?.	Did you ever hear anything?.	52063883	1473278153852	1473278153980	 	32
100330	1094585	Did you ever hear anything?.	Did you ever hear anything?.	52063886	1473278154252	1473278154316	SHIFT	16
100330	1094585	Did you ever hear anything?.	Did you ever hear anything?.	52063891	1473278154284	1473278154332	WIN	91
100330	1094585	Did you ever hear anything?.	Did you ever hear anything?.	52063894	1473278154438	1473278154605	WIN	91
100330	1094585	Did you ever hear anything?.	Did you ever hear anything?.	52063897	1473278161019	1473278161131	BKSP	8
100330	1094585	Did you ever hear anything?.	Did you ever hear anything?.	52063904	1473278162172	1473278164268	SHIFT	16
100330	1094585	Did you ever hear anything?.	Did you ever hear anything?.	52063910	1473278164203	1473278164348	?	191
100330	1094585	Did you ever hear anything?.	Did you ever hear anything?.	52063913	1473278165403	1473278165548	.	190
100330	1094622	I just tracked down Steve.	i just tracked down Steve.	52064159	1473278171436	1473278171692	SHIFT	16
100330	1094622	I just tracked down Steve.	i just tracked down Steve.	52064161	1473278171693	1473278171852	i	73
100330	1094622	I just tracked down Steve.	i just tracked down Steve.	52064165	1473278171932	1473278172108	 	32
100330	1094622	I just tracked down Steve.	i just tracked down Steve.	52064167	1473278172251	1473278172411	j	74
100330	1094622	I just tracked down Steve.	i just tracked down Steve.	52064172	1473278172796	1473278172924	u	85
100330	1094622	I just tracked down Steve.	i just tracked down Steve.	52064177	1473278173180	1473278173372	s	83
100330	1094622	I just tracked down Steve.	i just tracked down Steve.	52064273	1473278173484	1473278173628	t	84
100330	1094622	I just tracked down Steve.	i just tracked down Steve.	52064275	1473278173692	1473278173852	 	32
100330	1094622	I just tracked down Steve.	i just tracked down Steve.	52064277	1473278174668	1473278174780	t	84
100330	1094622	I just tracked down Steve.	i just tracked down Steve.	52064280	1473278174924	1473278175052	r	82
100330	1094622	I just tracked down Steve.	i just tracked down Steve.	52064282	1473278175292	1473278175484	a	65
100330	1094622	I just tracked down Steve.	i just tracked down Steve.	52064413	1473278175723	1473278175899	c	67
100330	1094622	I just tracked down Steve.	i just tracked down Steve.	52064415	1473278176076	1473278176172	j	74
100330	1094622	I just tracked down Steve.	i just tracked down Steve.	52064418	1473278176635	1473278176747	BKSP	8
100330	1094622	I just tracked down Steve.	i just tracked down Steve.	52064420	1473278177179	1473278177372	k	75
100330	1094622	I just tracked down Steve.	i just tracked down Steve.	52064424	1473278177373	1473278177500	e	69
100330	1094622	I just tracked down Steve.	i just tracked down Steve.	52064428	1473278177644	1473278177819	d	68
100330	1094622	I just tracked down Steve.	i just tracked down Steve.	52064581	1473278178124	1473278178315	 	32
100330	1094622	I just tracked down Steve.	i just tracked down Steve.	52064585	1473278179211	1473278179371	d	68
100330	1094622	I just tracked down Steve.	i just tracked down Steve.	52064588	1473278179580	1473278179739	o	79
100330	1094622	I just tracked down Steve.	i just tracked down Steve.	52064590	1473278180571	1473278180731	w	87
100330	1094622	I just tracked down Steve.	i just tracked down Steve.	52064594	1473278180860	1473278181003	n	78
100330	1094622	I just tracked down Steve.	i just tracked down Steve.	52064770	1473278181068	1473278181228	 	32
100330	1094622	I just tracked down Steve.	i just tracked down Steve.	52064772	1473278182988	1473278183483	SHIFT	16
100330	1094622	I just tracked down Steve.	i just tracked down Steve.	52064774	1473278183340	1473278183515	S	83
100330	1094622	I just tracked down Steve.	i just tracked down Steve.	52064778	1473278183867	1473278184012	t	84
100330	1094622	I just tracked down Steve.	i just tracked down Steve.	52064782	1473278184123	1473278184319	e	69
100330	1094622	I just tracked down Steve.	i just tracked down Steve.	52064784	1473278184571	1473278184716	v	86
100330	1094622	I just tracked down Steve.	i just tracked down Steve.	52064864	1473278184779	1473278184939	e	69
100330	1094622	I just tracked down Steve.	i just tracked down Steve.	52064869	1473278186107	1473278186203	.	190
100330	1094643	He beat world number one Greg Norman by six strokes.	He beat world number one Greg Norman by six strokes.	52065141	1473278190348	1473278190605	SHIFT	16
100330	1094643	He beat world number one Greg Norman by six strokes.	He beat world number one Greg Norman by six strokes.	52065143	1473278190571	1473278190779	H	72
100330	1094643	He beat world number one Greg Norman by six strokes.	He beat world number one Greg Norman by six strokes.	52065146	1473278191019	1473278191163	e	69
100330	1094643	He beat world number one Greg Norman by six strokes.	He beat world number one Greg Norman by six strokes.	52065149	1473278191292	1473278191467	 	32
100330	1094643	He beat world number one Greg Norman by six strokes.	He beat world number one Greg Norman by six strokes.	52065153	1473278192571	1473278192763	b	66
100330	1094643	He beat world number one Greg Norman by six strokes.	He beat world number one Greg Norman by six strokes.	52065156	1473278192811	1473278192907	e	69
100330	1094643	He beat world number one Greg Norman by six strokes.	He beat world number one Greg Norman by six strokes.	52065264	1473278193083	1473278193259	a	65
100330	1094643	He beat world number one Greg Norman by six strokes.	He beat world number one Greg Norman by six strokes.	52065266	1473278193419	1473278193595	t	84
100330	1094643	He beat world number one Greg Norman by six strokes.	He beat world number one Greg Norman by six strokes.	52065269	1473278193675	1473278193851	 	32
100330	1094643	He beat world number one Greg Norman by six strokes.	He beat world number one Greg Norman by six strokes.	52065270	1473278194459	1473278194635	w	87
100330	1094643	He beat world number one Greg Norman by six strokes.	He beat world number one Greg Norman by six strokes.	52065271	1473278195019	1473278195163	o	79
100330	1094643	He beat world number one Greg Norman by six strokes.	He beat world number one Greg Norman by six strokes.	52065366	1473278195467	1473278195579	r	82
100330	1094643	He beat world number one Greg Norman by six strokes.	He beat world number one Greg Norman by six strokes.	52065367	1473278196235	1473278196443	l	76
100330	1094643	He beat world number one Greg Norman by six strokes.	He beat world number one Greg Norman by six strokes.	52065368	1473278196539	1473278196683	d	68
100330	1094643	He beat world number one Greg Norman by six strokes.	He beat world number one Greg Norman by six strokes.	52065372	1473278196891	1473278197115	 	32
100330	1094643	He beat world number one Greg Norman by six strokes.	He beat world number one Greg Norman by six strokes.	52065377	1473278197755	1473278197867	n	78
100330	1094643	He beat world number one Greg Norman by six strokes.	He beat world number one Greg Norman by six strokes.	52065452	1473278198203	1473278198315	u	85
100330	1094643	He beat world number one Greg Norman by six strokes.	He beat world number one Greg Norman by six strokes.	52065454	1473278198603	1473278198747	m	77
100330	1094643	He beat world number one Greg Norman by six strokes.	He beat world number one Greg Norman by six strokes.	52065458	1473278199067	1473278199227	b	66
100330	1094643	He beat world number one Greg Norman by six strokes.	He beat world number one Greg Norman by six strokes.	52065462	1473278199499	1473278199659	e	69
100330	1094643	He beat world number one Greg Norman by six strokes.	He beat world number one Greg Norman by six strokes.	52065466	1473278199835	1473278199979	r	82
100330	1094643	He beat world number one Greg Norman by six strokes.	He beat world number one Greg Norman by six strokes.	52065604	1473278200219	1473278200395	 	32
100330	1094643	He beat world number one Greg Norman by six strokes.	He beat world number one Greg Norman by six strokes.	52065605	1473278201003	1473278201131	o	79
100330	1094643	He beat world number one Greg Norman by six strokes.	He beat world number one Greg Norman by six strokes.	52065607	1473278201643	1473278201819	n	78
100330	1094643	He beat world number one Greg Norman by six strokes.	He beat world number one Greg Norman by six strokes.	52065608	1473278201883	1473278202042	e	69
100330	1094643	He beat world number one Greg Norman by six strokes.	He beat world number one Greg Norman by six strokes.	52065609	1473278202203	1473278202411	 	32
100330	1094643	He beat world number one Greg Norman by six strokes.	He beat world number one Greg Norman by six strokes.	52065818	1473278203066	1473278203387	SHIFT	16
100330	1094643	He beat world number one Greg Norman by six strokes.	He beat world number one Greg Norman by six strokes.	52065822	1473278203355	1473278203515	G	71
100330	1094643	He beat world number one Greg Norman by six strokes.	He beat world number one Greg Norman by six strokes.	52065827	1473278203963	1473278204090	r	82
100330	1094643	He beat world number one Greg Norman by six strokes.	He beat world number one Greg Norman by six strokes.	52065831	1473278204267	1473278204411	e	69
100330	1094643	He beat world number one Greg Norman by six strokes.	He beat world number one Greg Norman by six strokes.	52065838	1473278205227	1473278205371	g	71
100330	1094643	He beat world number one Greg Norman by six strokes.	He beat world number one Greg Norman by six strokes.	52065844	1473278205531	1473278205691	 	32
100330	1094643	He beat world number one Greg Norman by six strokes.	He beat world number one Greg Norman by six strokes.	52066170	1473278206683	1473278206811	n	78
100330	1094643	He beat world number one Greg Norman by six strokes.	He beat world number one Greg Norman by six strokes.	52066174	1473278207115	1473278207291	o	79
100330	1094643	He beat world number one Greg Norman by six strokes.	He beat world number one Greg Norman by six strokes.	52066181	1473278208187	1473278208299	BKSP	8
100330	1094643	He beat world number one Greg Norman by six strokes.	He beat world number one Greg Norman by six strokes.	52066189	1473278208394	1473278208506	BKSP	8
100330	1094643	He beat world number one Greg Norman by six strokes.	He beat world number one Greg Norman by six strokes.	52066198	1473278209050	1473278209595	SHIFT	16
100330	1094643	He beat world number one Greg Norman by six strokes.	He beat world number one Greg Norman by six strokes.	52066204	1473278209531	1473278209675	N	78
100330	1094643	He beat world number one Greg Norman by six strokes.	He beat world number one Greg Norman by six strokes.	52066209	1473278209995	1473278210171	o	79
100330	1094643	He beat world number one Greg Norman by six strokes.	He beat world number one Greg Norman by six strokes.	52066213	1473278210539	1473278210667	r	82
100330	1094643	He beat world number one Greg Norman by six strokes.	He beat world number one Greg Norman by six strokes.	52066323	1473278210827	1473278210971	m	77
100330	1094643	He beat world number one Greg Norman by six strokes.	He beat world number one Greg Norman by six strokes.	52066326	1473278211050	1473278211227	a	65
100330	1094643	He beat world number one Greg Norman by six strokes.	He beat world number one Greg Norman by six strokes.	52066329	1473278211339	1473278211514	n	78
100330	1094643	He beat world number one Greg Norman by six strokes.	He beat world number one Greg Norman by six strokes.	52066331	1473278211819	1473278211979	 	32
100330	1094643	He beat world number one Greg Norman by six strokes.	He beat world number one Greg Norman by six strokes.	52066333	1473278212571	1473278212715	b	66
100330	1094643	He beat world number one Greg Norman by six strokes.	He beat world number one Greg Norman by six strokes.	52066504	1473278213035	1473278213195	y	89
100330	1094643	He beat world number one Greg Norman by six strokes.	He beat world number one Greg Norman by six strokes.	52066505	1473278213291	1473278213467	 	32
100330	1094643	He beat world number one Greg Norman by six strokes.	He beat world number one Greg Norman by six strokes.	52066507	1473278214123	1473278214298	s	83
100330	1094643	He beat world number one Greg Norman by six strokes.	He beat world number one Greg Norman by six strokes.	52066510	1473278214379	1473278214555	i	73
100330	1094643	He beat world number one Greg Norman by six strokes.	He beat world number one Greg Norman by six strokes.	52066514	1473278215035	1473278215226	x	88
100330	1094643	He beat world number one Greg Norman by six strokes.	He beat world number one Greg Norman by six strokes.	52066685	1473278215306	1473278215498	 	32
100330	1094643	He beat world number one Greg Norman by six strokes.	He beat world number one Greg Norman by six strokes.	52066691	1473278216139	1473278216299	s	83
100330	1094643	He beat world number one Greg Norman by six strokes.	He beat world number one Greg Norman by six strokes.	52066696	1473278216571	1473278216683	r	82
100330	1094643	He beat world number one Greg Norman by six strokes.	He beat world number one Greg Norman by six strokes.	52066704	1473278217146	1473278217322	BKSP	8
100330	1094643	He beat world number one Greg Norman by six strokes.	He beat world number one Greg Norman by six strokes.	52066710	1473278217323	1473278217499	t	84
100330	1094643	He beat world number one Greg Norman by six strokes.	He beat world number one Greg Norman by six strokes.	52066719	1473278217866	1473278218010	r	82
100330	1094643	He beat world number one Greg Norman by six strokes.	He beat world number one Greg Norman by six strokes.	52066877	1473278218202	1473278218315	o	79
100330	1094643	He beat world number one Greg Norman by six strokes.	He beat world number one Greg Norman by six strokes.	52066880	1473278218491	1473278218635	k	75
100330	1094643	He beat world number one Greg Norman by six strokes.	He beat world number one Greg Norman by six strokes.	52066889	1473278218891	1473278219002	e	69
100330	1094643	He beat world number one Greg Norman by six strokes.	He beat world number one Greg Norman by six strokes.	52066897	1473278219259	1473278219403	s	83
100330	1094643	He beat world number one Greg Norman by six strokes.	He beat world number one Greg Norman by six strokes.	52066905	1473278220362	1473278220506	.	190
100330	1094690	Add a Star Trek convention and sports memorabilia show to the mix.	Add a star Trek convention and sports Memorabilia show to the mix.	52067293	1473278223850	1473278224715	SHIFT	16
100330	1094690	Add a Star Trek convention and sports memorabilia show to the mix.	Add a star Trek convention and sports Memorabilia show to the mix.	52067296	1473278224618	1473278224779	A	65
100330	1094690	Add a Star Trek convention and sports memorabilia show to the mix.	Add a star Trek convention and sports Memorabilia show to the mix.	52067300	1473278224970	1473278225131	d	68
100330	1094690	Add a Star Trek convention and sports memorabilia show to the mix.	Add a star Trek convention and sports Memorabilia show to the mix.	52067306	1473278225195	1473278225339	d	68
100330	1094690	Add a Star Trek convention and sports memorabilia show to the mix.	Add a star Trek convention and sports Memorabilia show to the mix.	52067311	1473278225498	1473278225675	 	32
100330	1094690	Add a Star Trek convention and sports memorabilia show to the mix.	Add a star Trek convention and sports Memorabilia show to the mix.	52067316	1473278225739	1473278225931	a	65
100330	1094690	Add a Star Trek convention and sports memorabilia show to the mix.	Add a star Trek convention and sports Memorabilia show to the mix.	52067482	1473278225994	1473278226170	 	32
100330	1094690	Add a Star Trek convention and sports memorabilia show to the mix.	Add a star Trek convention and sports Memorabilia show to the mix.	52067485	1473278226554	1473278226746	s	83
100330	1094690	Add a Star Trek convention and sports memorabilia show to the mix.	Add a star Trek convention and sports Memorabilia show to the mix.	52067489	1473278227595	1473278227691	t	84
100330	1094690	Add a Star Trek convention and sports memorabilia show to the mix.	Add a star Trek convention and sports Memorabilia show to the mix.	52067494	1473278228283	1473278228427	a	65
100330	1094690	Add a Star Trek convention and sports memorabilia show to the mix.	Add a star Trek convention and sports Memorabilia show to the mix.	52067500	1473278228635	1473278228794	r	82
100330	1094690	Add a Star Trek convention and sports memorabilia show to the mix.	Add a star Trek convention and sports Memorabilia show to the mix.	52067723	1473278228891	1473278229067	 	32
100330	1094690	Add a Star Trek convention and sports memorabilia show to the mix.	Add a star Trek convention and sports Memorabilia show to the mix.	52067730	1473278229866	1473278230218	SHIFT	16
100330	1094690	Add a Star Trek convention and sports memorabilia show to the mix.	Add a star Trek convention and sports Memorabilia show to the mix.	52067735	1473278230202	1473278230362	T	84
100330	1094690	Add a Star Trek convention and sports memorabilia show to the mix.	Add a star Trek convention and sports Memorabilia show to the mix.	52067745	1473278230698	1473278230842	r	82
100330	1094690	Add a Star Trek convention and sports memorabilia show to the mix.	Add a star Trek convention and sports Memorabilia show to the mix.	52067753	1473278231370	1473278231515	e	69
100330	1094690	Add a Star Trek convention and sports memorabilia show to the mix.	Add a star Trek convention and sports Memorabilia show to the mix.	52067760	1473278232331	1473278232459	k	75
100330	1094690	Add a Star Trek convention and sports memorabilia show to the mix.	Add a star Trek convention and sports Memorabilia show to the mix.	52067929	1473278232507	1473278232635	 	32
100330	1094690	Add a Star Trek convention and sports memorabilia show to the mix.	Add a star Trek convention and sports Memorabilia show to the mix.	52067932	1473278233818	1473278233899	v	86
100330	1094690	Add a Star Trek convention and sports memorabilia show to the mix.	Add a star Trek convention and sports Memorabilia show to the mix.	52067938	1473278234411	1473278234554	BKSP	8
100330	1094690	Add a Star Trek convention and sports memorabilia show to the mix.	Add a star Trek convention and sports Memorabilia show to the mix.	52067942	1473278234555	1473278234746	c	67
100330	1094690	Add a Star Trek convention and sports memorabilia show to the mix.	Add a star Trek convention and sports Memorabilia show to the mix.	52067946	1473278234986	1473278235130	o	79
100330	1094690	Add a Star Trek convention and sports memorabilia show to the mix.	Add a star Trek convention and sports Memorabilia show to the mix.	52067950	1473278235450	1473278235594	n	78
100330	1094690	Add a Star Trek convention and sports memorabilia show to the mix.	Add a star Trek convention and sports Memorabilia show to the mix.	52068146	1473278236235	1473278236410	v	86
100330	1094690	Add a Star Trek convention and sports memorabilia show to the mix.	Add a star Trek convention and sports Memorabilia show to the mix.	52068155	1473278237210	1473278237386	e	69
100330	1094690	Add a Star Trek convention and sports memorabilia show to the mix.	Add a star Trek convention and sports Memorabilia show to the mix.	52068164	1473278237482	1473278237642	n	78
100330	1094690	Add a Star Trek convention and sports memorabilia show to the mix.	Add a star Trek convention and sports Memorabilia show to the mix.	52068171	1473278237850	1473278237978	t	84
100330	1094690	Add a Star Trek convention and sports memorabilia show to the mix.	Add a star Trek convention and sports Memorabilia show to the mix.	52068178	1473278238234	1473278238346	i	73
100330	1094690	Add a Star Trek convention and sports memorabilia show to the mix.	Add a star Trek convention and sports Memorabilia show to the mix.	52068349	1473278238474	1473278238602	o	79
100330	1094690	Add a Star Trek convention and sports memorabilia show to the mix.	Add a star Trek convention and sports Memorabilia show to the mix.	52068352	1473278239466	1473278239610	n	78
100330	1094690	Add a Star Trek convention and sports memorabilia show to the mix.	Add a star Trek convention and sports Memorabilia show to the mix.	52068357	1473278239690	1473278239882	 	32
100330	1094690	Add a Star Trek convention and sports memorabilia show to the mix.	Add a star Trek convention and sports Memorabilia show to the mix.	52068362	1473278240682	1473278240858	a	65
100330	1094690	Add a Star Trek convention and sports memorabilia show to the mix.	Add a star Trek convention and sports Memorabilia show to the mix.	52068366	1473278240938	1473278241098	n	78
100330	1094690	Add a Star Trek convention and sports memorabilia show to the mix.	Add a star Trek convention and sports Memorabilia show to the mix.	52068494	1473278241226	1473278241354	f	70
100330	1094690	Add a Star Trek convention and sports memorabilia show to the mix.	Add a star Trek convention and sports Memorabilia show to the mix.	52068500	1473278241882	1473278242042	BKSP	8
100330	1094690	Add a Star Trek convention and sports memorabilia show to the mix.	Add a star Trek convention and sports Memorabilia show to the mix.	52068508	1473278242170	1473278242362	d	68
100330	1094690	Add a Star Trek convention and sports memorabilia show to the mix.	Add a star Trek convention and sports Memorabilia show to the mix.	52068516	1473278242447	1473278242650	 	32
100330	1094690	Add a Star Trek convention and sports memorabilia show to the mix.	Add a star Trek convention and sports Memorabilia show to the mix.	52068523	1473278243098	1473278243306	s	83
100330	1094690	Add a Star Trek convention and sports memorabilia show to the mix.	Add a star Trek convention and sports Memorabilia show to the mix.	52068528	1473278243370	1473278243514	p	80
100330	1094690	Add a Star Trek convention and sports memorabilia show to the mix.	Add a star Trek convention and sports Memorabilia show to the mix.	52068660	1473278243676	1473278243850	o	79
100330	1094690	Add a Star Trek convention and sports memorabilia show to the mix.	Add a star Trek convention and sports Memorabilia show to the mix.	52068668	1473278244330	1473278244490	r	82
100330	1094690	Add a Star Trek convention and sports memorabilia show to the mix.	Add a star Trek convention and sports Memorabilia show to the mix.	52068672	1473278244634	1473278244746	t	84
100330	1094690	Add a Star Trek convention and sports memorabilia show to the mix.	Add a star Trek convention and sports Memorabilia show to the mix.	52068676	1473278245018	1473278245210	s	83
100330	1094690	Add a Star Trek convention and sports memorabilia show to the mix.	Add a star Trek convention and sports Memorabilia show to the mix.	52068679	1473278245674	1473278245850	 	32
100330	1094690	Add a Star Trek convention and sports memorabilia show to the mix.	Add a star Trek convention and sports Memorabilia show to the mix.	52068840	1473278246362	1473278246618	SHIFT	16
100330	1094690	Add a Star Trek convention and sports memorabilia show to the mix.	Add a star Trek convention and sports Memorabilia show to the mix.	52068841	1473278246554	1473278246714	M	77
100330	1094690	Add a Star Trek convention and sports memorabilia show to the mix.	Add a star Trek convention and sports Memorabilia show to the mix.	52068842	1473278246906	1473278247097	e	69
100330	1094690	Add a Star Trek convention and sports memorabilia show to the mix.	Add a star Trek convention and sports Memorabilia show to the mix.	52068843	1473278247114	1473278247274	m	77
100330	1094690	Add a Star Trek convention and sports memorabilia show to the mix.	Add a star Trek convention and sports Memorabilia show to the mix.	52068845	1473278248138	1473278248282	o	79
100330	1094690	Add a Star Trek convention and sports memorabilia show to the mix.	Add a star Trek convention and sports Memorabilia show to the mix.	52068853	1473278248538	1473278248666	r	82
100330	1094690	Add a Star Trek convention and sports memorabilia show to the mix.	Add a star Trek convention and sports Memorabilia show to the mix.	52069272	1473278248922	1473278249082	a	65
100330	1094690	Add a Star Trek convention and sports memorabilia show to the mix.	Add a star Trek convention and sports Memorabilia show to the mix.	52069275	1473278249386	1473278249514	b	66
100330	1094690	Add a Star Trek convention and sports memorabilia show to the mix.	Add a star Trek convention and sports Memorabilia show to the mix.	52069279	1473278249818	1473278249962	l	76
100330	1094690	Add a Star Trek convention and sports memorabilia show to the mix.	Add a star Trek convention and sports Memorabilia show to the mix.	52069284	1473278250249	1473278250426	e	69
100330	1094690	Add a Star Trek convention and sports memorabilia show to the mix.	Add a star Trek convention and sports Memorabilia show to the mix.	52069289	1473278251530	1473278251690	BKSP	8
100330	1094690	Add a Star Trek convention and sports memorabilia show to the mix.	Add a star Trek convention and sports Memorabilia show to the mix.	52069295	1473278252330	1473278252474	BKSP	8
100330	1094690	Add a Star Trek convention and sports memorabilia show to the mix.	Add a star Trek convention and sports Memorabilia show to the mix.	52069298	1473278253690	1473278253834	i	73
100330	1094690	Add a Star Trek convention and sports memorabilia show to the mix.	Add a star Trek convention and sports Memorabilia show to the mix.	52069386	1473278253993	1473278254122	l	76
100330	1094690	Add a Star Trek convention and sports memorabilia show to the mix.	Add a star Trek convention and sports Memorabilia show to the mix.	52069389	1473278254282	1473278254410	i	73
100330	1094690	Add a Star Trek convention and sports memorabilia show to the mix.	Add a star Trek convention and sports Memorabilia show to the mix.	52069395	1473278254633	1473278254794	a	65
100330	1094690	Add a Star Trek convention and sports memorabilia show to the mix.	Add a star Trek convention and sports Memorabilia show to the mix.	52069401	1473278254986	1473278255146	 	32
100330	1094690	Add a Star Trek convention and sports memorabilia show to the mix.	Add a star Trek convention and sports Memorabilia show to the mix.	52069403	1473278255722	1473278255913	s	83
100330	1094690	Add a Star Trek convention and sports memorabilia show to the mix.	Add a star Trek convention and sports Memorabilia show to the mix.	52069569	1473278256250	1473278256378	h	72
100330	1094690	Add a Star Trek convention and sports memorabilia show to the mix.	Add a star Trek convention and sports Memorabilia show to the mix.	52069577	1473278256682	1473278256826	o	79
100330	1094690	Add a Star Trek convention and sports memorabilia show to the mix.	Add a star Trek convention and sports Memorabilia show to the mix.	52069586	1473278257193	1473278257354	w	87
100330	1094690	Add a Star Trek convention and sports memorabilia show to the mix.	Add a star Trek convention and sports Memorabilia show to the mix.	52069596	1473278257386	1473278257578	 	32
100330	1094690	Add a Star Trek convention and sports memorabilia show to the mix.	Add a star Trek convention and sports Memorabilia show to the mix.	52069603	1473278258330	1473278258474	t	84
100330	1094690	Add a Star Trek convention and sports memorabilia show to the mix.	Add a star Trek convention and sports Memorabilia show to the mix.	52069722	1473278258666	1473278258842	o	79
100330	1094690	Add a Star Trek convention and sports memorabilia show to the mix.	Add a star Trek convention and sports Memorabilia show to the mix.	52069723	1473278258874	1473278259082	 	32
100330	1094690	Add a Star Trek convention and sports memorabilia show to the mix.	Add a star Trek convention and sports Memorabilia show to the mix.	52069724	1473278259978	1473278260105	t	84
100330	1094690	Add a Star Trek convention and sports memorabilia show to the mix.	Add a star Trek convention and sports Memorabilia show to the mix.	52069726	1473278260201	1473278260297	h	72
100330	1094690	Add a Star Trek convention and sports memorabilia show to the mix.	Add a star Trek convention and sports Memorabilia show to the mix.	52069729	1473278260442	1473278260586	e	69
100330	1094690	Add a Star Trek convention and sports memorabilia show to the mix.	Add a star Trek convention and sports Memorabilia show to the mix.	52069926	1473278260602	1473278260761	 	32
100330	1094690	Add a Star Trek convention and sports memorabilia show to the mix.	Add a star Trek convention and sports Memorabilia show to the mix.	52069932	1473278260970	1473278261114	m	77
100330	1094690	Add a Star Trek convention and sports memorabilia show to the mix.	Add a star Trek convention and sports Memorabilia show to the mix.	52069939	1473278261258	1473278261449	i	73
100330	1094690	Add a Star Trek convention and sports memorabilia show to the mix.	Add a star Trek convention and sports Memorabilia show to the mix.	52069945	1473278261577	1473278261754	s	83
100330	1094690	Add a Star Trek convention and sports memorabilia show to the mix.	Add a star Trek convention and sports Memorabilia show to the mix.	52069949	1473278262634	1473278262810	BKSP	8
100330	1094690	Add a Star Trek convention and sports memorabilia show to the mix.	Add a star Trek convention and sports Memorabilia show to the mix.	52069952	1473278263113	1473278263338	x	88
100330	1094690	Add a Star Trek convention and sports memorabilia show to the mix.	Add a star Trek convention and sports Memorabilia show to the mix.	52070052	1473278263898	1473278264090	.	190
100330	1094759	We're working with the speedway.	we're working with the speedway.	52070650	1473278267689	1473278267817	w	87
100330	1094759	We're working with the speedway.	we're working with the speedway.	52070653	1473278267929	1473278268090	e	69
100330	1094759	We're working with the speedway.	we're working with the speedway.	52070656	1473278270026	1473278270137	;	186
100330	1094759	We're working with the speedway.	we're working with the speedway.	52070660	1473278270601	1473278270761	BKSP	8
100330	1094759	We're working with the speedway.	we're working with the speedway.	52070664	1473278271018	1473278271145	'	222
100330	1094759	We're working with the speedway.	we're working with the speedway.	52070671	1473278272985	1473278273081	r	82
100330	1094759	We're working with the speedway.	we're working with the speedway.	52070828	1473278273226	1473278273369	e	69
100330	1094759	We're working with the speedway.	we're working with the speedway.	52070835	1473278273433	1473278273610	 	32
100330	1094759	We're working with the speedway.	we're working with the speedway.	52070844	1473278274186	1473278274361	w	87
100330	1094759	We're working with the speedway.	we're working with the speedway.	52070852	1473278274586	1473278274730	o	79
100330	1094759	We're working with the speedway.	we're working with the speedway.	52070859	1473278274922	1473278275065	r	82
100330	1094759	We're working with the speedway.	we're working with the speedway.	52070933	1473278275193	1473278275353	k	75
100330	1094759	We're working with the speedway.	we're working with the speedway.	52070937	1473278275497	1473278275625	i	73
100330	1094759	We're working with the speedway.	we're working with the speedway.	52070944	1473278275914	1473278276074	n	78
100330	1094759	We're working with the speedway.	we're working with the speedway.	52070954	1473278276202	1473278276377	g	71
100330	1094759	We're working with the speedway.	we're working with the speedway.	52070964	1473278276489	1473278276681	 	32
100330	1094759	We're working with the speedway.	we're working with the speedway.	52071122	1473278277449	1473278277609	w	87
100330	1094759	We're working with the speedway.	we're working with the speedway.	52071128	1473278277785	1473278277961	i	73
100330	1094759	We're working with the speedway.	we're working with the speedway.	52071134	1473278278153	1473278278217	t	84
100330	1094759	We're working with the speedway.	we're working with the speedway.	52071139	1473278278361	1473278278505	h	72
100330	1094759	We're working with the speedway.	we're working with the speedway.	52071142	1473278278569	1473278278729	 	32
100330	1094759	We're working with the speedway.	we're working with the speedway.	52071340	1473278279482	1473278279625	t	84
100330	1094759	We're working with the speedway.	we're working with the speedway.	52071344	1473278279673	1473278279833	h	72
100330	1094759	We're working with the speedway.	we're working with the speedway.	52071348	1473278279913	1473278280073	e	69
100330	1094759	We're working with the speedway.	we're working with the speedway.	52071353	1473278280153	1473278280329	 	32
100330	1094759	We're working with the speedway.	we're working with the speedway.	52071357	1473278280937	1473278281097	s	83
100330	1094759	We're working with the speedway.	we're working with the speedway.	52071483	1473278281193	1473278281337	p	80
100330	1094759	We're working with the speedway.	we're working with the speedway.	52071487	1473278281481	1473278281609	e	69
100330	1094759	We're working with the speedway.	we're working with the speedway.	52071488	1473278281657	1473278281785	e	69
100330	1094759	We're working with the speedway.	we're working with the speedway.	52071492	1473278281929	1473278282121	d	68
100330	1094759	We're working with the speedway.	we're working with the speedway.	52071496	1473278282553	1473278282697	q	81
100330	1094759	We're working with the speedway.	we're working with the speedway.	52071754	1473278283385	1473278283529	BKSP	8
100330	1094759	We're working with the speedway.	we're working with the speedway.	52071756	1473278283689	1473278283833	w	87
100330	1094759	We're working with the speedway.	we're working with the speedway.	52071760	1473278283961	1473278284121	a	65
100330	1094759	We're working with the speedway.	we're working with the speedway.	52071765	1473278284649	1473278284777	y	89
100330	1094759	We're working with the speedway.	we're working with the speedway.	52071770	1473278285881	1473278285993	.	190
100330	1094796	I will be checking up with Lisa.	i will be checking uo with Lisa.	52072139	1473278289449	1473278289689	SHIFT	16
100330	1094796	I will be checking up with Lisa.	i will be checking uo with Lisa.	52072145	1473278289690	1473278289833	i	73
100330	1094796	I will be checking up with Lisa.	i will be checking uo with Lisa.	52072151	1473278289993	1473278290153	 	32
100330	1094796	I will be checking up with Lisa.	i will be checking uo with Lisa.	52072160	1473278290264	1473278290553	SHIFT	16
100330	1094796	I will be checking up with Lisa.	i will be checking uo with Lisa.	52072167	1473278290985	1473278291129	w	87
100330	1094796	I will be checking up with Lisa.	i will be checking uo with Lisa.	52072177	1473278291225	1473278291337	i	73
100330	1094796	I will be checking up with Lisa.	i will be checking uo with Lisa.	52072187	1473278291497	1473278291625	l	76
100330	1094796	I will be checking up with Lisa.	i will be checking uo with Lisa.	52072404	1473278291721	1473278291833	l	76
100330	1094796	I will be checking up with Lisa.	i will be checking uo with Lisa.	52072407	1473278292025	1473278292200	 	32
100330	1094796	I will be checking up with Lisa.	i will be checking uo with Lisa.	52072412	1473278293097	1473278293209	v	86
100330	1094796	I will be checking up with Lisa.	i will be checking uo with Lisa.	52072416	1473278293705	1473278293833	BKSP	8
100330	1094796	I will be checking up with Lisa.	i will be checking uo with Lisa.	52072419	1473278294201	1473278294329	b	66
100330	1094796	I will be checking up with Lisa.	i will be checking uo with Lisa.	52072421	1473278294425	1473278294569	e	69
100330	1094796	I will be checking up with Lisa.	i will be checking uo with Lisa.	52072600	1473278294600	1473278294777	 	32
100330	1094796	I will be checking up with Lisa.	i will be checking uo with Lisa.	52072603	1473278295977	1473278296010	x	88
100330	1094796	I will be checking up with Lisa.	i will be checking uo with Lisa.	52072612	1473278296409	1473278296600	BKSP	8
100330	1094796	I will be checking up with Lisa.	i will be checking uo with Lisa.	52072620	1473278297000	1473278297183	c	67
100330	1094796	I will be checking up with Lisa.	i will be checking uo with Lisa.	52072626	1473278297385	1473278297545	h	72
100330	1094796	I will be checking up with Lisa.	i will be checking uo with Lisa.	52072633	1473278297625	1473278297800	e	69
100330	1094796	I will be checking up with Lisa.	i will be checking uo with Lisa.	52072850	1473278298105	1473278298265	x	88
100330	1094796	I will be checking up with Lisa.	i will be checking uo with Lisa.	52072857	1473278298616	1473278298777	BKSP	8
100330	1094796	I will be checking up with Lisa.	i will be checking uo with Lisa.	52072864	1473278298921	1473278299097	c	67
100330	1094796	I will be checking up with Lisa.	i will be checking uo with Lisa.	52072869	1473278299449	1473278299561	h	72
100330	1094796	I will be checking up with Lisa.	i will be checking uo with Lisa.	52072873	1473278299977	1473278300153	BKSP	8
100330	1094796	I will be checking up with Lisa.	i will be checking uo with Lisa.	52072877	1473278300393	1473278300521	k	75
100330	1094796	I will be checking up with Lisa.	i will be checking uo with Lisa.	52072880	1473278300649	1473278300777	i	73
100330	1094796	I will be checking up with Lisa.	i will be checking uo with Lisa.	52073125	1473278301017	1473278301161	n	78
100330	1094796	I will be checking up with Lisa.	i will be checking uo with Lisa.	52073130	1473278301241	1473278301416	g	71
100330	1094796	I will be checking up with Lisa.	i will be checking uo with Lisa.	52073133	1473278301593	1473278301833	 	32
100330	1094796	I will be checking up with Lisa.	i will be checking uo with Lisa.	52073138	1473278303288	1473278303400	u	85
100330	1094796	I will be checking up with Lisa.	i will be checking uo with Lisa.	52073141	1473278303561	1473278303705	o	79
100330	1094796	I will be checking up with Lisa.	i will be checking uo with Lisa.	52073252	1473278303769	1473278303929	 	32
100330	1094796	I will be checking up with Lisa.	i will be checking uo with Lisa.	52073259	1473278304185	1473278304344	w	87
100330	1094796	I will be checking up with Lisa.	i will be checking uo with Lisa.	52073264	1473278304712	1473278304888	i	73
100330	1094796	I will be checking up with Lisa.	i will be checking uo with Lisa.	52073269	1473278304953	1473278305081	t	84
100330	1094796	I will be checking up with Lisa.	i will be checking uo with Lisa.	52073273	1473278305192	1473278305321	h	72
100330	1094796	I will be checking up with Lisa.	i will be checking uo with Lisa.	52073446	1473278305352	1473278305497	 	32
100330	1094796	I will be checking up with Lisa.	i will be checking uo with Lisa.	52073451	1473278306552	1473278306825	SHIFT	16
100330	1094796	I will be checking up with Lisa.	i will be checking uo with Lisa.	52073456	1473278306697	1473278306857	L	76
100330	1094796	I will be checking up with Lisa.	i will be checking uo with Lisa.	52073462	1473278307000	1473278307129	i	73
100330	1094796	I will be checking up with Lisa.	i will be checking uo with Lisa.	52073469	1473278307321	1473278307480	s	83
100330	1094796	I will be checking up with Lisa.	i will be checking uo with Lisa.	52073475	1473278308040	1473278308232	a	65
100330	1094796	I will be checking up with Lisa.	i will be checking uo with Lisa.	52073775	1473278310121	1473278310280	.	190
100330	1094837	I would love to help you guys with this imbalance.	I would love to help you guys with this imbalance.	52074109	1473278315752	1473278316025	SHIFT	16
100330	1094837	I would love to help you guys with this imbalance.	I would love to help you guys with this imbalance.	52074111	1473278315992	1473278316120	I	73
100330	1094837	I would love to help you guys with this imbalance.	I would love to help you guys with this imbalance.	52074114	1473278316296	1473278316472	 	32
100330	1094837	I would love to help you guys with this imbalance.	I would love to help you guys with this imbalance.	52074119	1473278316616	1473278316761	w	87
100330	1094837	I would love to help you guys with this imbalance.	I would love to help you guys with this imbalance.	52074122	1473278316857	1473278317000	o	79
100330	1094837	I would love to help you guys with this imbalance.	I would love to help you guys with this imbalance.	52074126	1473278317224	1473278317320	u	85
100330	1094837	I would love to help you guys with this imbalance.	I would love to help you guys with this imbalance.	52074235	1473278317496	1473278317688	l	76
100330	1094837	I would love to help you guys with this imbalance.	I would love to help you guys with this imbalance.	52074238	1473278317832	1473278317976	d	68
100330	1094837	I would love to help you guys with this imbalance.	I would love to help you guys with this imbalance.	52074241	1473278318008	1473278318200	 	32
100330	1094837	I would love to help you guys with this imbalance.	I would love to help you guys with this imbalance.	52074247	1473278319033	1473278319160	l	76
100330	1094837	I would love to help you guys with this imbalance.	I would love to help you guys with this imbalance.	52074253	1473278319352	1473278319496	i	73
100330	1094837	I would love to help you guys with this imbalance.	I would love to help you guys with this imbalance.	52074432	1473278319992	1473278320152	BKSP	8
100330	1094837	I would love to help you guys with this imbalance.	I would love to help you guys with this imbalance.	52074436	1473278320360	1473278320520	o	79
100330	1094837	I would love to help you guys with this imbalance.	I would love to help you guys with this imbalance.	52074439	1473278320952	1473278321080	v	86
100330	1094837	I would love to help you guys with this imbalance.	I would love to help you guys with this imbalance.	52074442	1473278321320	1473278321464	e	69
100330	1094837	I would love to help you guys with this imbalance.	I would love to help you guys with this imbalance.	52074446	1473278321512	1473278321688	 	32
100330	1094837	I would love to help you guys with this imbalance.	I would love to help you guys with this imbalance.	52074450	1473278322440	1473278322600	t	84
100330	1094837	I would love to help you guys with this imbalance.	I would love to help you guys with this imbalance.	52074525	1473278322728	1473278322856	o	79
100330	1094837	I would love to help you guys with this imbalance.	I would love to help you guys with this imbalance.	52074530	1473278322904	1473278323080	 	32
100330	1094837	I would love to help you guys with this imbalance.	I would love to help you guys with this imbalance.	52074536	1473278323240	1473278323384	h	72
100330	1094837	I would love to help you guys with this imbalance.	I would love to help you guys with this imbalance.	52074543	1473278323576	1473278323704	e	69
100330	1094837	I would love to help you guys with this imbalance.	I would love to help you guys with this imbalance.	52074548	1473278323864	1473278323992	l	76
100330	1094837	I would love to help you guys with this imbalance.	I would love to help you guys with this imbalance.	52074725	1473278324136	1473278324264	p	80
100330	1094837	I would love to help you guys with this imbalance.	I would love to help you guys with this imbalance.	52074731	1473278324296	1473278324488	 	32
100330	1094837	I would love to help you guys with this imbalance.	I would love to help you guys with this imbalance.	52074738	1473278325896	1473278326056	y	89
100330	1094837	I would love to help you guys with this imbalance.	I would love to help you guys with this imbalance.	52074744	1473278326264	1473278326408	o	79
100330	1094837	I would love to help you guys with this imbalance.	I would love to help you guys with this imbalance.	52074749	1473278326632	1473278326760	u	85
100330	1094837	I would love to help you guys with this imbalance.	I would love to help you guys with this imbalance.	52074901	1473278326840	1473278327000	 	32
100330	1094837	I would love to help you guys with this imbalance.	I would love to help you guys with this imbalance.	52074902	1473278327848	1473278327976	g	71
100330	1094837	I would love to help you guys with this imbalance.	I would love to help you guys with this imbalance.	52074903	1473278328264	1473278328376	u	85
100330	1094837	I would love to help you guys with this imbalance.	I would love to help you guys with this imbalance.	52074905	1473278328857	1473278328984	y	89
100330	1094837	I would love to help you guys with this imbalance.	I would love to help you guys with this imbalance.	52074908	1473278329240	1473278329400	s	83
100330	1094837	I would love to help you guys with this imbalance.	I would love to help you guys with this imbalance.	52075036	1473278329848	1473278330040	 	32
100330	1094837	I would love to help you guys with this imbalance.	I would love to help you guys with this imbalance.	52075038	1473278330408	1473278330568	w	87
100330	1094837	I would love to help you guys with this imbalance.	I would love to help you guys with this imbalance.	52075044	1473278330824	1473278331032	i	73
100330	1094837	I would love to help you guys with this imbalance.	I would love to help you guys with this imbalance.	52075050	1473278331176	1473278331368	t	84
100330	1094837	I would love to help you guys with this imbalance.	I would love to help you guys with this imbalance.	52075054	1473278331416	1473278331592	h	72
100330	1094837	I would love to help you guys with this imbalance.	I would love to help you guys with this imbalance.	52075145	1473278331656	1473278331832	 	32
100330	1094837	I would love to help you guys with this imbalance.	I would love to help you guys with this imbalance.	52075146	1473278332536	1473278332664	t	84
100330	1094837	I would love to help you guys with this imbalance.	I would love to help you guys with this imbalance.	52075147	1473278332696	1473278332840	h	72
100330	1094837	I would love to help you guys with this imbalance.	I would love to help you guys with this imbalance.	52075150	1473278333032	1473278333192	o	79
100330	1094837	I would love to help you guys with this imbalance.	I would love to help you guys with this imbalance.	52075153	1473278333256	1473278333416	s	83
100330	1094837	I would love to help you guys with this imbalance.	I would love to help you guys with this imbalance.	52075397	1473278333672	1473278333863	 	32
100330	1094837	I would love to help you guys with this imbalance.	I would love to help you guys with this imbalance.	52075398	1473278334648	1473278334744	BKSP	8
100330	1094837	I would love to help you guys with this imbalance.	I would love to help you guys with this imbalance.	52075400	1473278334840	1473278334903	BKSP	8
100330	1094837	I would love to help you guys with this imbalance.	I would love to help you guys with this imbalance.	52075402	1473278335000	1473278335095	BKSP	8
100330	1094837	I would love to help you guys with this imbalance.	I would love to help you guys with this imbalance.	52075404	1473278335720	1473278335847	i	73
100330	1094837	I would love to help you guys with this imbalance.	I would love to help you guys with this imbalance.	52075406	1473278335895	1473278336040	s	83
100330	1094837	I would love to help you guys with this imbalance.	I would love to help you guys with this imbalance.	52075409	1473278336168	1473278336327	 	32
100330	1094837	I would love to help you guys with this imbalance.	I would love to help you guys with this imbalance.	52075412	1473278337064	1473278337192	i	73
100330	1094837	I would love to help you guys with this imbalance.	I would love to help you guys with this imbalance.	52075557	1473278337528	1473278337639	m	77
100330	1094837	I would love to help you guys with this imbalance.	I would love to help you guys with this imbalance.	52075561	1473278338392	1473278338504	b	66
100330	1094837	I would love to help you guys with this imbalance.	I would love to help you guys with this imbalance.	52075565	1473278338744	1473278338904	a	65
100330	1094837	I would love to help you guys with this imbalance.	I would love to help you guys with this imbalance.	52075571	1473278338905	1473278339064	l	76
100330	1094837	I would love to help you guys with this imbalance.	I would love to help you guys with this imbalance.	52075575	1473278339144	1473278339320	a	65
100330	1094837	I would love to help you guys with this imbalance.	I would love to help you guys with this imbalance.	52075940	1473278339512	1473278339688	n	78
100330	1094837	I would love to help you guys with this imbalance.	I would love to help you guys with this imbalance.	52075943	1473278339880	1473278340008	c	67
100330	1094837	I would love to help you guys with this imbalance.	I would love to help you guys with this imbalance.	52075946	1473278340247	1473278340408	e	69
100330	1094837	I would love to help you guys with this imbalance.	I would love to help you guys with this imbalance.	52075951	1473278341672	1473278341848	/	191
100330	1094837	I would love to help you guys with this imbalance.	I would love to help you guys with this imbalance.	52075955	1473278342599	1473278342695	BKSP	8
100330	1094837	I would love to help you guys with this imbalance.	I would love to help you guys with this imbalance.	52075960	1473278343416	1473278343560	.	190
100330	1094895	Look for him to throw for over 200 yards and a score.	Look for him to throw for over 200 yards and a score.	52076557	1473278350216	1473278350472	SHIFT	16
100330	1094895	Look for him to throw for over 200 yards and a score.	Look for him to throw for over 200 yards and a score.	52076563	1473278350456	1473278350584	L	76
100330	1094895	Look for him to throw for over 200 yards and a score.	Look for him to throw for over 200 yards and a score.	52076573	1473278350711	1473278350823	o	79
100330	1094895	Look for him to throw for over 200 yards and a score.	Look for him to throw for over 200 yards and a score.	52076579	1473278350903	1473278351000	o	79
100330	1094895	Look for him to throw for over 200 yards and a score.	Look for him to throw for over 200 yards and a score.	52076589	1473278351191	1473278351319	k	75
100330	1094895	Look for him to throw for over 200 yards and a score.	Look for him to throw for over 200 yards and a score.	52076595	1473278351960	1473278352120	 	32
100330	1094895	Look for him to throw for over 200 yards and a score.	Look for him to throw for over 200 yards and a score.	52076696	1473278352856	1473278353000	f	70
100330	1094895	Look for him to throw for over 200 yards and a score.	Look for him to throw for over 200 yards and a score.	52076698	1473278353159	1473278353319	o	79
100330	1094895	Look for him to throw for over 200 yards and a score.	Look for him to throw for over 200 yards and a score.	52076703	1473278353512	1473278353623	r	82
100330	1094895	Look for him to throw for over 200 yards and a score.	Look for him to throw for over 200 yards and a score.	52076706	1473278353656	1473278353799	 	32
100330	1094895	Look for him to throw for over 200 yards and a score.	Look for him to throw for over 200 yards and a score.	52076710	1473278353959	1473278354087	h	72
100330	1094895	Look for him to throw for over 200 yards and a score.	Look for him to throw for over 200 yards and a score.	52076868	1473278354232	1473278354360	i	73
100330	1094895	Look for him to throw for over 200 yards and a score.	Look for him to throw for over 200 yards and a score.	52076871	1473278354632	1473278354776	m	77
100330	1094895	Look for him to throw for over 200 yards and a score.	Look for him to throw for over 200 yards and a score.	52076873	1473278354791	1473278354983	 	32
100330	1094895	Look for him to throw for over 200 yards and a score.	Look for him to throw for over 200 yards and a score.	52076876	1473278355719	1473278355863	t	84
100330	1094895	Look for him to throw for over 200 yards and a score.	Look for him to throw for over 200 yards and a score.	52076880	1473278355991	1473278356200	o	79
100330	1094895	Look for him to throw for over 200 yards and a score.	Look for him to throw for over 200 yards and a score.	52077012	1473278356215	1473278356375	 	32
100330	1094895	Look for him to throw for over 200 yards and a score.	Look for him to throw for over 200 yards and a score.	52077014	1473278357047	1473278357175	t	84
100330	1094895	Look for him to throw for over 200 yards and a score.	Look for him to throw for over 200 yards and a score.	52077020	1473278357224	1473278357368	h	72
100330	1094895	Look for him to throw for over 200 yards and a score.	Look for him to throw for over 200 yards and a score.	52077026	1473278357719	1473278357879	r	82
100330	1094895	Look for him to throw for over 200 yards and a score.	Look for him to throw for over 200 yards and a score.	52077033	1473278358135	1473278358295	o	79
100330	1094895	Look for him to throw for over 200 yards and a score.	Look for him to throw for over 200 yards and a score.	52077167	1473278358599	1473278358743	w	87
100330	1094895	Look for him to throw for over 200 yards and a score.	Look for him to throw for over 200 yards and a score.	52077174	1473278358855	1473278359063	 	32
100330	1094895	Look for him to throw for over 200 yards and a score.	Look for him to throw for over 200 yards and a score.	52077180	1473278359751	1473278359912	f	70
100330	1094895	Look for him to throw for over 200 yards and a score.	Look for him to throw for over 200 yards and a score.	52077186	1473278360071	1473278360248	o	79
100330	1094895	Look for him to throw for over 200 yards and a score.	Look for him to throw for over 200 yards and a score.	52077191	1473278360408	1473278360552	r	82
100330	1094895	Look for him to throw for over 200 yards and a score.	Look for him to throw for over 200 yards and a score.	52077321	1473278360647	1473278360855	 	32
100330	1094895	Look for him to throw for over 200 yards and a score.	Look for him to throw for over 200 yards and a score.	52077330	1473278361431	1473278361576	o	79
100330	1094895	Look for him to throw for over 200 yards and a score.	Look for him to throw for over 200 yards and a score.	52077336	1473278361943	1473278362087	v	86
100330	1094895	Look for him to throw for over 200 yards and a score.	Look for him to throw for over 200 yards and a score.	52077342	1473278362376	1473278362519	e	69
100330	1094895	Look for him to throw for over 200 yards and a score.	Look for him to throw for over 200 yards and a score.	52077349	1473278362663	1473278362807	r	82
100330	1094895	Look for him to throw for over 200 yards and a score.	Look for him to throw for over 200 yards and a score.	52077573	1473278362919	1473278363079	 	32
100330	1094895	Look for him to throw for over 200 yards and a score.	Look for him to throw for over 200 yards and a score.	52077576	1473278364519	1473278364679	2	50
100330	1094895	Look for him to throw for over 200 yards and a score.	Look for him to throw for over 200 yards and a score.	52077579	1473278365143	1473278365255	0	48
100330	1094895	Look for him to throw for over 200 yards and a score.	Look for him to throw for over 200 yards and a score.	52077583	1473278365335	1473278365447	0	48
100330	1094895	Look for him to throw for over 200 yards and a score.	Look for him to throw for over 200 yards and a score.	52077586	1473278365591	1473278365751	 	32
100330	1094895	Look for him to throw for over 200 yards and a score.	Look for him to throw for over 200 yards and a score.	52077730	1473278366887	1473278367031	y	89
100330	1094895	Look for him to throw for over 200 yards and a score.	Look for him to throw for over 200 yards and a score.	52077732	1473278367320	1473278367463	a	65
100330	1094895	Look for him to throw for over 200 yards and a score.	Look for him to throw for over 200 yards and a score.	52077735	1473278367719	1473278367863	r	82
100330	1094895	Look for him to throw for over 200 yards and a score.	Look for him to throw for over 200 yards and a score.	52077743	1473278368055	1473278368199	d	68
100330	1094895	Look for him to throw for over 200 yards and a score.	Look for him to throw for over 200 yards and a score.	52077750	1473278368343	1473278368503	s	83
100330	1094895	Look for him to throw for over 200 yards and a score.	Look for him to throw for over 200 yards and a score.	52077874	1473278368743	1473278368935	 	32
100330	1094895	Look for him to throw for over 200 yards and a score.	Look for him to throw for over 200 yards and a score.	52077878	1473278369671	1473278369815	a	65
100330	1094895	Look for him to throw for over 200 yards and a score.	Look for him to throw for over 200 yards and a score.	52077885	1473278369863	1473278370023	n	78
100330	1094895	Look for him to throw for over 200 yards and a score.	Look for him to throw for over 200 yards and a score.	52077890	1473278370103	1473278370247	d	68
100330	1094895	Look for him to throw for over 200 yards and a score.	Look for him to throw for over 200 yards and a score.	52077894	1473278370311	1473278370487	 	32
100330	1094895	Look for him to throw for over 200 yards and a score.	Look for him to throw for over 200 yards and a score.	52078024	1473278370711	1473278370871	a	65
100330	1094895	Look for him to throw for over 200 yards and a score.	Look for him to throw for over 200 yards and a score.	52078034	1473278370936	1473278371111	 	32
100330	1094895	Look for him to throw for over 200 yards and a score.	Look for him to throw for over 200 yards and a score.	52078041	1473278371527	1473278371671	s	83
100330	1094895	Look for him to throw for over 200 yards and a score.	Look for him to throw for over 200 yards and a score.	52078046	1473278372167	1473278372343	c	67
100330	1094895	Look for him to throw for over 200 yards and a score.	Look for him to throw for over 200 yards and a score.	52078053	1473278372439	1473278372583	o	79
100330	1094895	Look for him to throw for over 200 yards and a score.	Look for him to throw for over 200 yards and a score.	52078141	1473278372775	1473278372887	r	82
100330	1094895	Look for him to throw for over 200 yards and a score.	Look for him to throw for over 200 yards and a score.	52078147	1473278373031	1473278373175	e	69
100330	1094895	Look for him to throw for over 200 yards and a score.	Look for him to throw for over 200 yards and a score.	52078152	1473278373671	1473278373831	.	190
100330	1094937	Clinton attended the US college basketball finals.	Clinton attended the US college basketball finals.	52078478	1473278377495	1473278378407	SHIFT	16
100330	1094937	Clinton attended the US college basketball finals.	Clinton attended the US college basketball finals.	52078474	1473278378246	1473278378391	C	67
100330	1094937	Clinton attended the US college basketball finals.	Clinton attended the US college basketball finals.	52078483	1473278379191	1473278379319	l	76
100330	1094937	Clinton attended the US college basketball finals.	Clinton attended the US college basketball finals.	52078487	1473278379511	1473278379623	i	73
100330	1094937	Clinton attended the US college basketball finals.	Clinton attended the US college basketball finals.	52078491	1473278379911	1473278380071	n	78
100330	1094937	Clinton attended the US college basketball finals.	Clinton attended the US college basketball finals.	52078495	1473278380391	1473278380535	t	84
100330	1094937	Clinton attended the US college basketball finals.	Clinton attended the US college basketball finals.	52078631	1473278380663	1473278380807	o	79
100330	1094937	Clinton attended the US college basketball finals.	Clinton attended the US college basketball finals.	52078636	1473278381527	1473278381655	n	78
100330	1094937	Clinton attended the US college basketball finals.	Clinton attended the US college basketball finals.	52078641	1473278381687	1473278381863	 	32
100330	1094937	Clinton attended the US college basketball finals.	Clinton attended the US college basketball finals.	52078644	1473278382550	1473278382743	a	65
100330	1094937	Clinton attended the US college basketball finals.	Clinton attended the US college basketball finals.	52078647	1473278383095	1473278383207	t	84
100330	1094937	Clinton attended the US college basketball finals.	Clinton attended the US college basketball finals.	52078744	1473278383302	1473278383399	t	84
100330	1094937	Clinton attended the US college basketball finals.	Clinton attended the US college basketball finals.	52078748	1473278384135	1473278384295	e	69
100330	1094937	Clinton attended the US college basketball finals.	Clinton attended the US college basketball finals.	52078749	1473278384711	1473278384871	n	78
100330	1094937	Clinton attended the US college basketball finals.	Clinton attended the US college basketball finals.	52078753	1473278384998	1473278385127	d	68
100330	1094937	Clinton attended the US college basketball finals.	Clinton attended the US college basketball finals.	52078758	1473278385271	1473278385415	e	69
100330	1094937	Clinton attended the US college basketball finals.	Clinton attended the US college basketball finals.	52078862	1473278385575	1473278385767	d	68
100330	1094937	Clinton attended the US college basketball finals.	Clinton attended the US college basketball finals.	52078867	1473278386022	1473278386215	 	32
100330	1094937	Clinton attended the US college basketball finals.	Clinton attended the US college basketball finals.	52078871	1473278386599	1473278386727	t	84
100330	1094937	Clinton attended the US college basketball finals.	Clinton attended the US college basketball finals.	52078878	1473278386823	1473278386967	h	72
100330	1094937	Clinton attended the US college basketball finals.	Clinton attended the US college basketball finals.	52078880	1473278387175	1473278387351	e	69
100330	1094937	Clinton attended the US college basketball finals.	Clinton attended the US college basketball finals.	52079071	1473278387399	1473278387575	 	32
100330	1094937	Clinton attended the US college basketball finals.	Clinton attended the US college basketball finals.	52079078	1473278388183	1473278389751	SHIFT	16
100330	1094937	Clinton attended the US college basketball finals.	Clinton attended the US college basketball finals.	52079075	1473278388967	1473278389127	U	85
100330	1094937	Clinton attended the US college basketball finals.	Clinton attended the US college basketball finals.	52079081	1473278389542	1473278389752	S	83
100330	1094937	Clinton attended the US college basketball finals.	Clinton attended the US college basketball finals.	52079089	1473278390231	1473278390423	 	32
100330	1094937	Clinton attended the US college basketball finals.	Clinton attended the US college basketball finals.	52079092	1473278391143	1473278391286	c	67
100330	1094937	Clinton attended the US college basketball finals.	Clinton attended the US college basketball finals.	52079166	1473278391414	1473278391511	o	79
100330	1094937	Clinton attended the US college basketball finals.	Clinton attended the US college basketball finals.	52079171	1473278391655	1473278391719	l	76
100330	1094937	Clinton attended the US college basketball finals.	Clinton attended the US college basketball finals.	52079173	1473278391799	1473278391894	l	76
100330	1094937	Clinton attended the US college basketball finals.	Clinton attended the US college basketball finals.	52079176	1473278392103	1473278392246	e	69
100330	1094937	Clinton attended the US college basketball finals.	Clinton attended the US college basketball finals.	52079179	1473278392646	1473278392775	g	71
100330	1094937	Clinton attended the US college basketball finals.	Clinton attended the US college basketball finals.	52079247	1473278392886	1473278393031	e	69
100330	1094937	Clinton attended the US college basketball finals.	Clinton attended the US college basketball finals.	52079249	1473278393287	1473278393463	 	32
100330	1094937	Clinton attended the US college basketball finals.	Clinton attended the US college basketball finals.	52079251	1473278394103	1473278394246	b	66
100330	1094937	Clinton attended the US college basketball finals.	Clinton attended the US college basketball finals.	52079254	1473278394406	1473278394583	a	65
100330	1094937	Clinton attended the US college basketball finals.	Clinton attended the US college basketball finals.	52079257	1473278394711	1473278394902	s	83
100330	1094937	Clinton attended the US college basketball finals.	Clinton attended the US college basketball finals.	52079485	1473278395190	1473278395351	k	75
100330	1094937	Clinton attended the US college basketball finals.	Clinton attended the US college basketball finals.	52079489	1473278395479	1473278395655	e	69
100330	1094937	Clinton attended the US college basketball finals.	Clinton attended the US college basketball finals.	52079491	1473278395927	1473278396103	t	84
100330	1094937	Clinton attended the US college basketball finals.	Clinton attended the US college basketball finals.	52079493	1473278397654	1473278397767	v	86
100330	1094937	Clinton attended the US college basketball finals.	Clinton attended the US college basketball finals.	52079496	1473278398262	1473278398391	BKSP	8
100330	1094937	Clinton attended the US college basketball finals.	Clinton attended the US college basketball finals.	52079499	1473278399302	1473278399446	b	66
100330	1094937	Clinton attended the US college basketball finals.	Clinton attended the US college basketball finals.	52079580	1473278399561	1473278399719	a	65
100330	1094937	Clinton attended the US college basketball finals.	Clinton attended the US college basketball finals.	52079586	1473278399767	1473278399942	l	76
100330	1094937	Clinton attended the US college basketball finals.	Clinton attended the US college basketball finals.	52079588	1473278400038	1473278400134	l	76
100330	1094937	Clinton attended the US college basketball finals.	Clinton attended the US college basketball finals.	52079591	1473278400422	1473278400631	 	32
100330	1094937	Clinton attended the US college basketball finals.	Clinton attended the US college basketball finals.	52079594	1473278401302	1473278401463	f	70
100330	1094937	Clinton attended the US college basketball finals.	Clinton attended the US college basketball finals.	52079744	1473278401639	1473278401750	i	73
100330	1094937	Clinton attended the US college basketball finals.	Clinton attended the US college basketball finals.	52079749	1473278401911	1473278402071	l	76
100330	1094937	Clinton attended the US college basketball finals.	Clinton attended the US college basketball finals.	52079753	1473278402999	1473278403126	BKSP	8
100330	1094937	Clinton attended the US college basketball finals.	Clinton attended the US college basketball finals.	52079756	1473278403814	1473278403942	n	78
100330	1094937	Clinton attended the US college basketball finals.	Clinton attended the US college basketball finals.	52079758	1473278404102	1473278404263	a	65
100330	1094937	Clinton attended the US college basketball finals.	Clinton attended the US college basketball finals.	52079760	1473278404295	1473278404438	l	76
100330	1094937	Clinton attended the US college basketball finals.	Clinton attended the US college basketball finals.	52079848	1473278405207	1473278405382	s	83
100330	1094937	Clinton attended the US college basketball finals.	Clinton attended the US college basketball finals.	52079850	1473278405719	1473278405894	.	190
100330	1094975	The informal costs have to disappear.	The informal costs have to disappear.	52080081	1473278410006	1473278410742	SHIFT	16
100330	1094975	The informal costs have to disappear.	The informal costs have to disappear.	52080082	1473278410550	1473278410742	T	84
100330	1094975	The informal costs have to disappear.	The informal costs have to disappear.	52080083	1473278410887	1473278411046	h	72
100330	1094975	The informal costs have to disappear.	The informal costs have to disappear.	52080084	1473278411158	1473278411302	e	69
100330	1094975	The informal costs have to disappear.	The informal costs have to disappear.	52080085	1473278411334	1473278411542	 	32
100330	1094975	The informal costs have to disappear.	The informal costs have to disappear.	52080086	1473278412326	1473278412438	i	73
100330	1094975	The informal costs have to disappear.	The informal costs have to disappear.	52080170	1473278412998	1473278413142	n	78
100330	1094975	The informal costs have to disappear.	The informal costs have to disappear.	52080173	1473278413398	1473278413574	f	70
100330	1094975	The informal costs have to disappear.	The informal costs have to disappear.	52080176	1473278413766	1473278413910	o	79
100330	1094975	The informal costs have to disappear.	The informal costs have to disappear.	52080179	1473278414054	1473278414182	r	82
100330	1094975	The informal costs have to disappear.	The informal costs have to disappear.	52080181	1473278414422	1473278414566	m	77
100330	1094975	The informal costs have to disappear.	The informal costs have to disappear.	52080286	1473278414614	1473278414790	a	65
100330	1094975	The informal costs have to disappear.	The informal costs have to disappear.	52080289	1473278415030	1473278415222	l	76
100330	1094975	The informal costs have to disappear.	The informal costs have to disappear.	52080294	1473278415542	1473278415718	 	32
100330	1094975	The informal costs have to disappear.	The informal costs have to disappear.	52080298	1473278416390	1473278416550	c	67
100330	1094975	The informal costs have to disappear.	The informal costs have to disappear.	52080301	1473278416822	1473278416998	o	79
100330	1094975	The informal costs have to disappear.	The informal costs have to disappear.	52080370	1473278417078	1473278417238	s	83
100330	1094975	The informal costs have to disappear.	The informal costs have to disappear.	52080372	1473278417733	1473278417878	t	84
100330	1094975	The informal costs have to disappear.	The informal costs have to disappear.	52080374	1473278417926	1473278418085	s	83
100330	1094975	The informal costs have to disappear.	The informal costs have to disappear.	52080375	1473278418325	1473278418501	 	32
100330	1094975	The informal costs have to disappear.	The informal costs have to disappear.	52080377	1473278418885	1473278419045	h	72
100330	1094975	The informal costs have to disappear.	The informal costs have to disappear.	52080495	1473278419189	1473278419349	a	65
100330	1094975	The informal costs have to disappear.	The informal costs have to disappear.	52080500	1473278419413	1473278419573	v	86
100330	1094975	The informal costs have to disappear.	The informal costs have to disappear.	52080505	1473278419637	1473278419829	e	69
100330	1094975	The informal costs have to disappear.	The informal costs have to disappear.	52080514	1473278419877	1473278420085	 	32
100330	1094975	The informal costs have to disappear.	The informal costs have to disappear.	52080518	1473278420773	1473278420933	t	84
100330	1094975	The informal costs have to disappear.	The informal costs have to disappear.	52080602	1473278421045	1473278421205	o	79
100330	1094975	The informal costs have to disappear.	The informal costs have to disappear.	52080606	1473278421206	1473278421397	 	32
100330	1094975	The informal costs have to disappear.	The informal costs have to disappear.	52080610	1473278421926	1473278422086	d	68
100330	1094975	The informal costs have to disappear.	The informal costs have to disappear.	52080612	1473278422229	1473278422389	i	73
100330	1094975	The informal costs have to disappear.	The informal costs have to disappear.	52080618	1473278422501	1473278422597	d	68
100330	1094975	The informal costs have to disappear.	The informal costs have to disappear.	52080728	1473278423430	1473278423574	BKSP	8
100330	1094975	The informal costs have to disappear.	The informal costs have to disappear.	52080730	1473278423654	1473278423878	s	83
100330	1094975	The informal costs have to disappear.	The informal costs have to disappear.	52080732	1473278424150	1473278424310	a	65
100330	1094975	The informal costs have to disappear.	The informal costs have to disappear.	52080735	1473278424470	1473278424550	a	65
100330	1094975	The informal costs have to disappear.	The informal costs have to disappear.	52080738	1473278425077	1473278425237	BKSP	8
100330	1094975	The informal costs have to disappear.	The informal costs have to disappear.	52080741	1473278425654	1473278425766	p	80
100330	1094975	The informal costs have to disappear.	The informal costs have to disappear.	52080745	1473278425862	1473278425973	p	80
100330	1094975	The informal costs have to disappear.	The informal costs have to disappear.	52080848	1473278426117	1473278426278	e	69
100330	1094975	The informal costs have to disappear.	The informal costs have to disappear.	52080850	1473278426614	1473278426815	a	65
100330	1094975	The informal costs have to disappear.	The informal costs have to disappear.	52080852	1473278427022	1473278427182	r	82
100330	1094975	The informal costs have to disappear.	The informal costs have to disappear.	52080854	1473278427998	1473278428126	.	190
100330	1094997	Chambers is still too inconsistent to start for most Fantasy teams.	Chambers is still too inconsistent to start for most Fantasy teams.	52081111	1473278431551	1473278432110	SHIFT	16
100330	1094997	Chambers is still too inconsistent to start for most Fantasy teams.	Chambers is still too inconsistent to start for most Fantasy teams.	52081114	1473278431902	1473278432110	C	67
100330	1094997	Chambers is still too inconsistent to start for most Fantasy teams.	Chambers is still too inconsistent to start for most Fantasy teams.	52081117	1473278432702	1473278432830	h	72
100330	1094997	Chambers is still too inconsistent to start for most Fantasy teams.	Chambers is still too inconsistent to start for most Fantasy teams.	52081122	1473278432862	1473278433070	a	65
100330	1094997	Chambers is still too inconsistent to start for most Fantasy teams.	Chambers is still too inconsistent to start for most Fantasy teams.	52081127	1473278433150	1473278433310	m	77
100330	1094997	Chambers is still too inconsistent to start for most Fantasy teams.	Chambers is still too inconsistent to start for most Fantasy teams.	52081134	1473278433598	1473278433774	b	66
100330	1094997	Chambers is still too inconsistent to start for most Fantasy teams.	Chambers is still too inconsistent to start for most Fantasy teams.	52081205	1473278433934	1473278434078	e	69
100330	1094997	Chambers is still too inconsistent to start for most Fantasy teams.	Chambers is still too inconsistent to start for most Fantasy teams.	52081208	1473278434302	1473278434446	r	82
100330	1094997	Chambers is still too inconsistent to start for most Fantasy teams.	Chambers is still too inconsistent to start for most Fantasy teams.	52081211	1473278434798	1473278435006	s	83
100330	1094997	Chambers is still too inconsistent to start for most Fantasy teams.	Chambers is still too inconsistent to start for most Fantasy teams.	52081215	1473278435118	1473278435310	 	32
100330	1094997	Chambers is still too inconsistent to start for most Fantasy teams.	Chambers is still too inconsistent to start for most Fantasy teams.	52081221	1473278435774	1473278435918	i	73
100330	1094997	Chambers is still too inconsistent to start for most Fantasy teams.	Chambers is still too inconsistent to start for most Fantasy teams.	52081311	1473278435934	1473278436094	s	83
100330	1094997	Chambers is still too inconsistent to start for most Fantasy teams.	Chambers is still too inconsistent to start for most Fantasy teams.	52081314	1473278436174	1473278436382	 	32
100330	1094997	Chambers is still too inconsistent to start for most Fantasy teams.	Chambers is still too inconsistent to start for most Fantasy teams.	52081317	1473278436766	1473278436942	s	83
100330	1094997	Chambers is still too inconsistent to start for most Fantasy teams.	Chambers is still too inconsistent to start for most Fantasy teams.	52081320	1473278437502	1473278437646	t	84
100330	1094997	Chambers is still too inconsistent to start for most Fantasy teams.	Chambers is still too inconsistent to start for most Fantasy teams.	52081322	1473278437854	1473278437950	i	73
100330	1094997	Chambers is still too inconsistent to start for most Fantasy teams.	Chambers is still too inconsistent to start for most Fantasy teams.	52081392	1473278438094	1473278438190	l	76
100330	1094997	Chambers is still too inconsistent to start for most Fantasy teams.	Chambers is still too inconsistent to start for most Fantasy teams.	52081395	1473278438270	1473278438383	l	76
100330	1094997	Chambers is still too inconsistent to start for most Fantasy teams.	Chambers is still too inconsistent to start for most Fantasy teams.	52081399	1473278438479	1473278438654	 	32
100330	1094997	Chambers is still too inconsistent to start for most Fantasy teams.	Chambers is still too inconsistent to start for most Fantasy teams.	52081403	1473278439262	1473278439422	t	84
100330	1094997	Chambers is still too inconsistent to start for most Fantasy teams.	Chambers is still too inconsistent to start for most Fantasy teams.	52081406	1473278439614	1473278439742	i	73
100330	1094997	Chambers is still too inconsistent to start for most Fantasy teams.	Chambers is still too inconsistent to start for most Fantasy teams.	52081518	1473278440303	1473278440415	BKSP	8
100330	1094997	Chambers is still too inconsistent to start for most Fantasy teams.	Chambers is still too inconsistent to start for most Fantasy teams.	52081522	1473278440702	1473278440814	o	79
100330	1094997	Chambers is still too inconsistent to start for most Fantasy teams.	Chambers is still too inconsistent to start for most Fantasy teams.	52081525	1473278440894	1473278440990	o	79
100330	1094997	Chambers is still too inconsistent to start for most Fantasy teams.	Chambers is still too inconsistent to start for most Fantasy teams.	52081529	1473278441086	1473278441246	 	32
100330	1094997	Chambers is still too inconsistent to start for most Fantasy teams.	Chambers is still too inconsistent to start for most Fantasy teams.	52081533	1473278441838	1473278441950	i	73
100330	1094997	Chambers is still too inconsistent to start for most Fantasy teams.	Chambers is still too inconsistent to start for most Fantasy teams.	52081539	1473278442206	1473278442350	n	78
100330	1094997	Chambers is still too inconsistent to start for most Fantasy teams.	Chambers is still too inconsistent to start for most Fantasy teams.	52081674	1473278442574	1473278442750	c	67
100330	1094997	Chambers is still too inconsistent to start for most Fantasy teams.	Chambers is still too inconsistent to start for most Fantasy teams.	52081677	1473278442846	1473278442990	o	79
100330	1094997	Chambers is still too inconsistent to start for most Fantasy teams.	Chambers is still too inconsistent to start for most Fantasy teams.	52081679	1473278443406	1473278443582	n	78
100330	1094997	Chambers is still too inconsistent to start for most Fantasy teams.	Chambers is still too inconsistent to start for most Fantasy teams.	52081681	1473278443726	1473278443934	s	83
100330	1094997	Chambers is still too inconsistent to start for most Fantasy teams.	Chambers is still too inconsistent to start for most Fantasy teams.	52081684	1473278444958	1473278445086	i	73
100330	1094997	Chambers is still too inconsistent to start for most Fantasy teams.	Chambers is still too inconsistent to start for most Fantasy teams.	52081781	1473278445070	1473278445230	s	83
100330	1094997	Chambers is still too inconsistent to start for most Fantasy teams.	Chambers is still too inconsistent to start for most Fantasy teams.	52081784	1473278445678	1473278445822	t	84
100330	1094997	Chambers is still too inconsistent to start for most Fantasy teams.	Chambers is still too inconsistent to start for most Fantasy teams.	52081789	1473278446014	1473278446191	e	69
100330	1094997	Chambers is still too inconsistent to start for most Fantasy teams.	Chambers is still too inconsistent to start for most Fantasy teams.	52081793	1473278446398	1473278446558	n	78
100330	1094997	Chambers is still too inconsistent to start for most Fantasy teams.	Chambers is still too inconsistent to start for most Fantasy teams.	52081797	1473278446686	1473278446830	t	84
100330	1094997	Chambers is still too inconsistent to start for most Fantasy teams.	Chambers is still too inconsistent to start for most Fantasy teams.	52081800	1473278447086	1473278447279	 	32
100330	1094997	Chambers is still too inconsistent to start for most Fantasy teams.	Chambers is still too inconsistent to start for most Fantasy teams.	52081891	1473278447871	1473278448014	t	84
100330	1094997	Chambers is still too inconsistent to start for most Fantasy teams.	Chambers is still too inconsistent to start for most Fantasy teams.	52081893	1473278448127	1473278448286	o	79
100330	1094997	Chambers is still too inconsistent to start for most Fantasy teams.	Chambers is still too inconsistent to start for most Fantasy teams.	52081895	1473278448302	1473278448478	 	32
100330	1094997	Chambers is still too inconsistent to start for most Fantasy teams.	Chambers is still too inconsistent to start for most Fantasy teams.	52081898	1473278449278	1473278449422	s	83
100330	1094997	Chambers is still too inconsistent to start for most Fantasy teams.	Chambers is still too inconsistent to start for most Fantasy teams.	52081902	1473278449726	1473278449854	t	84
100330	1094997	Chambers is still too inconsistent to start for most Fantasy teams.	Chambers is still too inconsistent to start for most Fantasy teams.	52082027	1473278450110	1473278450254	a	65
100330	1094997	Chambers is still too inconsistent to start for most Fantasy teams.	Chambers is still too inconsistent to start for most Fantasy teams.	52082030	1473278450462	1473278450590	r	82
100330	1094997	Chambers is still too inconsistent to start for most Fantasy teams.	Chambers is still too inconsistent to start for most Fantasy teams.	52082037	1473278450894	1473278451054	t	84
100330	1094997	Chambers is still too inconsistent to start for most Fantasy teams.	Chambers is still too inconsistent to start for most Fantasy teams.	52082041	1473278451294	1473278451486	 	32
100330	1094997	Chambers is still too inconsistent to start for most Fantasy teams.	Chambers is still too inconsistent to start for most Fantasy teams.	52082046	1473278452030	1473278452206	f	70
100330	1094997	Chambers is still too inconsistent to start for most Fantasy teams.	Chambers is still too inconsistent to start for most Fantasy teams.	52082163	1473278452382	1473278452526	o	79
100330	1094997	Chambers is still too inconsistent to start for most Fantasy teams.	Chambers is still too inconsistent to start for most Fantasy teams.	52082167	1473278452686	1473278452846	r	82
100330	1094997	Chambers is still too inconsistent to start for most Fantasy teams.	Chambers is still too inconsistent to start for most Fantasy teams.	52082170	1473278452974	1473278453150	 	32
100330	1094997	Chambers is still too inconsistent to start for most Fantasy teams.	Chambers is still too inconsistent to start for most Fantasy teams.	52082173	1473278453774	1473278453902	m	77
100330	1094997	Chambers is still too inconsistent to start for most Fantasy teams.	Chambers is still too inconsistent to start for most Fantasy teams.	52082175	1473278454062	1473278454223	o	79
100330	1094997	Chambers is still too inconsistent to start for most Fantasy teams.	Chambers is still too inconsistent to start for most Fantasy teams.	52082339	1473278454335	1473278454510	s	83
100330	1094997	Chambers is still too inconsistent to start for most Fantasy teams.	Chambers is still too inconsistent to start for most Fantasy teams.	52082342	1473278455038	1473278455166	t	84
100330	1094997	Chambers is still too inconsistent to start for most Fantasy teams.	Chambers is still too inconsistent to start for most Fantasy teams.	52082347	1473278455343	1473278455534	 	32
100330	1094997	Chambers is still too inconsistent to start for most Fantasy teams.	Chambers is still too inconsistent to start for most Fantasy teams.	52082359	1473278456302	1473278456910	SHIFT	16
100330	1094997	Chambers is still too inconsistent to start for most Fantasy teams.	Chambers is still too inconsistent to start for most Fantasy teams.	52082351	1473278456654	1473278456830	F	70
100330	1094997	Chambers is still too inconsistent to start for most Fantasy teams.	Chambers is still too inconsistent to start for most Fantasy teams.	52082367	1473278457502	1473278457758	a	65
100330	1094997	Chambers is still too inconsistent to start for most Fantasy teams.	Chambers is still too inconsistent to start for most Fantasy teams.	52082485	1473278457918	1473278458046	b	66
100330	1094997	Chambers is still too inconsistent to start for most Fantasy teams.	Chambers is still too inconsistent to start for most Fantasy teams.	52082486	1473278459038	1473278459182	BKSP	8
100330	1094997	Chambers is still too inconsistent to start for most Fantasy teams.	Chambers is still too inconsistent to start for most Fantasy teams.	52082488	1473278459470	1473278459630	n	78
100330	1094997	Chambers is still too inconsistent to start for most Fantasy teams.	Chambers is still too inconsistent to start for most Fantasy teams.	52082492	1473278459726	1473278459854	t	84
100330	1094997	Chambers is still too inconsistent to start for most Fantasy teams.	Chambers is still too inconsistent to start for most Fantasy teams.	52082495	1473278460142	1473278460302	a	65
100330	1094997	Chambers is still too inconsistent to start for most Fantasy teams.	Chambers is still too inconsistent to start for most Fantasy teams.	52082499	1473278460414	1473278460558	s	83
100330	1094997	Chambers is still too inconsistent to start for most Fantasy teams.	Chambers is still too inconsistent to start for most Fantasy teams.	52082683	1473278460846	1473278460989	y	89
100330	1094997	Chambers is still too inconsistent to start for most Fantasy teams.	Chambers is still too inconsistent to start for most Fantasy teams.	52082685	1473278461118	1473278461278	 	32
100330	1094997	Chambers is still too inconsistent to start for most Fantasy teams.	Chambers is still too inconsistent to start for most Fantasy teams.	52082690	1473278462366	1473278462526	t	84
100330	1094997	Chambers is still too inconsistent to start for most Fantasy teams.	Chambers is still too inconsistent to start for most Fantasy teams.	52082694	1473278462798	1473278462925	e	69
100330	1094997	Chambers is still too inconsistent to start for most Fantasy teams.	Chambers is still too inconsistent to start for most Fantasy teams.	52082697	1473278463230	1473278463437	a	65
100330	1094997	Chambers is still too inconsistent to start for most Fantasy teams.	Chambers is still too inconsistent to start for most Fantasy teams.	52082910	1473278466349	1473278466525	m	77
100330	1094997	Chambers is still too inconsistent to start for most Fantasy teams.	Chambers is still too inconsistent to start for most Fantasy teams.	52082913	1473278467181	1473278467341	s	83
100330	1094997	Chambers is still too inconsistent to start for most Fantasy teams.	Chambers is still too inconsistent to start for most Fantasy teams.	52082919	1473278468445	1473278468557	.	190
100330	1095040	I left a message.	i left a message.	52083195	1473278471853	1473278472141	SHIFT	16
100330	1095040	I left a message.	i left a message.	52083200	1473278472157	1473278472285	i	73
100330	1095040	I left a message.	i left a message.	52083204	1473278472573	1473278472701	l	76
100330	1095040	I left a message.	i left a message.	52083209	1473278473213	1473278473390	BKSP	8
100330	1095040	I left a message.	i left a message.	52083213	1473278473501	1473278473677	 	32
100330	1095040	I left a message.	i left a message.	52083216	1473278474125	1473278474253	l	76
100330	1095040	I left a message.	i left a message.	52083221	1473278474413	1473278474557	e	69
100330	1095040	I left a message.	i left a message.	52083307	1473278475021	1473278475149	f	70
100330	1095040	I left a message.	i left a message.	52083313	1473278475437	1473278475597	t	84
100330	1095040	I left a message.	i left a message.	52083323	1473278475677	1473278475885	 	32
100330	1095040	I left a message.	i left a message.	52083331	1473278476061	1473278476221	a	65
100330	1095040	I left a message.	i left a message.	52083339	1473278476253	1473278476413	 	32
100330	1095040	I left a message.	i left a message.	52083420	1473278476829	1473278476989	m	77
100330	1095040	I left a message.	i left a message.	52083424	1473278477069	1473278477197	e	69
100330	1095040	I left a message.	i left a message.	52083429	1473278477597	1473278477725	s	83
100330	1095040	I left a message.	i left a message.	52083436	1473278477805	1473278477917	s	83
100330	1095040	I left a message.	i left a message.	52083442	1473278478061	1473278478205	a	65
100330	1095040	I left a message.	i left a message.	52083620	1473278478557	1473278478685	g	71
100330	1095040	I left a message.	i left a message.	52083624	1473278478781	1473278478941	e	69
100330	1095040	I left a message.	i left a message.	52083629	1473278479981	1473278480109	.	190
100330	1095040	I left a message.	i left a message.	52083633	1473278480461	1473278480653	 	32
100330	1095040	I left a message.	i left a message.	52083636	1473278481437	1473278481533	BKSP	8
100330	1095055	How is it going?	How is it going?	52083859	1473278485581	1473278486493	SHIFT	16
100330	1095055	How is it going?	How is it going?	52083861	1473278486397	1473278486525	H	72
100330	1095055	How is it going?	How is it going?	52083862	1473278486765	1473278486893	o	79
100330	1095055	How is it going?	How is it going?	52083863	1473278487117	1473278487278	w	87
100330	1095055	How is it going?	How is it going?	52083864	1473278487325	1473278487501	 	32
100330	1095055	How is it going?	How is it going?	52083866	1473278488141	1473278488269	i	73
100330	1095055	How is it going?	How is it going?	52083925	1473278488509	1473278488685	s	83
100330	1095055	How is it going?	How is it going?	52083929	1473278488845	1473278488989	 	32
100330	1095055	How is it going?	How is it going?	52083932	1473278489197	1473278489325	i	73
100330	1095055	How is it going?	How is it going?	52083936	1473278489389	1473278489533	t	84
100330	1095055	How is it going?	How is it going?	52083941	1473278489613	1473278489789	 	32
100330	1095055	How is it going?	How is it going?	52084175	1473278490765	1473278490877	g	71
100330	1095055	How is it going?	How is it going?	52084181	1473278491133	1473278491261	o	79
100330	1095055	How is it going?	How is it going?	52084185	1473278491437	1473278491517	i	85
100330	1095055	How is it going?	How is it going?	52084189	1473278492781	1473278492893	BKSP	8
100330	1095055	How is it going?	How is it going?	52084194	1473278492989	1473278493085	BKSP	8
100330	1095055	How is it going?	How is it going?	52084201	1473278493805	1473278493933	i	73
100330	1095055	How is it going?	How is it going?	52084352	1473278494237	1473278494381	n	78
100330	1095055	How is it going?	How is it going?	52084354	1473278495069	1473278495229	g	71
100330	1095055	How is it going?	How is it going?	52084355	1473278495549	1473278496285	SHIFT	16
100330	1095055	How is it going?	How is it going?	52084356	1473278496173	1473278496301	?	191
100330	1095070	See the list below.	See the list below.	52084621	1473278499997	1473278500477	SHIFT	16
100330	1095070	See the list below.	See the list below.	52084625	1473278500317	1473278500509	S	83
100330	1095070	See the list below.	See the list below.	52084628	1473278500701	1473278500829	e	69
100330	1095070	See the list below.	See the list below.	52084630	1473278500909	1473278501053	e	69
100330	1095070	See the list below.	See the list below.	52084634	1473278501165	1473278501373	 	32
100330	1095070	See the list below.	See the list below.	52084637	1473278501789	1473278501917	t	84
100330	1095070	See the list below.	See the list below.	52084733	1473278501965	1473278502141	h	72
100330	1095070	See the list below.	See the list below.	52084737	1473278502221	1473278502365	e	69
100330	1095070	See the list below.	See the list below.	52084741	1473278502445	1473278502637	 	32
100330	1095070	See the list below.	See the list below.	52084745	1473278502957	1473278503245	SHIFT	16
100330	1095070	See the list below.	See the list below.	52084749	1473278503533	1473278503661	l	76
100330	1095070	See the list below.	See the list below.	52084754	1473278503805	1473278503949	i	73
100330	1095070	See the list below.	See the list below.	52084855	1473278504109	1473278504253	s	83
100330	1095070	See the list below.	See the list below.	52084860	1473278504525	1473278504669	t	84
100330	1095070	See the list below.	See the list below.	52084865	1473278504781	1473278504924	 	32
100330	1095070	See the list below.	See the list below.	52084869	1473278505645	1473278505789	b	66
100330	1095070	See the list below.	See the list below.	52084873	1473278505901	1473278506061	e	69
100330	1095070	See the list below.	See the list below.	52084951	1473278506301	1473278506429	l	76
100330	1095070	See the list below.	See the list below.	52084954	1473278506573	1473278506701	o	79
100330	1095070	See the list below.	See the list below.	52084957	1473278507005	1473278507117	w	87
100330	1095070	See the list below.	See the list below.	52084960	1473278507485	1473278507597	.	190
100330	1095085	The injury is more serious than the Panthers first expected.	The injury is more serious than the panthers first expected.	52085212	1473278510892	1473278511597	SHIFT	16
100330	1095085	The injury is more serious than the Panthers first expected.	The injury is more serious than the panthers first expected.	52085209	1473278511389	1473278511501	T	84
100330	1095085	The injury is more serious than the Panthers first expected.	The injury is more serious than the panthers first expected.	52085215	1473278511645	1473278511788	h	72
100330	1095085	The injury is more serious than the Panthers first expected.	The injury is more serious than the panthers first expected.	52085220	1473278511885	1473278512044	e	69
100330	1095085	The injury is more serious than the Panthers first expected.	The injury is more serious than the panthers first expected.	52085224	1473278512076	1473278512220	 	32
100330	1095085	The injury is more serious than the Panthers first expected.	The injury is more serious than the panthers first expected.	52085228	1473278512765	1473278512876	i	73
100330	1095085	The injury is more serious than the Panthers first expected.	The injury is more serious than the panthers first expected.	52085335	1473278513276	1473278513420	n	78
100330	1095085	The injury is more serious than the Panthers first expected.	The injury is more serious than the panthers first expected.	52085339	1473278513885	1473278514029	j	74
100330	1095085	The injury is more serious than the Panthers first expected.	The injury is more serious than the panthers first expected.	52085342	1473278514189	1473278514316	u	85
100330	1095085	The injury is more serious than the Panthers first expected.	The injury is more serious than the panthers first expected.	52085347	1473278514493	1473278514637	r	82
100330	1095085	The injury is more serious than the Panthers first expected.	The injury is more serious than the panthers first expected.	52085352	1473278514941	1473278515101	y	89
100330	1095085	The injury is more serious than the Panthers first expected.	The injury is more serious than the panthers first expected.	52085451	1473278515325	1473278515532	 	32
100330	1095085	The injury is more serious than the Panthers first expected.	The injury is more serious than the panthers first expected.	52085456	1473278516572	1473278516684	i	73
100330	1095085	The injury is more serious than the Panthers first expected.	The injury is more serious than the panthers first expected.	52085458	1473278516797	1473278516941	s	83
100330	1095085	The injury is more serious than the Panthers first expected.	The injury is more serious than the panthers first expected.	52085462	1473278516956	1473278517085	 	32
100330	1095085	The injury is more serious than the Panthers first expected.	The injury is more serious than the panthers first expected.	52085468	1473278517549	1473278517660	m	77
100330	1095085	The injury is more serious than the Panthers first expected.	The injury is more serious than the panthers first expected.	52085549	1473278517836	1473278517980	o	79
100330	1095085	The injury is more serious than the Panthers first expected.	The injury is more serious than the panthers first expected.	52085551	1473278518173	1473278518269	r	82
100330	1095085	The injury is more serious than the Panthers first expected.	The injury is more serious than the panthers first expected.	52085552	1473278518397	1473278518556	e	69
100330	1095085	The injury is more serious than the Panthers first expected.	The injury is more serious than the panthers first expected.	52085553	1473278518591	1473278518780	 	32
100330	1095085	The injury is more serious than the Panthers first expected.	The injury is more serious than the panthers first expected.	52085555	1473278519597	1473278519660	s	83
100330	1095085	The injury is more serious than the Panthers first expected.	The injury is more serious than the panthers first expected.	52085623	1473278519820	1473278519980	e	69
100330	1095085	The injury is more serious than the Panthers first expected.	The injury is more serious than the panthers first expected.	52085626	1473278520156	1473278520316	r	82
100330	1095085	The injury is more serious than the Panthers first expected.	The injury is more serious than the panthers first expected.	52085629	1473278520476	1473278520636	o	79
100330	1095085	The injury is more serious than the Panthers first expected.	The injury is more serious than the panthers first expected.	52085632	1473278521197	1473278521345	BKSP	8
100330	1095085	The injury is more serious than the Panthers first expected.	The injury is more serious than the panthers first expected.	52085635	1473278521612	1473278521725	i	73
100330	1095085	The injury is more serious than the Panthers first expected.	The injury is more serious than the panthers first expected.	52085639	1473278521836	1473278521964	o	79
100330	1095085	The injury is more serious than the Panthers first expected.	The injury is more serious than the panthers first expected.	52085726	1473278522173	1473278522301	u	85
100330	1095085	The injury is more serious than the Panthers first expected.	The injury is more serious than the panthers first expected.	52085729	1473278522412	1473278522508	s	83
100330	1095085	The injury is more serious than the Panthers first expected.	The injury is more serious than the panthers first expected.	52085733	1473278522908	1473278523085	 	32
100330	1095085	The injury is more serious than the Panthers first expected.	The injury is more serious than the panthers first expected.	52085737	1473278523564	1473278523708	t	84
100330	1095085	The injury is more serious than the Panthers first expected.	The injury is more serious than the panthers first expected.	52085743	1473278523756	1473278523900	h	72
100330	1095085	The injury is more serious than the Panthers first expected.	The injury is more serious than the panthers first expected.	52085828	1473278523996	1473278524156	a	65
100330	1095085	The injury is more serious than the Panthers first expected.	The injury is more serious than the panthers first expected.	52085830	1473278524252	1473278524396	n	78
100330	1095085	The injury is more serious than the Panthers first expected.	The injury is more serious than the panthers first expected.	52085832	1473278524444	1473278524604	 	32
100330	1095085	The injury is more serious than the Panthers first expected.	The injury is more serious than the panthers first expected.	52085835	1473278524796	1473278524956	t	84
100330	1095085	The injury is more serious than the Panthers first expected.	The injury is more serious than the panthers first expected.	52085838	1473278524988	1473278525132	h	72
100330	1095085	The injury is more serious than the Panthers first expected.	The injury is more serious than the panthers first expected.	52085930	1473278525134	1473278525324	e	69
100330	1095085	The injury is more serious than the Panthers first expected.	The injury is more serious than the panthers first expected.	52085934	1473278525404	1473278525596	 	32
100330	1095085	The injury is more serious than the Panthers first expected.	The injury is more serious than the panthers first expected.	52085938	1473278526317	1473278526444	p	80
100330	1095085	The injury is more serious than the Panthers first expected.	The injury is more serious than the panthers first expected.	52085942	1473278526556	1473278526700	a	65
100330	1095085	The injury is more serious than the Panthers first expected.	The injury is more serious than the panthers first expected.	52085945	1473278526892	1473278527052	n	78
100330	1095085	The injury is more serious than the Panthers first expected.	The injury is more serious than the panthers first expected.	52086072	1473278527292	1473278527484	t	84
100330	1095085	The injury is more serious than the Panthers first expected.	The injury is more serious than the panthers first expected.	52086077	1473278528508	1473278528652	h	72
100330	1095085	The injury is more serious than the Panthers first expected.	The injury is more serious than the panthers first expected.	52086079	1473278528796	1473278528924	e	69
100330	1095085	The injury is more serious than the Panthers first expected.	The injury is more serious than the panthers first expected.	52086083	1473278529052	1473278529181	r	82
100330	1095085	The injury is more serious than the Panthers first expected.	The injury is more serious than the panthers first expected.	52086085	1473278529421	1473278529581	s	83
100330	1095085	The injury is more serious than the Panthers first expected.	The injury is more serious than the panthers first expected.	52086181	1473278529868	1473278530013	 	32
100330	1095085	The injury is more serious than the Panthers first expected.	The injury is more serious than the panthers first expected.	52086186	1473278530604	1473278530732	f	70
100330	1095085	The injury is more serious than the Panthers first expected.	The injury is more serious than the panthers first expected.	52086190	1473278531084	1473278531228	i	73
100330	1095085	The injury is more serious than the Panthers first expected.	The injury is more serious than the panthers first expected.	52086194	1473278531485	1473278531628	r	82
100330	1095085	The injury is more serious than the Panthers first expected.	The injury is more serious than the panthers first expected.	52086198	1473278531884	1473278532044	s	83
100330	1095085	The injury is more serious than the Panthers first expected.	The injury is more serious than the panthers first expected.	52086304	1473278532284	1473278532429	t	84
100330	1095085	The injury is more serious than the Panthers first expected.	The injury is more serious than the panthers first expected.	52086308	1473278532573	1473278532748	 	32
100330	1095085	The injury is more serious than the Panthers first expected.	The injury is more serious than the panthers first expected.	52086319	1473278533309	1473278533484	e	69
100330	1095085	The injury is more serious than the Panthers first expected.	The injury is more serious than the panthers first expected.	52086325	1473278533980	1473278534156	x	88
100330	1095085	The injury is more serious than the Panthers first expected.	The injury is more serious than the panthers first expected.	52086330	1473278534748	1473278534892	p	80
100330	1095085	The injury is more serious than the Panthers first expected.	The injury is more serious than the panthers first expected.	52086430	1473278535036	1473278535197	e	69
100330	1095085	The injury is more serious than the Panthers first expected.	The injury is more serious than the panthers first expected.	52086436	1473278535453	1473278535644	c	67
100330	1095085	The injury is more serious than the Panthers first expected.	The injury is more serious than the panthers first expected.	52086440	1473278535916	1473278536044	t	84
100330	1095085	The injury is more serious than the Panthers first expected.	The injury is more serious than the panthers first expected.	52086441	1473278536156	1473278536300	e	69
100330	1095085	The injury is more serious than the Panthers first expected.	The injury is more serious than the panthers first expected.	52086443	1473278536444	1473278536636	d	68
100330	1095085	The injury is more serious than the Panthers first expected.	The injury is more serious than the panthers first expected.	52086529	1473278537740	1473278537836	.	190
