PARTICIPANT_ID	TEST_SECTION_ID	SENTENCE	USER_INPUT	KEYSTROKE_ID	PRESS_TIME	RELEASE_TIME	LETTER	KEYCODE
100329	1094582	If possible, I'd like to get Amy's opinion.	If possible, I'd like to get Amy's opinion. 	52062075	1473278124227	1473278124397	SHIFT	16
100329	1094582	If possible, I'd like to get Amy's opinion.	If possible, I'd like to get Amy's opinion. 	52062079	1473278124334	1473278124445		73
100329	1094582	If possible, I'd like to get Amy's opinion.	If possible, I'd like to get Amy's opinion. 	52062083	1473278124605	1473278124717		70
100329	1094582	If possible, I'd like to get Amy's opinion.	If possible, I'd like to get Amy's opinion. 	52062087	1473278124670	1473278124782		32
100329	1094582	If possible, I'd like to get Amy's opinion.	If possible, I'd like to get Amy's opinion. 	52062091	1473278124829	1473278124957	SHIFT	16
100329	1094582	If possible, I'd like to get Amy's opinion.	If possible, I'd like to get Amy's opinion. 	52062097	1473278124958	1473278125085		80
100329	1094582	If possible, I'd like to get Amy's opinion.	If possible, I'd like to get Amy's opinion. 	52062105	1473278125101	1473278125196		79
100329	1094582	If possible, I'd like to get Amy's opinion.	If possible, I'd like to get Amy's opinion. 	52062194	1473278125629	1473278125709		83
100329	1094582	If possible, I'd like to get Amy's opinion.	If possible, I'd like to get Amy's opinion. 	52062195	1473278125805	1473278125932		83
100329	1094582	If possible, I'd like to get Amy's opinion.	If possible, I'd like to get Amy's opinion. 	52062198	1473278126044	1473278126156		73
100329	1094582	If possible, I'd like to get Amy's opinion.	If possible, I'd like to get Amy's opinion. 	52062201	1473278126590	1473278126700		76
100329	1094582	If possible, I'd like to get Amy's opinion.	If possible, I'd like to get Amy's opinion. 	52062203	1473278126732	1473278126812		66
100329	1094582	If possible, I'd like to get Amy's opinion.	If possible, I'd like to get Amy's opinion. 	52062263	1473278126909	1473278127036		69
100329	1094582	If possible, I'd like to get Amy's opinion.	If possible, I'd like to get Amy's opinion. 	52062268	1473278127212	1473278127276		8
100329	1094582	If possible, I'd like to get Amy's opinion.	If possible, I'd like to get Amy's opinion. 	52062274	1473278127324	1473278127403		8
100329	1094582	If possible, I'd like to get Amy's opinion.	If possible, I'd like to get Amy's opinion. 	52062278	1473278127468	1473278127548		8
100329	1094582	If possible, I'd like to get Amy's opinion.	If possible, I'd like to get Amy's opinion. 	52062283	1473278127628	1473278127724		66
100329	1094582	If possible, I'd like to get Amy's opinion.	If possible, I'd like to get Amy's opinion. 	52062380	1473278127997	1473278128109		76
100329	1094582	If possible, I'd like to get Amy's opinion.	If possible, I'd like to get Amy's opinion. 	52062384	1473278128141	1473278128255		69
100329	1094582	If possible, I'd like to get Amy's opinion.	If possible, I'd like to get Amy's opinion. 	52062387	1473278129085	1473278129180		188
100329	1094582	If possible, I'd like to get Amy's opinion.	If possible, I'd like to get Amy's opinion. 	52062392	1473278129181	1473278129260		32
100329	1094582	If possible, I'd like to get Amy's opinion.	If possible, I'd like to get Amy's opinion. 	52062396	1473278129388	1473278129516	SHIFT	16
100329	1094582	If possible, I'd like to get Amy's opinion.	If possible, I'd like to get Amy's opinion. 	52062439	1473278129452	1473278129548		73
100329	1094582	If possible, I'd like to get Amy's opinion.	If possible, I'd like to get Amy's opinion. 	52062441	1473278130124	1473278130313		222
100329	1094582	If possible, I'd like to get Amy's opinion.	If possible, I'd like to get Amy's opinion. 	52062443	1473278130315	1473278130364		83
100329	1094582	If possible, I'd like to get Amy's opinion.	If possible, I'd like to get Amy's opinion. 	52062445	1473278130366	1473278130477		32
100329	1094582	If possible, I'd like to get Amy's opinion.	If possible, I'd like to get Amy's opinion. 	52062448	1473278130666	1473278130716		76
100329	1094582	If possible, I'd like to get Amy's opinion.	If possible, I'd like to get Amy's opinion. 	52062478	1473278130861	1473278130947		73
100329	1094582	If possible, I'd like to get Amy's opinion.	If possible, I'd like to get Amy's opinion. 	52062480	1473278131087	1473278131088		75
100329	1094582	If possible, I'd like to get Amy's opinion.	If possible, I'd like to get Amy's opinion. 	52062484	1473278131368	1473278131404		8
100329	1094582	If possible, I'd like to get Amy's opinion.	If possible, I'd like to get Amy's opinion. 	52062488	1473278131468	1473278131531		8
100329	1094582	If possible, I'd like to get Amy's opinion.	If possible, I'd like to get Amy's opinion. 	52062492	1473278131597	1473278131660		8
100329	1094582	If possible, I'd like to get Amy's opinion.	If possible, I'd like to get Amy's opinion. 	52062537	1473278131764	1473278131788		8
100329	1094582	If possible, I'd like to get Amy's opinion.	If possible, I'd like to get Amy's opinion. 	52062541	1473278131852	1473278131919		8
100329	1094582	If possible, I'd like to get Amy's opinion.	If possible, I'd like to get Amy's opinion. 	52062547	1473278131998	1473278132108		8
100329	1094582	If possible, I'd like to get Amy's opinion.	If possible, I'd like to get Amy's opinion. 	52062550	1473278132302	1473278132380		68
100329	1094582	If possible, I'd like to get Amy's opinion.	If possible, I'd like to get Amy's opinion. 	52062552	1473278132381	1473278132539		32
100329	1094582	If possible, I'd like to get Amy's opinion.	If possible, I'd like to get Amy's opinion. 	52062584	1473278132856	1473278133036		76
100329	1094582	If possible, I'd like to get Amy's opinion.	If possible, I'd like to get Amy's opinion. 	52062586	1473278132972	1473278133084		73
100329	1094582	If possible, I'd like to get Amy's opinion.	If possible, I'd like to get Amy's opinion. 	52062588	1473278133277	1473278133416		75
100329	1094582	If possible, I'd like to get Amy's opinion.	If possible, I'd like to get Amy's opinion. 	52062589	1473278133436	1473278133532		69
100329	1094582	If possible, I'd like to get Amy's opinion.	If possible, I'd like to get Amy's opinion. 	52062591	1473278133548	1473278133644		32
100329	1094582	If possible, I'd like to get Amy's opinion.	If possible, I'd like to get Amy's opinion. 	52062678	1473278133628	1473278133755		84
100329	1094582	If possible, I'd like to get Amy's opinion.	If possible, I'd like to get Amy's opinion. 	52062682	1473278133740	1473278133820		79
100329	1094582	If possible, I'd like to get Amy's opinion.	If possible, I'd like to get Amy's opinion. 	52062683	1473278133884	1473278133996		32
100329	1094582	If possible, I'd like to get Amy's opinion.	If possible, I'd like to get Amy's opinion. 	52062685	1473278134716	1473278134828		71
100329	1094582	If possible, I'd like to get Amy's opinion.	If possible, I'd like to get Amy's opinion. 	52062688	1473278134988	1473278135084		69
100329	1094582	If possible, I'd like to get Amy's opinion.	If possible, I'd like to get Amy's opinion. 	52062690	1473278135116	1473278135228		84
100329	1094582	If possible, I'd like to get Amy's opinion.	If possible, I'd like to get Amy's opinion. 	52062790	1473278135213	1473278135309		32
100329	1094582	If possible, I'd like to get Amy's opinion.	If possible, I'd like to get Amy's opinion. 	52062792	1473278135404	1473278135579	SHIFT	16
100329	1094582	If possible, I'd like to get Amy's opinion.	If possible, I'd like to get Amy's opinion. 	52062793	1473278135549	1473278135676		65
100329	1094582	If possible, I'd like to get Amy's opinion.	If possible, I'd like to get Amy's opinion. 	52062795	1473278135727	1473278135803		77
100329	1094582	If possible, I'd like to get Amy's opinion.	If possible, I'd like to get Amy's opinion. 	52062799	1473278136061	1473278136172		89
100329	1094582	If possible, I'd like to get Amy's opinion.	If possible, I'd like to get Amy's opinion. 	52062803	1473278136925	1473278136988		222
100329	1094582	If possible, I'd like to get Amy's opinion.	If possible, I'd like to get Amy's opinion. 	52062807	1473278137116	1473278137212		83
100329	1094582	If possible, I'd like to get Amy's opinion.	If possible, I'd like to get Amy's opinion. 	52062903	1473278137197	1473278137309		32
100329	1094582	If possible, I'd like to get Amy's opinion.	If possible, I'd like to get Amy's opinion. 	52062907	1473278137835	1473278137997		79
100329	1094582	If possible, I'd like to get Amy's opinion.	If possible, I'd like to get Amy's opinion. 	52062912	1473278137999	1473278138075		80
100329	1094582	If possible, I'd like to get Amy's opinion.	If possible, I'd like to get Amy's opinion. 	52062916	1473278138940	1473278139052		73
100329	1094582	If possible, I'd like to get Amy's opinion.	If possible, I'd like to get Amy's opinion. 	52062920	1473278139388	1473278139468		78
100329	1094582	If possible, I'd like to get Amy's opinion.	If possible, I'd like to get Amy's opinion. 	52062922	1473278139772	1473278139932		73
100329	1094582	If possible, I'd like to get Amy's opinion.	If possible, I'd like to get Amy's opinion. 	52062974	1473278139868	1473278139981		79
100329	1094582	If possible, I'd like to get Amy's opinion.	If possible, I'd like to get Amy's opinion. 	52062975	1473278140092	1473278140156		78
100329	1094582	If possible, I'd like to get Amy's opinion.	If possible, I'd like to get Amy's opinion. 	52062978	1473278140650	1473278140667		190
100329	1094582	If possible, I'd like to get Amy's opinion.	If possible, I'd like to get Amy's opinion. 	52062983	1473278140699	1473278140763		32
100329	1094601	Neil has been asking around.	Miel has been asking around. 	52063171	1473278143260	1473278143420	SHIFT	16
100329	1094601	Neil has been asking around.	Miel has been asking around. 	52063173	1473278143372	1473278143516		77
100329	1094601	Neil has been asking around.	Miel has been asking around. 	52063181	1473278143868	1473278143980		73
100329	1094601	Neil has been asking around.	Miel has been asking around. 	52063187	1473278144076	1473278144172		69
100329	1094601	Neil has been asking around.	Miel has been asking around. 	52063194	1473278144220	1473278144332		76
100329	1094601	Neil has been asking around.	Miel has been asking around. 	52063199	1473278144333	1473278144428		32
100329	1094601	Neil has been asking around.	Miel has been asking around. 	52063240	1473278144860	1473278144955		72
100329	1094601	Neil has been asking around.	Miel has been asking around. 	52063245	1473278144988	1473278145115		65
100329	1094601	Neil has been asking around.	Miel has been asking around. 	52063250	1473278145083	1473278145179		83
100329	1094601	Neil has been asking around.	Miel has been asking around. 	52063254	1473278145180	1473278145259		32
100329	1094601	Neil has been asking around.	Miel has been asking around. 	52063258	1473278145403	1473278145467		66
100329	1094601	Neil has been asking around.	Miel has been asking around. 	52063339	1473278145596	1473278145659		69
100329	1094601	Neil has been asking around.	Miel has been asking around. 	52063341	1473278145739	1473278145835		69
100329	1094601	Neil has been asking around.	Miel has been asking around. 	52063343	1473278145883	1473278145980		78
100329	1094601	Neil has been asking around.	Miel has been asking around. 	52063344	1473278146300	1473278146444		32
100329	1094601	Neil has been asking around.	Miel has been asking around. 	52063346	1473278147036	1473278147147		65
100329	1094601	Neil has been asking around.	Miel has been asking around. 	52063363	1473278147158	1473278147276		83
100329	1094601	Neil has been asking around.	Miel has been asking around. 	52063366	1473278147326	1473278147404		75
100329	1094601	Neil has been asking around.	Miel has been asking around. 	52063368	1473278147484	1473278147628		73
100329	1094601	Neil has been asking around.	Miel has been asking around. 	52063370	1473278147580	1473278147676		78
100329	1094601	Neil has been asking around.	Miel has been asking around. 	52063373	1473278147677	1473278147755		71
100329	1094601	Neil has been asking around.	Miel has been asking around. 	52063408	1473278147739	1473278147820		32
100329	1094601	Neil has been asking around.	Miel has been asking around. 	52063409	1473278147932	1473278148028		65
100329	1094601	Neil has been asking around.	Miel has been asking around. 	52063410	1473278148046	1473278148156		82
100329	1094601	Neil has been asking around.	Miel has been asking around. 	52063413	1473278148157	1473278148299		79
100329	1094601	Neil has been asking around.	Miel has been asking around. 	52063416	1473278148251	1473278148315		85
100329	1094601	Neil has been asking around.	Miel has been asking around. 	52063419	1473278148428	1473278148492		78
100329	1094601	Neil has been asking around.	Miel has been asking around. 	52063433	1473278148524	1473278148620		68
100329	1094601	Neil has been asking around.	Miel has been asking around. 	52063439	1473278148702	1473278148796		190
100329	1094601	Neil has been asking around.	Miel has been asking around. 	52063443	1473278148828	1473278148907		32
100329	1094609	I'm pleased with my speeds.	I'm please with my speeds. 	52063592	1473278150974	1473278151147	SHIFT	16
100329	1094609	I'm pleased with my speeds.	I'm please with my speeds. 	52063597	1473278151068	1473278151163		73
100329	1094609	I'm pleased with my speeds.	I'm please with my speeds. 	52063601	1473278151324	1473278151436		77
100329	1094609	I'm pleased with my speeds.	I'm please with my speeds. 	52063605	1473278151851	1473278151979		32
100329	1094609	I'm pleased with my speeds.	I'm please with my speeds. 	52063608	1473278152284	1473278152316		8
100329	1094609	I'm pleased with my speeds.	I'm please with my speeds. 	52063613	1473278152380	1473278152492		8
100329	1094609	I'm pleased with my speeds.	I'm please with my speeds. 	52063667	1473278152764	1473278152844		222
100329	1094609	I'm pleased with my speeds.	I'm please with my speeds. 	52063672	1473278153100	1473278153163		77
100329	1094609	I'm pleased with my speeds.	I'm please with my speeds. 	52063678	1473278153260	1473278153371		32
100329	1094609	I'm pleased with my speeds.	I'm please with my speeds. 	52063681	1473278153435	1473278153596		80
100329	1094609	I'm pleased with my speeds.	I'm please with my speeds. 	52063711	1473278153548	1473278153659		76
100329	1094609	I'm pleased with my speeds.	I'm please with my speeds. 	52063712	1473278153740	1473278153787		69
100329	1094609	I'm pleased with my speeds.	I'm please with my speeds. 	52063713	1473278153884	1473278154012		65
100329	1094609	I'm pleased with my speeds.	I'm please with my speeds. 	52063714	1473278153979	1473278154043		83
100329	1094609	I'm pleased with my speeds.	I'm please with my speeds. 	52063715	1473278154156	1473278154267		69
100329	1094609	I'm pleased with my speeds.	I'm please with my speeds. 	52063717	1473278154299	1473278154492		32
100329	1094609	I'm pleased with my speeds.	I'm please with my speeds. 	52063750	1473278154556	1473278154655		87
100329	1094609	I'm pleased with my speeds.	I'm please with my speeds. 	52063753	1473278154636	1473278154795		73
100329	1094609	I'm pleased with my speeds.	I'm please with my speeds. 	52063758	1473278154732	1473278154811		84
100329	1094609	I'm pleased with my speeds.	I'm please with my speeds. 	52063762	1473278154812	1473278154907		72
100329	1094609	I'm pleased with my speeds.	I'm please with my speeds. 	52063765	1473278154972	1473278155115		32
100329	1094609	I'm pleased with my speeds.	I'm please with my speeds. 	52063818	1473278155211	1473278155324		77
100329	1094609	I'm pleased with my speeds.	I'm please with my speeds. 	52063822	1473278155372	1473278155501		89
100329	1094609	I'm pleased with my speeds.	I'm please with my speeds. 	52063825	1473278155485	1473278155610		32
100329	1094609	I'm pleased with my speeds.	I'm please with my speeds. 	52063829	1473278155880	1473278155946		83
100329	1094609	I'm pleased with my speeds.	I'm please with my speeds. 	52063832	1473278155979	1473278156107		80
100329	1094609	I'm pleased with my speeds.	I'm please with my speeds. 	52063872	1473278156129	1473278156171		69
100329	1094609	I'm pleased with my speeds.	I'm please with my speeds. 	52063874	1473278156235	1473278156363		69
100329	1094609	I'm pleased with my speeds.	I'm please with my speeds. 	52063876	1473278156763	1473278156875		68
100329	1094609	I'm pleased with my speeds.	I'm please with my speeds. 	52063882	1473278156876	1473278156955		83
100329	1094609	I'm pleased with my speeds.	I'm please with my speeds. 	52063887	1473278157100	1473278157179		190
100329	1094609	I'm pleased with my speeds.	I'm please with my speeds. 	52063879	1473278157195	1473278157275		32
100329	1094619	The rule was aimed at allowing low-budget teams to be competitive.	The rule was aimed at allowing low-budget teams to be competitive. 	52064024	1473278159083	1473278159276	SHIFT	16
100329	1094619	The rule was aimed at allowing low-budget teams to be competitive.	The rule was aimed at allowing low-budget teams to be competitive. 	52064025	1473278159243	1473278159387		84
100329	1094619	The rule was aimed at allowing low-budget teams to be competitive.	The rule was aimed at allowing low-budget teams to be competitive. 	52064026	1473278159404	1473278159516		72
100329	1094619	The rule was aimed at allowing low-budget teams to be competitive.	The rule was aimed at allowing low-budget teams to be competitive. 	52064028	1473278159516	1473278159627		69
100329	1094619	The rule was aimed at allowing low-budget teams to be competitive.	The rule was aimed at allowing low-budget teams to be competitive. 	52064031	1473278159596	1473278159740		32
100329	1094619	The rule was aimed at allowing low-budget teams to be competitive.	The rule was aimed at allowing low-budget teams to be competitive. 	52064035	1473278160267	1473278160362		82
100329	1094619	The rule was aimed at allowing low-budget teams to be competitive.	The rule was aimed at allowing low-budget teams to be competitive. 	52064073	1473278160475	1473278160539		85
100329	1094619	The rule was aimed at allowing low-budget teams to be competitive.	The rule was aimed at allowing low-budget teams to be competitive. 	52064079	1473278160668	1473278160765		76
100329	1094619	The rule was aimed at allowing low-budget teams to be competitive.	The rule was aimed at allowing low-budget teams to be competitive. 	52064086	1473278160766	1473278160859		69
100329	1094619	The rule was aimed at allowing low-budget teams to be competitive.	The rule was aimed at allowing low-budget teams to be competitive. 	52064091	1473278160859	1473278160956		32
100329	1094619	The rule was aimed at allowing low-budget teams to be competitive.	The rule was aimed at allowing low-budget teams to be competitive. 	52064094	1473278161019	1473278161083		87
100329	1094619	The rule was aimed at allowing low-budget teams to be competitive.	The rule was aimed at allowing low-budget teams to be competitive. 	52064121	1473278161227	1473278161339		65
100329	1094619	The rule was aimed at allowing low-budget teams to be competitive.	The rule was aimed at allowing low-budget teams to be competitive. 	52064123	1473278161278	1473278161420		83
100329	1094619	The rule was aimed at allowing low-budget teams to be competitive.	The rule was aimed at allowing low-budget teams to be competitive. 	52064126	1473278161421	1473278161515		32
100329	1094619	The rule was aimed at allowing low-budget teams to be competitive.	The rule was aimed at allowing low-budget teams to be competitive. 	52064128	1473278161739	1473278161851		65
100329	1094619	The rule was aimed at allowing low-budget teams to be competitive.	The rule was aimed at allowing low-budget teams to be competitive. 	52064131	1473278162125	1473278162203		73
100329	1094619	The rule was aimed at allowing low-budget teams to be competitive.	The rule was aimed at allowing low-budget teams to be competitive. 	52064194	1473278162363	1473278162459		77
100329	1094619	The rule was aimed at allowing low-budget teams to be competitive.	The rule was aimed at allowing low-budget teams to be competitive. 	52064195	1473278162475	1473278162555		69
100329	1094619	The rule was aimed at allowing low-budget teams to be competitive.	The rule was aimed at allowing low-budget teams to be competitive. 	52064196	1473278162683	1473278162827		68
100329	1094619	The rule was aimed at allowing low-budget teams to be competitive.	The rule was aimed at allowing low-budget teams to be competitive. 	52064197	1473278162779	1473278162922		32
100329	1094619	The rule was aimed at allowing low-budget teams to be competitive.	The rule was aimed at allowing low-budget teams to be competitive. 	52064198	1473278163259	1473278163375		65
100329	1094619	The rule was aimed at allowing low-budget teams to be competitive.	The rule was aimed at allowing low-budget teams to be competitive. 	52064260	1473278163611	1473278163723		84
100329	1094619	The rule was aimed at allowing low-budget teams to be competitive.	The rule was aimed at allowing low-budget teams to be competitive. 	52064261	1473278163723	1473278163883		32
100329	1094619	The rule was aimed at allowing low-budget teams to be competitive.	The rule was aimed at allowing low-budget teams to be competitive. 	52064262	1473278164235	1473278164331		65
100329	1094619	The rule was aimed at allowing low-budget teams to be competitive.	The rule was aimed at allowing low-budget teams to be competitive. 	52064264	1473278164363	1473278164475		76
100329	1094619	The rule was aimed at allowing low-budget teams to be competitive.	The rule was aimed at allowing low-budget teams to be competitive. 	52064266	1473278164555	1473278164622		76
100329	1094619	The rule was aimed at allowing low-budget teams to be competitive.	The rule was aimed at allowing low-budget teams to be competitive. 	52064332	1473278164715	1473278164795		79
100329	1094619	The rule was aimed at allowing low-budget teams to be competitive.	The rule was aimed at allowing low-budget teams to be competitive. 	52064335	1473278164811	1473278164891		87
100329	1094619	The rule was aimed at allowing low-budget teams to be competitive.	The rule was aimed at allowing low-budget teams to be competitive. 	52064340	1473278165499	1473278165579		87
100329	1094619	The rule was aimed at allowing low-budget teams to be competitive.	The rule was aimed at allowing low-budget teams to be competitive. 	52064344	1473278165611	1473278165770		73
100329	1094619	The rule was aimed at allowing low-budget teams to be competitive.	The rule was aimed at allowing low-budget teams to be competitive. 	52064378	1473278165724	1473278165835		78
100329	1094619	The rule was aimed at allowing low-budget teams to be competitive.	The rule was aimed at allowing low-budget teams to be competitive. 	52064381	1473278165836	1473278165947		71
100329	1094619	The rule was aimed at allowing low-budget teams to be competitive.	The rule was aimed at allowing low-budget teams to be competitive. 	52064386	1473278165963	1473278166091		32
100329	1094619	The rule was aimed at allowing low-budget teams to be competitive.	The rule was aimed at allowing low-budget teams to be competitive. 	52064391	1473278166283	1473278166347		8
100329	1094619	The rule was aimed at allowing low-budget teams to be competitive.	The rule was aimed at allowing low-budget teams to be competitive. 	52064396	1473278166412	1473278166459		8
100329	1094619	The rule was aimed at allowing low-budget teams to be competitive.	The rule was aimed at allowing low-budget teams to be competitive. 	52064401	1473278166523	1473278166571		8
100329	1094619	The rule was aimed at allowing low-budget teams to be competitive.	The rule was aimed at allowing low-budget teams to be competitive. 	52064431	1473278166651	1473278166683		8
100329	1094619	The rule was aimed at allowing low-budget teams to be competitive.	The rule was aimed at allowing low-budget teams to be competitive. 	52064432	1473278166747	1473278166811		8
100329	1094619	The rule was aimed at allowing low-budget teams to be competitive.	The rule was aimed at allowing low-budget teams to be competitive. 	52064435	1473278166971	1473278167147		73
100329	1094619	The rule was aimed at allowing low-budget teams to be competitive.	The rule was aimed at allowing low-budget teams to be competitive. 	52064438	1473278167147	1473278167226		78
100329	1094619	The rule was aimed at allowing low-budget teams to be competitive.	The rule was aimed at allowing low-budget teams to be competitive. 	52064443	1473278167307	1473278167403		71
100329	1094619	The rule was aimed at allowing low-budget teams to be competitive.	The rule was aimed at allowing low-budget teams to be competitive. 	52064516	1473278167387	1473278167516		32
100329	1094619	The rule was aimed at allowing low-budget teams to be competitive.	The rule was aimed at allowing low-budget teams to be competitive. 	52064520	1473278168091	1473278168187		76
100329	1094619	The rule was aimed at allowing low-budget teams to be competitive.	The rule was aimed at allowing low-budget teams to be competitive. 	52064525	1473278168283	1473278168363		79
100329	1094619	The rule was aimed at allowing low-budget teams to be competitive.	The rule was aimed at allowing low-budget teams to be competitive. 	52064528	1473278168651	1473278168779		87
100329	1094619	The rule was aimed at allowing low-budget teams to be competitive.	The rule was aimed at allowing low-budget teams to be competitive. 	52064532	1473278168955	1473278169035		173
100329	1094619	The rule was aimed at allowing low-budget teams to be competitive.	The rule was aimed at allowing low-budget teams to be competitive. 	52064536	1473278169275	1473278169323		66
100329	1094619	The rule was aimed at allowing low-budget teams to be competitive.	The rule was aimed at allowing low-budget teams to be competitive. 	52064596	1473278169435	1473278169531		85
100329	1094619	The rule was aimed at allowing low-budget teams to be competitive.	The rule was aimed at allowing low-budget teams to be competitive. 	52064598	1473278169723	1473278169819		68
100329	1094619	The rule was aimed at allowing low-budget teams to be competitive.	The rule was aimed at allowing low-budget teams to be competitive. 	52064601	1473278169995	1473278170091		71
100329	1094619	The rule was aimed at allowing low-budget teams to be competitive.	The rule was aimed at allowing low-budget teams to be competitive. 	52064602	1473278170219	1473278170287		69
100329	1094619	The rule was aimed at allowing low-budget teams to be competitive.	The rule was aimed at allowing low-budget teams to be competitive. 	52064603	1473278170587	1473278170715		84
100329	1094619	The rule was aimed at allowing low-budget teams to be competitive.	The rule was aimed at allowing low-budget teams to be competitive. 	52064665	1473278170795	1473278170939		32
100329	1094619	The rule was aimed at allowing low-budget teams to be competitive.	The rule was aimed at allowing low-budget teams to be competitive. 	52064667	1473278171117	1473278171130		84
100329	1094619	The rule was aimed at allowing low-budget teams to be competitive.	The rule was aimed at allowing low-budget teams to be competitive. 	52064670	1473278171771	1473278171851		69
100329	1094619	The rule was aimed at allowing low-budget teams to be competitive.	The rule was aimed at allowing low-budget teams to be competitive. 	52064674	1473278171947	1473278172043		65
100329	1094619	The rule was aimed at allowing low-budget teams to be competitive.	The rule was aimed at allowing low-budget teams to be competitive. 	52064676	1473278172075	1473278172173		77
100329	1094619	The rule was aimed at allowing low-budget teams to be competitive.	The rule was aimed at allowing low-budget teams to be competitive. 	52064720	1473278172235	1473278172331		83
100329	1094619	The rule was aimed at allowing low-budget teams to be competitive.	The rule was aimed at allowing low-budget teams to be competitive. 	52064723	1473278172347	1473278172427		32
100329	1094619	The rule was aimed at allowing low-budget teams to be competitive.	The rule was aimed at allowing low-budget teams to be competitive. 	52064724	1473278172763	1473278172891		84
100329	1094619	The rule was aimed at allowing low-budget teams to be competitive.	The rule was aimed at allowing low-budget teams to be competitive. 	52064725	1473278172891	1473278173002		79
100329	1094619	The rule was aimed at allowing low-budget teams to be competitive.	The rule was aimed at allowing low-budget teams to be competitive. 	52064727	1473278173067	1473278173259		32
100329	1094619	The rule was aimed at allowing low-budget teams to be competitive.	The rule was aimed at allowing low-budget teams to be competitive. 	52064789	1473278173227	1473278173323		66
100329	1094619	The rule was aimed at allowing low-budget teams to be competitive.	The rule was aimed at allowing low-budget teams to be competitive. 	52064793	1473278173435	1473278173547		69
100329	1094619	The rule was aimed at allowing low-budget teams to be competitive.	The rule was aimed at allowing low-budget teams to be competitive. 	52064798	1473278173548	1473278173658		32
100329	1094619	The rule was aimed at allowing low-budget teams to be competitive.	The rule was aimed at allowing low-budget teams to be competitive. 	52064802	1473278173931	1473278174042		67
100329	1094619	The rule was aimed at allowing low-budget teams to be competitive.	The rule was aimed at allowing low-budget teams to be competitive. 	52064810	1473278174090	1473278174186		79
100329	1094619	The rule was aimed at allowing low-budget teams to be competitive.	The rule was aimed at allowing low-budget teams to be competitive. 	52064813	1473278174347	1473278174459		77
100329	1094619	The rule was aimed at allowing low-budget teams to be competitive.	The rule was aimed at allowing low-budget teams to be competitive. 	52064848	1473278174715	1473278174827		80
100329	1094619	The rule was aimed at allowing low-budget teams to be competitive.	The rule was aimed at allowing low-budget teams to be competitive. 	52064853	1473278174875	1473278174954		69
100329	1094619	The rule was aimed at allowing low-budget teams to be competitive.	The rule was aimed at allowing low-budget teams to be competitive. 	52064860	1473278175259	1473278175387		84
100329	1094619	The rule was aimed at allowing low-budget teams to be competitive.	The rule was aimed at allowing low-budget teams to be competitive. 	52064866	1473278175435	1473278175547		73
100329	1094619	The rule was aimed at allowing low-budget teams to be competitive.	The rule was aimed at allowing low-budget teams to be competitive. 	52064871	1473278175595	1473278175722		84
100329	1094619	The rule was aimed at allowing low-budget teams to be competitive.	The rule was aimed at allowing low-budget teams to be competitive. 	52064947	1473278176203	1473278176298		73
100329	1094619	The rule was aimed at allowing low-budget teams to be competitive.	The rule was aimed at allowing low-budget teams to be competitive. 	52064950	1473278176666	1473278176747		86
100329	1094619	The rule was aimed at allowing low-budget teams to be competitive.	The rule was aimed at allowing low-budget teams to be competitive. 	52064954	1473278176843	1473278176907		69
100329	1094619	The rule was aimed at allowing low-budget teams to be competitive.	The rule was aimed at allowing low-budget teams to be competitive. 	52064959	1473278177451	1473278177578		190
100329	1094619	The rule was aimed at allowing low-budget teams to be competitive.	The rule was aimed at allowing low-budget teams to be competitive. 	52064963	1473278177658	1473278177770		32
100329	1094645	But it takes time.	but it takes time.	52065065	1473278179595	1473278179946	SHIFT	16
100329	1094645	But it takes time.	but it takes time.	52065068	1473278179963	1473278180075		66
100329	1094645	But it takes time.	but it takes time.	52065072	1473278180299	1473278180411		85
100329	1094645	But it takes time.	but it takes time.	52065074	1473278180412	1473278180542		84
100329	1094645	But it takes time.	but it takes time.	52065077	1473278180523	1473278180618		32
100329	1094645	But it takes time.	but it takes time.	52065080	1473278180635	1473278180747		73
100329	1094645	But it takes time.	but it takes time.	52065090	1473278180795	1473278180908		84
100329	1094645	But it takes time.	but it takes time.	52065094	1473278180891	1473278181034		32
100329	1094645	But it takes time.	but it takes time.	52065098	1473278181067	1473278181162		84
100329	1094645	But it takes time.	but it takes time.	52065102	1473278181291	1473278181387		65
100329	1094645	But it takes time.	but it takes time.	52065105	1473278181434	1473278181531		75
100329	1094645	But it takes time.	but it takes time.	52065169	1473278181535	1473278181626		69
100329	1094645	But it takes time.	but it takes time.	52065172	1473278181707	1473278181842		83
100329	1094645	But it takes time.	but it takes time.	52065175	1473278181819	1473278181949		32
100329	1094645	But it takes time.	but it takes time.	52065178	1473278182215	1473278182331		84
100329	1094645	But it takes time.	but it takes time.	52065182	1473278182811	1473278182923		65
100329	1094645	But it takes time.	but it takes time.	52065220	1473278182927	1473278183018		73
100329	1094645	But it takes time.	but it takes time.	52065223	1473278183146	1473278183210		77
100329	1094645	But it takes time.	but it takes time.	52065227	1473278183243	1473278183354		69
100329	1094645	But it takes time.	but it takes time.	52065229	1473278183627	1473278183691		8
100329	1094645	But it takes time.	but it takes time.	52065233	1473278183755	1473278183802		8
100329	1094645	But it takes time.	but it takes time.	52065261	1473278183866	1473278183930		8
100329	1094645	But it takes time.	but it takes time.	52065262	1473278183995	1473278184074		8
100329	1094645	But it takes time.	but it takes time.	52065263	1473278184139	1473278184234		73
100329	1094645	But it takes time.	but it takes time.	52065265	1473278184347	1473278184426		77
100329	1094645	But it takes time.	but it takes time.	52065268	1473278184443	1473278184538		69
100329	1094645	But it takes time.	but it takes time.	52065341	1473278185307	1473278185386		188
100329	1094645	But it takes time.	but it takes time.	52065343	1473278185579	1473278185658		8
100329	1094645	But it takes time.	but it takes time.	52065344	1473278185802	1473278185882		190
100329	1094655	Our politicians are rising to the occasion.	Our politicicams are rising to the occasion. 	52065453	1473278187723	1473278188026	SHIFT	16
100329	1094655	Our politicians are rising to the occasion.	Our politicicams are rising to the occasion. 	52065456	1473278188074	1473278188202		79
100329	1094655	Our politicians are rising to the occasion.	Our politicicams are rising to the occasion. 	52065459	1473278188218	1473278188346		80
100329	1094655	Our politicians are rising to the occasion.	Our politicicams are rising to the occasion. 	52065464	1473278188522	1473278188602		85
100329	1094655	Our politicians are rising to the occasion.	Our politicicams are rising to the occasion. 	52065470	1473278188859	1473278189002		82
100329	1094655	Our politicians are rising to the occasion.	Our politicicams are rising to the occasion. 	52065477	1473278189322	1473278189354		8
100329	1094655	Our politicians are rising to the occasion.	Our politicicams are rising to the occasion. 	52065533	1473278189434	1473278189483		8
100329	1094655	Our politicians are rising to the occasion.	Our politicicams are rising to the occasion. 	52065536	1473278189546	1473278189594		8
100329	1094655	Our politicians are rising to the occasion.	Our politicicams are rising to the occasion. 	52065540	1473278189658	1473278189754		8
100329	1094655	Our politicians are rising to the occasion.	Our politicicams are rising to the occasion. 	52065545	1473278189978	1473278190334	SHIFT	16
100329	1094655	Our politicians are rising to the occasion.	Our politicicams are rising to the occasion. 	52065547	1473278190298	1473278190426		79
100329	1094655	Our politicians are rising to the occasion.	Our politicicams are rising to the occasion. 	52065550	1473278190570	1473278190666		85
100329	1094655	Our politicians are rising to the occasion.	Our politicicams are rising to the occasion. 	52065616	1473278190954	1473278190986		32
100329	1094655	Our politicians are rising to the occasion.	Our politicicams are rising to the occasion. 	52065618	1473278191482	1473278191610		8
100329	1094655	Our politicians are rising to the occasion.	Our politicicams are rising to the occasion. 	52065620	1473278191610	1473278191738		82
100329	1094655	Our politicians are rising to the occasion.	Our politicicams are rising to the occasion. 	52065625	1473278191770	1473278191882		32
100329	1094655	Our politicians are rising to the occasion.	Our politicicams are rising to the occasion. 	52065630	1473278192058	1473278192186		80
100329	1094655	Our politicians are rising to the occasion.	Our politicicams are rising to the occasion. 	52065775	1473278192282	1473278192314		79
100329	1094655	Our politicians are rising to the occasion.	Our politicicams are rising to the occasion. 	52065777	1473278193034	1473278193114		76
100329	1094655	Our politicians are rising to the occasion.	Our politicicams are rising to the occasion. 	52065778	1473278193290	1473278193386		73
100329	1094655	Our politicians are rising to the occasion.	Our politicicams are rising to the occasion. 	52065780	1473278193962	1473278194090		84
100329	1094655	Our politicians are rising to the occasion.	Our politicicams are rising to the occasion. 	52065782	1473278194154	1473278194253		73
100329	1094655	Our politicians are rising to the occasion.	Our politicicams are rising to the occasion. 	52065902	1473278194396	1473278194586		67
100329	1094655	Our politicians are rising to the occasion.	Our politicicams are rising to the occasion. 	52065907	1473278195338	1473278195450		73
100329	1094655	Our politicians are rising to the occasion.	Our politicicams are rising to the occasion. 	52065912	1473278195674	1473278195770		67
100329	1094655	Our politicians are rising to the occasion.	Our politicicams are rising to the occasion. 	52065918	1473278195754	1473278195882		65
100329	1094655	Our politicians are rising to the occasion.	Our politicicams are rising to the occasion. 	52065922	1473278195883	1473278195978		77
100329	1094655	Our politicians are rising to the occasion.	Our politicicams are rising to the occasion. 	52065948	1473278196026	1473278196154		83
100329	1094655	Our politicians are rising to the occasion.	Our politicicams are rising to the occasion. 	52065951	1473278196186	1473278196314		32
100329	1094655	Our politicians are rising to the occasion.	Our politicicams are rising to the occasion. 	52065952	1473278196458	1473278196521		65
100329	1094655	Our politicians are rising to the occasion.	Our politicicams are rising to the occasion. 	52065955	1473278196585	1473278196746		82
100329	1094655	Our politicians are rising to the occasion.	Our politicicams are rising to the occasion. 	52066054	1473278196714	1473278196826		69
100329	1094655	Our politicians are rising to the occasion.	Our politicicams are rising to the occasion. 	52066055	1473278196810	1473278196954		32
100329	1094655	Our politicians are rising to the occasion.	Our politicicams are rising to the occasion. 	52066058	1473278197642	1473278197738		82
100329	1094655	Our politicians are rising to the occasion.	Our politicicams are rising to the occasion. 	52066060	1473278197866	1473278197962		73
100329	1094655	Our politicians are rising to the occasion.	Our politicicams are rising to the occasion. 	52066063	1473278197994	1473278198074		83
100329	1094655	Our politicians are rising to the occasion.	Our politicicams are rising to the occasion. 	52066068	1473278198075	1473278198219		73
100329	1094655	Our politicians are rising to the occasion.	Our politicicams are rising to the occasion. 	52066105	1473278198202	1473278198282		78
100329	1094655	Our politicians are rising to the occasion.	Our politicicams are rising to the occasion. 	52066108	1473278198442	1473278198586		71
100329	1094655	Our politicians are rising to the occasion.	Our politicicams are rising to the occasion. 	52066113	1473278198634	1473278198729		32
100329	1094655	Our politicians are rising to the occasion.	Our politicicams are rising to the occasion. 	52066117	1473278198810	1473278198922		84
100329	1094655	Our politicians are rising to the occasion.	Our politicicams are rising to the occasion. 	52066120	1473278198890	1473278199002		79
100329	1094655	Our politicians are rising to the occasion.	Our politicicams are rising to the occasion. 	52066127	1473278199082	1473278199194		32
100329	1094655	Our politicians are rising to the occasion.	Our politicicams are rising to the occasion. 	52066244	1473278199162	1473278199289		84
100329	1094655	Our politicians are rising to the occasion.	Our politicicams are rising to the occasion. 	52066249	1473278199257	1473278199337		72
100329	1094655	Our politicians are rising to the occasion.	Our politicicams are rising to the occasion. 	52066255	1473278199385	1473278199514		69
100329	1094655	Our politicians are rising to the occasion.	Our politicicams are rising to the occasion. 	52066261	1473278199466	1473278199626		32
100329	1094655	Our politicians are rising to the occasion.	Our politicicams are rising to the occasion. 	52066264	1473278200585	1473278200698		79
100329	1094655	Our politicians are rising to the occasion.	Our politicicams are rising to the occasion. 	52066268	1473278200922	1473278200986		67
100329	1094655	Our politicians are rising to the occasion.	Our politicicams are rising to the occasion. 	52066337	1473278201066	1473278201178		67
100329	1094655	Our politicians are rising to the occasion.	Our politicicams are rising to the occasion. 	52066341	1473278201274	1473278201402		65
100329	1094655	Our politicians are rising to the occasion.	Our politicicams are rising to the occasion. 	52066346	1473278202042	1473278202154		83
100329	1094655	Our politicians are rising to the occasion.	Our politicicams are rising to the occasion. 	52066351	1473278202266	1473278202410		73
100329	1094655	Our politicians are rising to the occasion.	Our politicicams are rising to the occasion. 	52066424	1473278202346	1473278202458		79
100329	1094655	Our politicians are rising to the occasion.	Our politicicams are rising to the occasion. 	52066427	1473278202554	1473278202602		78
100329	1094655	Our politicians are rising to the occasion.	Our politicicams are rising to the occasion. 	52066431	1473278203018	1473278203098		190
100329	1094678	Drop him if he was on your Fantasy roster.	Drop him if he was your Fantasy roster. 	52066669	1473278203146	1473278206585		32
100329	1094678	Drop him if he was on your Fantasy roster.	Drop him if he was your Fantasy roster. 	52066632	1473278205130	1473278205402	SHIFT	16
100329	1094678	Drop him if he was on your Fantasy roster.	Drop him if he was your Fantasy roster. 	52066635	1473278205370	1473278205481		68
100329	1094678	Drop him if he was on your Fantasy roster.	Drop him if he was your Fantasy roster. 	52066639	1473278205578	1473278205674		82
100329	1094678	Drop him if he was on your Fantasy roster.	Drop him if he was your Fantasy roster. 	52066649	1473278206201	1473278206313		79
100329	1094678	Drop him if he was on your Fantasy roster.	Drop him if he was your Fantasy roster. 	52066658	1473278206346	1473278206474		80
100329	1094678	Drop him if he was on your Fantasy roster.	Drop him if he was your Fantasy roster. 	52066680	1473278206842	1473278206905		72
100329	1094678	Drop him if he was on your Fantasy roster.	Drop him if he was your Fantasy roster. 	52066884	1473278207098	1473278207225		73
100329	1094678	Drop him if he was on your Fantasy roster.	Drop him if he was your Fantasy roster. 	52066888	1473278207402	1473278207497		77
100329	1094678	Drop him if he was on your Fantasy roster.	Drop him if he was your Fantasy roster. 	52066895	1473278207834	1473278207961		32
100329	1094678	Drop him if he was on your Fantasy roster.	Drop him if he was your Fantasy roster. 	52066901	1473278208298	1473278208441		73
100329	1094678	Drop him if he was on your Fantasy roster.	Drop him if he was your Fantasy roster. 	52066909	1473278209882	1473278209994		70
100329	1094678	Drop him if he was on your Fantasy roster.	Drop him if he was your Fantasy roster. 	52066940	1473278209998	1473278210137		32
100329	1094678	Drop him if he was on your Fantasy roster.	Drop him if he was your Fantasy roster. 	52066942	1473278210172	1473278210249		72
100329	1094678	Drop him if he was on your Fantasy roster.	Drop him if he was your Fantasy roster. 	52066947	1473278210265	1473278210378		69
100329	1094678	Drop him if he was on your Fantasy roster.	Drop him if he was your Fantasy roster. 	52066955	1473278210378	1473278210537		32
100329	1094678	Drop him if he was on your Fantasy roster.	Drop him if he was your Fantasy roster. 	52066962	1473278210554	1473278210633		72
100329	1094678	Drop him if he was on your Fantasy roster.	Drop him if he was your Fantasy roster. 	52067011	1473278210698	1473278210810		65
100329	1094678	Drop him if he was on your Fantasy roster.	Drop him if he was your Fantasy roster. 	52067014	1473278210778	1473278210921		83
100329	1094678	Drop him if he was on your Fantasy roster.	Drop him if he was your Fantasy roster. 	52067018	1473278211177	1473278211241		8
100329	1094678	Drop him if he was on your Fantasy roster.	Drop him if he was your Fantasy roster. 	52067021	1473278211321	1473278211370		8
100329	1094678	Drop him if he was on your Fantasy roster.	Drop him if he was your Fantasy roster. 	52067025	1473278211449	1473278211529		8
100329	1094678	Drop him if he was on your Fantasy roster.	Drop him if he was your Fantasy roster. 	52067048	1473278211561	1473278211641		87
100329	1094678	Drop him if he was on your Fantasy roster.	Drop him if he was your Fantasy roster. 	52067050	1473278211754	1473278211865		65
100329	1094678	Drop him if he was on your Fantasy roster.	Drop him if he was your Fantasy roster. 	52067052	1473278211801	1473278211930		83
100329	1094678	Drop him if he was on your Fantasy roster.	Drop him if he was your Fantasy roster. 	52067055	1473278211913	1473278212041		32
100329	1094678	Drop him if he was on your Fantasy roster.	Drop him if he was your Fantasy roster. 	52067059	1473278212106	1473278212201		89
100329	1094678	Drop him if he was on your Fantasy roster.	Drop him if he was your Fantasy roster. 	52067206	1473278212206	1473278212361		79
100329	1094678	Drop him if he was on your Fantasy roster.	Drop him if he was your Fantasy roster. 	52067208	1473278212329	1473278212425		85
100329	1094678	Drop him if he was on your Fantasy roster.	Drop him if he was your Fantasy roster. 	52067213	1473278212489	1473278212585		82
100329	1094678	Drop him if he was on your Fantasy roster.	Drop him if he was your Fantasy roster. 	52067218	1473278212617	1473278212777		32
100329	1094678	Drop him if he was on your Fantasy roster.	Drop him if he was your Fantasy roster. 	52067221	1473278214169	1473278214313	SHIFT	16
100329	1094678	Drop him if he was on your Fantasy roster.	Drop him if he was your Fantasy roster. 	52067272	1473278214281	1473278214425		70
100329	1094678	Drop him if he was on your Fantasy roster.	Drop him if he was your Fantasy roster. 	52067275	1473278214426	1473278214537		65
100329	1094678	Drop him if he was on your Fantasy roster.	Drop him if he was your Fantasy roster. 	52067278	1473278214553	1473278214649		78
100329	1094678	Drop him if he was on your Fantasy roster.	Drop him if he was your Fantasy roster. 	52067282	1473278214729	1473278214826		84
100329	1094678	Drop him if he was on your Fantasy roster.	Drop him if he was your Fantasy roster. 	52067287	1473278214906	1473278215002		65
100329	1094678	Drop him if he was on your Fantasy roster.	Drop him if he was your Fantasy roster. 	52067294	1473278215049	1473278215129		83
100329	1094678	Drop him if he was on your Fantasy roster.	Drop him if he was your Fantasy roster. 	52067384	1473278215310	1473278215385		84
100329	1094678	Drop him if he was on your Fantasy roster.	Drop him if he was your Fantasy roster. 	52067388	1473278215945	1473278216073		8
100329	1094678	Drop him if he was on your Fantasy roster.	Drop him if he was your Fantasy roster. 	52067395	1473278216522	1473278216753		89
100329	1094678	Drop him if he was on your Fantasy roster.	Drop him if he was your Fantasy roster. 	52067403	1473278216753	1473278216793		32
100329	1094678	Drop him if he was on your Fantasy roster.	Drop him if he was your Fantasy roster. 	52067511	1473278217193	1473278217257		8
100329	1094678	Drop him if he was on your Fantasy roster.	Drop him if he was your Fantasy roster. 	52067514	1473278217369	1473278217513		8
100329	1094678	Drop him if he was on your Fantasy roster.	Drop him if he was your Fantasy roster. 	52067518	1473278217641	1473278217754		8
100329	1094678	Drop him if he was on your Fantasy roster.	Drop him if he was your Fantasy roster. 	52067523	1473278218041	1473278218137		83
100329	1094678	Drop him if he was on your Fantasy roster.	Drop him if he was your Fantasy roster. 	52067527	1473278218569	1473278218633		8
100329	1094678	Drop him if he was on your Fantasy roster.	Drop him if he was your Fantasy roster. 	52067608	1473278218761	1473278218889		89
100329	1094678	Drop him if he was on your Fantasy roster.	Drop him if he was your Fantasy roster. 	52067613	1473278219113	1473278219209		32
100329	1094678	Drop him if he was on your Fantasy roster.	Drop him if he was your Fantasy roster. 	52067619	1473278219785	1473278219897		82
100329	1094678	Drop him if he was on your Fantasy roster.	Drop him if he was your Fantasy roster. 	52067625	1473278220009	1473278220105		79
100329	1094678	Drop him if he was on your Fantasy roster.	Drop him if he was your Fantasy roster. 	52067630	1473278220217	1473278220313		83
100329	1094678	Drop him if he was on your Fantasy roster.	Drop him if he was your Fantasy roster. 	52067695	1473278220345	1473278220457		84
100329	1094678	Drop him if he was on your Fantasy roster.	Drop him if he was your Fantasy roster. 	52067698	1473278220537	1473278220616		69
100329	1094678	Drop him if he was on your Fantasy roster.	Drop him if he was your Fantasy roster. 	52067701	1473278220585	1473278220697		82
100329	1094678	Drop him if he was on your Fantasy roster.	Drop him if he was your Fantasy roster. 	52067702	1473278221289	1473278221369		190
100329	1094678	Drop him if he was on your Fantasy roster.	Drop him if he was your Fantasy roster. 	52067707	1473278221401	1473278221481		32
100329	1094712	I'm in a meeting until noon.	Im in a meeting until noon. 	52067881	1473278223369	1473278223529	SHIFT	16
100329	1094712	I'm in a meeting until noon.	Im in a meeting until noon. 	52067884	1473278223481	1473278223593		73
100329	1094712	I'm in a meeting until noon.	Im in a meeting until noon. 	52067885	1473278223721	1473278223817		77
100329	1094712	I'm in a meeting until noon.	Im in a meeting until noon. 	52067886	1473278223865	1473278224010		32
100329	1094712	I'm in a meeting until noon.	Im in a meeting until noon. 	52067887	1473278223993	1473278224153		73
100329	1094712	I'm in a meeting until noon.	Im in a meeting until noon. 	52067936	1473278224089	1473278224217		78
100329	1094712	I'm in a meeting until noon.	Im in a meeting until noon. 	52067941	1473278224361	1473278224441		32
100329	1094712	I'm in a meeting until noon.	Im in a meeting until noon. 	52067944	1473278224521	1473278224633		65
100329	1094712	I'm in a meeting until noon.	Im in a meeting until noon. 	52067948	1473278224634	1473278224761		32
100329	1094712	I'm in a meeting until noon.	Im in a meeting until noon. 	52067951	1473278224841	1473278224953		77
100329	1094712	I'm in a meeting until noon.	Im in a meeting until noon. 	52067957	1473278225033	1473278225113		69
100329	1094712	I'm in a meeting until noon.	Im in a meeting until noon. 	52067972	1473278225209	1473278225273		69
100329	1094712	I'm in a meeting until noon.	Im in a meeting until noon. 	52067975	1473278225321	1473278225417		84
100329	1094712	I'm in a meeting until noon.	Im in a meeting until noon. 	52067978	1473278225418	1473278225544		73
100329	1094712	I'm in a meeting until noon.	Im in a meeting until noon. 	52067982	1473278225497	1473278225593		78
100329	1094712	I'm in a meeting until noon.	Im in a meeting until noon. 	52067988	1473278225609	1473278225721		71
100329	1094712	I'm in a meeting until noon.	Im in a meeting until noon. 	52068065	1473278225688	1473278225817		32
100329	1094712	I'm in a meeting until noon.	Im in a meeting until noon. 	52068070	1473278226336	1473278226409		85
100329	1094712	I'm in a meeting until noon.	Im in a meeting until noon. 	52068075	1473278226556	1473278226618		78
100329	1094712	I'm in a meeting until noon.	Im in a meeting until noon. 	52068081	1473278226649	1473278226729		84
100329	1094712	I'm in a meeting until noon.	Im in a meeting until noon. 	52068088	1473278226793	1473278226873		73
100329	1094712	I'm in a meeting until noon.	Im in a meeting until noon. 	52068096	1473278226969	1473278227065		76
100329	1094712	I'm in a meeting until noon.	Im in a meeting until noon. 	52068147	1473278227081	1473278227144		32
100329	1094712	I'm in a meeting until noon.	Im in a meeting until noon. 	52068153	1473278227257	1473278227338		78
100329	1094712	I'm in a meeting until noon.	Im in a meeting until noon. 	52068163	1473278227498	1473278227545		79
100329	1094712	I'm in a meeting until noon.	Im in a meeting until noon. 	52068172	1473278227609	1473278227656		79
100329	1094712	I'm in a meeting until noon.	Im in a meeting until noon. 	52068176	1473278227736	1473278227800		78
100329	1094712	I'm in a meeting until noon.	Im in a meeting until noon. 	52068192	1473278228169	1473278228233		190
100329	1094724	Whether that package is training or material has yet to be determined.	Whether that package is training or material has yet to be determinded.	52068488	1473278228297	1473278232153		32
100329	1094724	Whether that package is training or material has yet to be determined.	Whether that package is training or material has yet to be determinded.	52068416	1473278230282	1473278230921	SHIFT	16
100329	1094724	Whether that package is training or material has yet to be determined.	Whether that package is training or material has yet to be determinded.	52068419	1473278230873	1473278231001		87
100329	1094724	Whether that package is training or material has yet to be determined.	Whether that package is training or material has yet to be determinded.	52068424	1473278231129	1473278231209		72
100329	1094724	Whether that package is training or material has yet to be determined.	Whether that package is training or material has yet to be determinded.	52068430	1473278231305	1473278231369		69
100329	1094724	Whether that package is training or material has yet to be determined.	Whether that package is training or material has yet to be determinded.	52068434	1473278231465	1473278231545		65
100329	1094724	Whether that package is training or material has yet to be determined.	Whether that package is training or material has yet to be determinded.	52068438	1473278231561	1473278231673		84
100329	1094724	Whether that package is training or material has yet to be determined.	Whether that package is training or material has yet to be determinded.	52068483	1473278231817	1473278231986		69
100329	1094724	Whether that package is training or material has yet to be determined.	Whether that package is training or material has yet to be determinded.	52068485	1473278231984	1473278232056		82
100329	1094724	Whether that package is training or material has yet to be determined.	Whether that package is training or material has yet to be determinded.	52068492	1473278232265	1473278232393		84
100329	1094724	Whether that package is training or material has yet to be determined.	Whether that package is training or material has yet to be determinded.	52068496	1473278232394	1473278232473		72
100329	1094724	Whether that package is training or material has yet to be determined.	Whether that package is training or material has yet to be determinded.	52068506	1473278232553	1473278232696		69
100329	1094724	Whether that package is training or material has yet to be determined.	Whether that package is training or material has yet to be determinded.	52068551	1473278232905	1473278232969		8
100329	1094724	Whether that package is training or material has yet to be determined.	Whether that package is training or material has yet to be determinded.	52068556	1473278233033	1473278233096		8
100329	1094724	Whether that package is training or material has yet to be determined.	Whether that package is training or material has yet to be determinded.	52068557	1473278233161	1473278233225		8
100329	1094724	Whether that package is training or material has yet to be determined.	Whether that package is training or material has yet to be determinded.	52068559	1473278233272	1473278233336		8
100329	1094724	Whether that package is training or material has yet to be determined.	Whether that package is training or material has yet to be determinded.	52068561	1473278233401	1473278233481		8
100329	1094724	Whether that package is training or material has yet to be determined.	Whether that package is training or material has yet to be determinded.	52068650	1473278233529	1473278233609		8
100329	1094724	Whether that package is training or material has yet to be determined.	Whether that package is training or material has yet to be determinded.	52068658	1473278233657	1473278233753		8
100329	1094724	Whether that package is training or material has yet to be determined.	Whether that package is training or material has yet to be determinded.	52068667	1473278233833	1473278233929		8
100329	1094724	Whether that package is training or material has yet to be determined.	Whether that package is training or material has yet to be determinded.	52068675	1473278234041	1473278234185		84
100329	1094724	Whether that package is training or material has yet to be determined.	Whether that package is training or material has yet to be determinded.	52068682	1473278235022	1473278235096		72
100329	1094724	Whether that package is training or material has yet to be determined.	Whether that package is training or material has yet to be determinded.	52068709	1473278235161	1473278235257		69
100329	1094724	Whether that package is training or material has yet to be determined.	Whether that package is training or material has yet to be determinded.	52068711	1473278235226	1473278235321		82
100329	1094724	Whether that package is training or material has yet to be determined.	Whether that package is training or material has yet to be determinded.	52068713	1473278235369	1473278235497		32
100329	1094724	Whether that package is training or material has yet to be determined.	Whether that package is training or material has yet to be determinded.	52068714	1473278235720	1473278235881		84
100329	1094724	Whether that package is training or material has yet to be determined.	Whether that package is training or material has yet to be determinded.	52068778	1473278235833	1473278235945		72
100329	1094724	Whether that package is training or material has yet to be determined.	Whether that package is training or material has yet to be determinded.	52068781	1473278236073	1473278236185		65
100329	1094724	Whether that package is training or material has yet to be determined.	Whether that package is training or material has yet to be determinded.	52068787	1473278236186	1473278236312		84
100329	1094724	Whether that package is training or material has yet to be determined.	Whether that package is training or material has yet to be determinded.	52068793	1473278236264	1473278236361		32
100329	1094724	Whether that package is training or material has yet to be determined.	Whether that package is training or material has yet to be determinded.	52068799	1473278236457	1473278236553		87
100329	1094724	Whether that package is training or material has yet to be determined.	Whether that package is training or material has yet to be determinded.	52068804	1473278237177	1473278237208		8
100329	1094724	Whether that package is training or material has yet to be determined.	Whether that package is training or material has yet to be determinded.	52068846	1473278237737	1473278237865		80
100329	1094724	Whether that package is training or material has yet to be determined.	Whether that package is training or material has yet to be determinded.	52068850	1473278237865	1473278237961		65
100329	1094724	Whether that package is training or material has yet to be determined.	Whether that package is training or material has yet to be determinded.	52068856	1473278238073	1473278238232		67
100329	1094724	Whether that package is training or material has yet to be determined.	Whether that package is training or material has yet to be determinded.	52068862	1473278238297	1473278238328		75
100329	1094724	Whether that package is training or material has yet to be determined.	Whether that package is training or material has yet to be determinded.	52068999	1473278238792	1473278238936		8
100329	1094724	Whether that package is training or material has yet to be determined.	Whether that package is training or material has yet to be determinded.	52069004	1473278239177	1473278239304		65
100329	1094724	Whether that package is training or material has yet to be determined.	Whether that package is training or material has yet to be determinded.	52069009	1473278239593	1473278239704		71
100329	1094724	Whether that package is training or material has yet to be determined.	Whether that package is training or material has yet to be determinded.	52069013	1473278239848	1473278239993		69
100329	1094724	Whether that package is training or material has yet to be determined.	Whether that package is training or material has yet to be determinded.	52069093	1473278239945	1473278240105		32
100329	1094724	Whether that package is training or material has yet to be determined.	Whether that package is training or material has yet to be determinded.	52069095	1473278240377	1473278240472		73
100329	1094724	Whether that package is training or material has yet to be determined.	Whether that package is training or material has yet to be determinded.	52069100	1473278240520	1473278240648		83
100329	1094724	Whether that package is training or material has yet to be determined.	Whether that package is training or material has yet to be determinded.	52069104	1473278240617	1473278240744		32
100329	1094724	Whether that package is training or material has yet to be determined.	Whether that package is training or material has yet to be determinded.	52069110	1473278241001	1473278241144		84
100329	1094724	Whether that package is training or material has yet to be determined.	Whether that package is training or material has yet to be determinded.	52069115	1473278241145	1473278241224		82
100329	1094724	Whether that package is training or material has yet to be determined.	Whether that package is training or material has yet to be determinded.	52069168	1473278241353	1473278241480		65
100329	1094724	Whether that package is training or material has yet to be determined.	Whether that package is training or material has yet to be determinded.	52069172	1473278241720	1473278241848		73
100329	1094724	Whether that package is training or material has yet to be determined.	Whether that package is training or material has yet to be determinded.	52069177	1473278241864	1473278241976		78
100329	1094724	Whether that package is training or material has yet to be determined.	Whether that package is training or material has yet to be determinded.	52069184	1473278242024	1473278242168		73
100329	1094724	Whether that package is training or material has yet to be determined.	Whether that package is training or material has yet to be determinded.	52069267	1473278242137	1473278242216		78
100329	1094724	Whether that package is training or material has yet to be determined.	Whether that package is training or material has yet to be determinded.	52069268	1473278242296	1473278242424		71
100329	1094724	Whether that package is training or material has yet to be determined.	Whether that package is training or material has yet to be determinded.	52069270	1473278242408	1473278242584		32
100329	1094724	Whether that package is training or material has yet to be determined.	Whether that package is training or material has yet to be determinded.	52069273	1473278242760	1473278242873		79
100329	1094724	Whether that package is training or material has yet to be determined.	Whether that package is training or material has yet to be determinded.	52069278	1473278242873	1473278243017		82
100329	1094724	Whether that package is training or material has yet to be determined.	Whether that package is training or material has yet to be determinded.	52069282	1473278243017	1473278243160		32
100329	1094724	Whether that package is training or material has yet to be determined.	Whether that package is training or material has yet to be determinded.	52069339	1473278243192	1473278243320		77
100329	1094724	Whether that package is training or material has yet to be determined.	Whether that package is training or material has yet to be determinded.	52069343	1473278243336	1473278243496		65
100329	1094724	Whether that package is training or material has yet to be determined.	Whether that package is training or material has yet to be determinded.	52069350	1473278243896	1473278244025		84
100329	1094724	Whether that package is training or material has yet to be determined.	Whether that package is training or material has yet to be determinded.	52069356	1473278244264	1473278244344		69
100329	1094724	Whether that package is training or material has yet to be determined.	Whether that package is training or material has yet to be determinded.	52069414	1473278244313	1473278244424		82
100329	1094724	Whether that package is training or material has yet to be determined.	Whether that package is training or material has yet to be determinded.	52069418	1473278244456	1473278244536		73
100329	1094724	Whether that package is training or material has yet to be determined.	Whether that package is training or material has yet to be determinded.	52069421	1473278244584	1473278244712		65
100329	1094724	Whether that package is training or material has yet to be determined.	Whether that package is training or material has yet to be determinded.	52069424	1473278244888	1473278245032		76
100329	1094724	Whether that package is training or material has yet to be determined.	Whether that package is training or material has yet to be determinded.	52069432	1473278245144	1473278245288		32
100329	1094724	Whether that package is training or material has yet to be determined.	Whether that package is training or material has yet to be determinded.	52069440	1473278245544	1473278245624		72
100329	1094724	Whether that package is training or material has yet to be determined.	Whether that package is training or material has yet to be determinded.	52069495	1473278245736	1473278245832		65
100329	1094724	Whether that package is training or material has yet to be determined.	Whether that package is training or material has yet to be determinded.	52069497	1473278245944	1473278246041		83
100329	1094724	Whether that package is training or material has yet to be determined.	Whether that package is training or material has yet to be determinded.	52069502	1473278246042	1473278246184		32
100329	1094724	Whether that package is training or material has yet to be determined.	Whether that package is training or material has yet to be determinded.	52069504	1473278246344	1473278246424		89
100329	1094724	Whether that package is training or material has yet to be determined.	Whether that package is training or material has yet to be determinded.	52069506	1473278246504	1473278246600		69
100329	1094724	Whether that package is training or material has yet to be determined.	Whether that package is training or material has yet to be determinded.	52069539	1473278246728	1473278246841		84
100329	1094724	Whether that package is training or material has yet to be determined.	Whether that package is training or material has yet to be determinded.	52069542	1473278246856	1473278246968		32
100329	1094724	Whether that package is training or material has yet to be determined.	Whether that package is training or material has yet to be determinded.	52069544	1473278246969	1473278247156		84
100329	1094724	Whether that package is training or material has yet to be determined.	Whether that package is training or material has yet to be determinded.	52069546	1473278247156	1473278247192		79
100329	1094724	Whether that package is training or material has yet to be determined.	Whether that package is training or material has yet to be determinded.	52069549	1473278247256	1473278247400		32
100329	1094724	Whether that package is training or material has yet to be determined.	Whether that package is training or material has yet to be determinded.	52069648	1473278247736	1473278247816		66
100329	1094724	Whether that package is training or material has yet to be determined.	Whether that package is training or material has yet to be determinded.	52069650	1473278247928	1473278248040		69
100329	1094724	Whether that package is training or material has yet to be determined.	Whether that package is training or material has yet to be determinded.	52069653	1473278248024	1473278248120		32
100329	1094724	Whether that package is training or material has yet to be determined.	Whether that package is training or material has yet to be determinded.	52069656	1473278248424	1473278248504		68
100329	1094724	Whether that package is training or material has yet to be determined.	Whether that package is training or material has yet to be determinded.	52069659	1473278248600	1473278248664		69
100329	1094724	Whether that package is training or material has yet to be determined.	Whether that package is training or material has yet to be determinded.	52069694	1473278248776	1473278248888		84
100329	1094724	Whether that package is training or material has yet to be determined.	Whether that package is training or material has yet to be determinded.	52069697	1473278249000	1473278249100		69
100329	1094724	Whether that package is training or material has yet to be determined.	Whether that package is training or material has yet to be determinded.	52069702	1473278249080	1473278249192		82
100329	1094724	Whether that package is training or material has yet to be determined.	Whether that package is training or material has yet to be determinded.	52069704	1473278249273	1473278249384		77
100329	1094724	Whether that package is training or material has yet to be determined.	Whether that package is training or material has yet to be determinded.	52069709	1473278249448	1473278249608		73
100329	1094724	Whether that package is training or material has yet to be determined.	Whether that package is training or material has yet to be determinded.	52069910	1473278249560	1473278249672		78
100329	1094724	Whether that package is training or material has yet to be determined.	Whether that package is training or material has yet to be determinded.	52069914	1473278249738	1473278249799		68
100329	1094724	Whether that package is training or material has yet to be determined.	Whether that package is training or material has yet to be determinded.	52069920	1473278249880	1473278249944		69
100329	1094724	Whether that package is training or material has yet to be determined.	Whether that package is training or material has yet to be determinded.	52069930	1473278250040	1473278250168		68
100329	1094724	Whether that package is training or material has yet to be determined.	Whether that package is training or material has yet to be determinded.	52069935	1473278251320	1473278251384		188
100329	1094724	Whether that package is training or material has yet to be determined.	Whether that package is training or material has yet to be determinded.	52069944	1473278252440	1473278252536		8
100329	1094724	Whether that package is training or material has yet to be determined.	Whether that package is training or material has yet to be determinded.	52069959	1473278252840	1473278252904		190
100329	1094756	Call me anytime for information.	Call me anytime for information. 	52070156	1473278254760	1473278255336	SHIFT	16
100329	1094756	Call me anytime for information.	Call me anytime for information. 	52070152	1473278255000	1473278255033		67
100329	1094756	Call me anytime for information.	Call me anytime for information. 	52070163	1473278255337	1473278255464		67
100329	1094756	Call me anytime for information.	Call me anytime for information. 	52070168	1473278255432	1473278255576		65
100329	1094756	Call me anytime for information.	Call me anytime for information. 	52070173	1473278255784	1473278255864		77
100329	1094756	Call me anytime for information.	Call me anytime for information. 	52070179	1473278255992	1473278256039		8
100329	1094756	Call me anytime for information.	Call me anytime for information. 	52070199	1473278256120	1473278256168		8
100329	1094756	Call me anytime for information.	Call me anytime for information. 	52070202	1473278256232	1473278256312		8
100329	1094756	Call me anytime for information.	Call me anytime for information. 	52070207	1473278256360	1473278256472		65
100329	1094756	Call me anytime for information.	Call me anytime for information. 	52070210	1473278256488	1473278256552		76
100329	1094756	Call me anytime for information.	Call me anytime for information. 	52070214	1473278256615	1473278256679		76
100329	1094756	Call me anytime for information.	Call me anytime for information. 	52070252	1473278256728	1473278256824		32
100329	1094756	Call me anytime for information.	Call me anytime for information. 	52070256	1473278256840	1473278256936		77
100329	1094756	Call me anytime for information.	Call me anytime for information. 	52070261	1473278256952	1473278257048		69
100329	1094756	Call me anytime for information.	Call me anytime for information. 	52070267	1473278257049	1473278257160		32
100329	1094756	Call me anytime for information.	Call me anytime for information. 	52070274	1473278257161	1473278257247		65
100329	1094756	Call me anytime for information.	Call me anytime for information. 	52070354	1473278257224	1473278257335		78
100329	1094756	Call me anytime for information.	Call me anytime for information. 	52070359	1473278257400	1473278257464		89
100329	1094756	Call me anytime for information.	Call me anytime for information. 	52070361	1473278258088	1473278258184		84
100329	1094756	Call me anytime for information.	Call me anytime for information. 	52070362	1473278258216	1473278258295		73
100329	1094756	Call me anytime for information.	Call me anytime for information. 	52070365	1473278258424	1473278258504		77
100329	1094756	Call me anytime for information.	Call me anytime for information. 	52070367	1473278258505	1473278258600		69
100329	1094756	Call me anytime for information.	Call me anytime for information. 	52070375	1473278258604	1473278258711		32
100329	1094756	Call me anytime for information.	Call me anytime for information. 	52070379	1473278258680	1473278258792		70
100329	1094756	Call me anytime for information.	Call me anytime for information. 	52070385	1473278258793	1473278258888		79
100329	1094756	Call me anytime for information.	Call me anytime for information. 	52070390	1473278258872	1473278258968		82
100329	1094756	Call me anytime for information.	Call me anytime for information. 	52070496	1473278258952	1473278259047		32
100329	1094756	Call me anytime for information.	Call me anytime for information. 	52070499	1473278259272	1473278259384		73
100329	1094756	Call me anytime for information.	Call me anytime for information. 	52070504	1473278259928	1473278260009		78
100329	1094756	Call me anytime for information.	Call me anytime for information. 	52070508	1473278260104	1473278260216		70
100329	1094756	Call me anytime for information.	Call me anytime for information. 	52070514	1473278260264	1473278260360		79
100329	1094756	Call me anytime for information.	Call me anytime for information. 	52070518	1473278260361	1473278260472		82
100329	1094756	Call me anytime for information.	Call me anytime for information. 	52070543	1473278260504	1473278260600		77
100329	1094756	Call me anytime for information.	Call me anytime for information. 	52070549	1473278260632	1473278260728		65
100329	1094756	Call me anytime for information.	Call me anytime for information. 	52070555	1473278260795	1473278260903		84
100329	1094756	Call me anytime for information.	Call me anytime for information. 	52070560	1473278260952	1473278261064		73
100329	1094756	Call me anytime for information.	Call me anytime for information. 	52070618	1473278261031	1473278261096		79
100329	1094756	Call me anytime for information.	Call me anytime for information. 	52070624	1473278261179	1473278261256		78
100329	1094756	Call me anytime for information.	Call me anytime for information. 	52070628	1473278261624	1473278261719		190
100329	1094756	Call me anytime for information.	Call me anytime for information. 	52070632	1473278261752	1473278261848		32
100329	1094772	Amy Felling should be your contact on the 19th.	Amy Felling should be your contact for the 19th. 	52070893	1473278264120	1473278264375	SHIFT	16
100329	1094772	Amy Felling should be your contact on the 19th.	Amy Felling should be your contact for the 19th. 	52070894	1473278264312	1473278264455		65
100329	1094772	Amy Felling should be your contact on the 19th.	Amy Felling should be your contact for the 19th. 	52070896	1473278264584	1473278264711		77
100329	1094772	Amy Felling should be your contact on the 19th.	Amy Felling should be your contact for the 19th. 	52070899	1473278264792	1473278264920		89
100329	1094772	Amy Felling should be your contact on the 19th.	Amy Felling should be your contact for the 19th. 	52070901	1473278264936	1473278265047		32
100329	1094772	Amy Felling should be your contact on the 19th.	Amy Felling should be your contact for the 19th. 	52070904	1473278265192	1473278265368	SHIFT	16
100329	1094772	Amy Felling should be your contact on the 19th.	Amy Felling should be your contact for the 19th. 	52070943	1473278265336	1473278265463		70
100329	1094772	Amy Felling should be your contact on the 19th.	Amy Felling should be your contact for the 19th. 	52070950	1473278265528	1473278265640		69
100329	1094772	Amy Felling should be your contact on the 19th.	Amy Felling should be your contact for the 19th. 	52070959	1473278265720	1473278265751		76
100329	1094772	Amy Felling should be your contact on the 19th.	Amy Felling should be your contact for the 19th. 	52070967	1473278265848	1473278265927		76
100329	1094772	Amy Felling should be your contact on the 19th.	Amy Felling should be your contact for the 19th. 	52070969	1473278266056	1473278266200		73
100329	1094772	Amy Felling should be your contact on the 19th.	Amy Felling should be your contact for the 19th. 	52071011	1473278266168	1473278266247		78
100329	1094772	Amy Felling should be your contact on the 19th.	Amy Felling should be your contact for the 19th. 	52071017	1473278266280	1473278266394		71
100329	1094772	Amy Felling should be your contact on the 19th.	Amy Felling should be your contact for the 19th. 	52071023	1473278266376	1473278266503		32
100329	1094772	Amy Felling should be your contact on the 19th.	Amy Felling should be your contact for the 19th. 	52071028	1473278266552	1473278266663		83
100329	1094772	Amy Felling should be your contact on the 19th.	Amy Felling should be your contact for the 19th. 	52071032	1473278266679	1473278266808		72
100329	1094772	Amy Felling should be your contact on the 19th.	Amy Felling should be your contact for the 19th. 	52071041	1473278266808	1473278266983		79
100329	1094772	Amy Felling should be your contact on the 19th.	Amy Felling should be your contact for the 19th. 	52071077	1473278266952	1473278267048		85
100329	1094772	Amy Felling should be your contact on the 19th.	Amy Felling should be your contact for the 19th. 	52071080	1473278267132	1473278267240		76
100329	1094772	Amy Felling should be your contact on the 19th.	Amy Felling should be your contact for the 19th. 	52071084	1473278267241	1473278267352		68
100329	1094772	Amy Felling should be your contact on the 19th.	Amy Felling should be your contact for the 19th. 	52071091	1473278267353	1473278267527		32
100329	1094772	Amy Felling should be your contact on the 19th.	Amy Felling should be your contact for the 19th. 	52071098	1473278267543	1473278267607		66
100329	1094772	Amy Felling should be your contact on the 19th.	Amy Felling should be your contact for the 19th. 	52071105	1473278267720	1473278267815		69
100329	1094772	Amy Felling should be your contact on the 19th.	Amy Felling should be your contact for the 19th. 	52071181	1473278267803	1473278267943		32
100329	1094772	Amy Felling should be your contact on the 19th.	Amy Felling should be your contact for the 19th. 	52071187	1473278267991	1473278268103		89
100329	1094772	Amy Felling should be your contact on the 19th.	Amy Felling should be your contact for the 19th. 	52071193	1473278268120	1473278268263		79
100329	1094772	Amy Felling should be your contact on the 19th.	Amy Felling should be your contact for the 19th. 	52071197	1473278268216	1473278268327		85
100329	1094772	Amy Felling should be your contact on the 19th.	Amy Felling should be your contact for the 19th. 	52071200	1473278268456	1473278268567		82
100329	1094772	Amy Felling should be your contact on the 19th.	Amy Felling should be your contact for the 19th. 	52071205	1473278268600	1473278268759		32
100329	1094772	Amy Felling should be your contact on the 19th.	Amy Felling should be your contact for the 19th. 	52071359	1473278270088	1473278270183		67
100329	1094772	Amy Felling should be your contact on the 19th.	Amy Felling should be your contact for the 19th. 	52071362	1473278270185	1473278270264		79
100329	1094772	Amy Felling should be your contact on the 19th.	Amy Felling should be your contact for the 19th. 	52071365	1473278270392	1473278270460		78
100329	1094772	Amy Felling should be your contact on the 19th.	Amy Felling should be your contact for the 19th. 	52071369	1473278270461	1473278270552		84
100329	1094772	Amy Felling should be your contact on the 19th.	Amy Felling should be your contact for the 19th. 	52071372	1473278270647	1473278270727		65
100329	1094772	Amy Felling should be your contact on the 19th.	Amy Felling should be your contact for the 19th. 	52071437	1473278270808	1473278270887		67
100329	1094772	Amy Felling should be your contact on the 19th.	Amy Felling should be your contact for the 19th. 	52071443	1473278270983	1473278271079		84
100329	1094772	Amy Felling should be your contact on the 19th.	Amy Felling should be your contact for the 19th. 	52071447	1473278271095	1473278271207		32
100329	1094772	Amy Felling should be your contact on the 19th.	Amy Felling should be your contact for the 19th. 	52071450	1473278271240	1473278271352		70
100329	1094772	Amy Felling should be your contact on the 19th.	Amy Felling should be your contact for the 19th. 	52071454	1473278271352	1473278271479		79
100329	1094772	Amy Felling should be your contact on the 19th.	Amy Felling should be your contact for the 19th. 	52071481	1473278271431	1473278271482		82
100329	1094772	Amy Felling should be your contact on the 19th.	Amy Felling should be your contact for the 19th. 	52071485	1473278271483	1473278271625		32
100329	1094772	Amy Felling should be your contact on the 19th.	Amy Felling should be your contact for the 19th. 	52071491	1473278271608	1473278271687		82
100329	1094772	Amy Felling should be your contact on the 19th.	Amy Felling should be your contact for the 19th. 	52071495	1473278271656	1473278271767		72
100329	1094772	Amy Felling should be your contact on the 19th.	Amy Felling should be your contact for the 19th. 	52071500	1473278272087	1473278272119		8
100329	1094772	Amy Felling should be your contact on the 19th.	Amy Felling should be your contact for the 19th. 	52071546	1473278272248	1473278272327		8
100329	1094772	Amy Felling should be your contact on the 19th.	Amy Felling should be your contact for the 19th. 	52071550	1473278272439	1473278272535		8
100329	1094772	Amy Felling should be your contact on the 19th.	Amy Felling should be your contact for the 19th. 	52071558	1473278272583	1473278272696		84
100329	1094772	Amy Felling should be your contact on the 19th.	Amy Felling should be your contact for the 19th. 	52071562	1473278272696	1473278272775		72
100329	1094772	Amy Felling should be your contact on the 19th.	Amy Felling should be your contact for the 19th. 	52071567	1473278272807	1473278272935		69
100329	1094772	Amy Felling should be your contact on the 19th.	Amy Felling should be your contact for the 19th. 	52071707	1473278272903	1473278273015		32
100329	1094772	Amy Felling should be your contact on the 19th.	Amy Felling should be your contact for the 19th. 	52071710	1473278274039	1473278274135		49
100329	1094772	Amy Felling should be your contact on the 19th.	Amy Felling should be your contact for the 19th. 	52071713	1473278274200	1473278274295		57
100329	1094772	Amy Felling should be your contact on the 19th.	Amy Felling should be your contact for the 19th. 	52071718	1473278274455	1473278274535		84
100329	1094772	Amy Felling should be your contact on the 19th.	Amy Felling should be your contact for the 19th. 	52071722	1473278274584	1473278274663		72
100329	1094772	Amy Felling should be your contact on the 19th.	Amy Felling should be your contact for the 19th. 	52071728	1473278275064	1473278275159		190
100329	1094772	Amy Felling should be your contact on the 19th.	Amy Felling should be your contact for the 19th. 	52071721	1473278275207	1473278275287		32
100329	1094794	When things get speculative the language always gets scary.	When things get speculative the language always gets scary. 	52071895	1473278277080	1473278277447	SHIFT	16
100329	1094794	When things get speculative the language always gets scary.	When things get speculative the language always gets scary. 	52071901	1473278277399	1473278277667		87
100329	1094794	When things get speculative the language always gets scary.	When things get speculative the language always gets scary. 	52071906	1473278277668	1473278277766		72
100329	1094794	When things get speculative the language always gets scary.	When things get speculative the language always gets scary. 	52071912	1473278277734	1473278277831		69
100329	1094794	When things get speculative the language always gets scary.	When things get speculative the language always gets scary. 	52071915	1473278277895	1473278277974		78
100329	1094794	When things get speculative the language always gets scary.	When things get speculative the language always gets scary. 	52071967	1473278277959	1473278278086		32
100329	1094794	When things get speculative the language always gets scary.	When things get speculative the language always gets scary. 	52071971	1473278278118	1473278278214		84
100329	1094794	When things get speculative the language always gets scary.	When things get speculative the language always gets scary. 	52071974	1473278278215	1473278278310		72
100329	1094794	When things get speculative the language always gets scary.	When things get speculative the language always gets scary. 	52071980	1473278278311	1473278278454		73
100329	1094794	When things get speculative the language always gets scary.	When things get speculative the language always gets scary. 	52071984	1473278278439	1473278278502		78
100329	1094794	When things get speculative the language always gets scary.	When things get speculative the language always gets scary. 	52071987	1473278278598	1473278278726		71
100329	1094794	When things get speculative the language always gets scary.	When things get speculative the language always gets scary. 	52072049	1473278279096	1473278279207		83
100329	1094794	When things get speculative the language always gets scary.	When things get speculative the language always gets scary. 	52072056	1473278279223	1473278279350		32
100329	1094794	When things get speculative the language always gets scary.	When things get speculative the language always gets scary. 	52072065	1473278279463	1473278279575		71
100329	1094794	When things get speculative the language always gets scary.	When things get speculative the language always gets scary. 	52072073	1473278279671	1473278279782		69
100329	1094794	When things get speculative the language always gets scary.	When things get speculative the language always gets scary. 	52072080	1473278279798	1473278279879		82
100329	1094794	When things get speculative the language always gets scary.	When things get speculative the language always gets scary. 	52072119	1473278279881	1473278279991		32
100329	1094794	When things get speculative the language always gets scary.	When things get speculative the language always gets scary. 	52072121	1473278280198	1473278280285		8
100329	1094794	When things get speculative the language always gets scary.	When things get speculative the language always gets scary. 	52072123	1473278280358	1473278280423		8
100329	1094794	When things get speculative the language always gets scary.	When things get speculative the language always gets scary. 	52072125	1473278280487	1473278280605		8
100329	1094794	When things get speculative the language always gets scary.	When things get speculative the language always gets scary. 	52072247	1473278280583	1473278280712		84
100329	1094794	When things get speculative the language always gets scary.	When things get speculative the language always gets scary. 	52072251	1473278280696	1473278280807		32
100329	1094794	When things get speculative the language always gets scary.	When things get speculative the language always gets scary. 	52072254	1473278280983	1473278281079		83
100329	1094794	When things get speculative the language always gets scary.	When things get speculative the language always gets scary. 	52072258	1473278281239	1473278281351		80
100329	1094794	When things get speculative the language always gets scary.	When things get speculative the language always gets scary. 	52072263	1473278281487	1473278281574		69
100329	1094794	When things get speculative the language always gets scary.	When things get speculative the language always gets scary. 	52072270	1473278281734	1473278281879		67
100329	1094794	When things get speculative the language always gets scary.	When things get speculative the language always gets scary. 	52072389	1473278282359	1473278282471		73
100329	1094794	When things get speculative the language always gets scary.	When things get speculative the language always gets scary. 	52072390	1473278282753	1473278282839		8
100329	1094794	When things get speculative the language always gets scary.	When things get speculative the language always gets scary. 	52072393	1473278282937	1473278283047		85
100329	1094794	When things get speculative the language always gets scary.	When things get speculative the language always gets scary. 	52072396	1473278283303	1473278283415		76
100329	1094794	When things get speculative the language always gets scary.	When things get speculative the language always gets scary. 	52072398	1473278283527	1473278283639		65
100329	1094794	When things get speculative the language always gets scary.	When things get speculative the language always gets scary. 	52072440	1473278283895	1473278283991		84
100329	1094794	When things get speculative the language always gets scary.	When things get speculative the language always gets scary. 	52072445	1473278284106	1473278284199		73
100329	1094794	When things get speculative the language always gets scary.	When things get speculative the language always gets scary. 	52072451	1473278284327	1473278284407		86
100329	1094794	When things get speculative the language always gets scary.	When things get speculative the language always gets scary. 	52072458	1473278284503	1473278284615		69
100329	1094794	When things get speculative the language always gets scary.	When things get speculative the language always gets scary. 	52072462	1473278284616	1473278284743		32
100329	1094794	When things get speculative the language always gets scary.	When things get speculative the language always gets scary. 	52072484	1473278284823	1473278284937		84
100329	1094794	When things get speculative the language always gets scary.	When things get speculative the language always gets scary. 	52072486	1473278284920	1473278285015		72
100329	1094794	When things get speculative the language always gets scary.	When things get speculative the language always gets scary. 	52072489	1473278285047	1473278285159		69
100329	1094794	When things get speculative the language always gets scary.	When things get speculative the language always gets scary. 	52072493	1473278285127	1473278285255		32
100329	1094794	When things get speculative the language always gets scary.	When things get speculative the language always gets scary. 	52072498	1473278285479	1473278285575		76
100329	1094794	When things get speculative the language always gets scary.	When things get speculative the language always gets scary. 	52072559	1473278285623	1473278285751		65
100329	1094794	When things get speculative the language always gets scary.	When things get speculative the language always gets scary. 	52072565	1473278285815	1473278285927		78
100329	1094794	When things get speculative the language always gets scary.	When things get speculative the language always gets scary. 	52072573	1473278286199	1473278286327		70
100329	1094794	When things get speculative the language always gets scary.	When things get speculative the language always gets scary. 	52072580	1473278286519	1473278286599		8
100329	1094794	When things get speculative the language always gets scary.	When things get speculative the language always gets scary. 	52072586	1473278286631	1473278286743		71
100329	1094794	When things get speculative the language always gets scary.	When things get speculative the language always gets scary. 	52072640	1473278286747	1473278286823		85
100329	1094794	When things get speculative the language always gets scary.	When things get speculative the language always gets scary. 	52072644	1473278286919	1473278287031		65
100329	1094794	When things get speculative the language always gets scary.	When things get speculative the language always gets scary. 	52072651	1473278287239	1473278287335		71
100329	1094794	When things get speculative the language always gets scary.	When things get speculative the language always gets scary. 	52072657	1473278287399	1473278287543		69
100329	1094794	When things get speculative the language always gets scary.	When things get speculative the language always gets scary. 	52072744	1473278287512	1473278287671		32
100329	1094794	When things get speculative the language always gets scary.	When things get speculative the language always gets scary. 	52072748	1473278288151	1473278288250		65
100329	1094794	When things get speculative the language always gets scary.	When things get speculative the language always gets scary. 	52072756	1473278288279	1473278288407		76
100329	1094794	When things get speculative the language always gets scary.	When things get speculative the language always gets scary. 	52072762	1473278288439	1473278288535		87
100329	1094794	When things get speculative the language always gets scary.	When things get speculative the language always gets scary. 	52072766	1473278288615	1473278288727		65
100329	1094794	When things get speculative the language always gets scary.	When things get speculative the language always gets scary. 	52072770	1473278288871	1473278288967		89
100329	1094794	When things get speculative the language always gets scary.	When things get speculative the language always gets scary. 	52072861	1473278289351	1473278289479		83
100329	1094794	When things get speculative the language always gets scary.	When things get speculative the language always gets scary. 	52072865	1473278289480	1473278289607		32
100329	1094794	When things get speculative the language always gets scary.	When things get speculative the language always gets scary. 	52072868	1473278289927	1473278290039		71
100329	1094794	When things get speculative the language always gets scary.	When things get speculative the language always gets scary. 	52072874	1473278290151	1473278290279		69
100329	1094794	When things get speculative the language always gets scary.	When things get speculative the language always gets scary. 	52072935	1473278290231	1473278290343		84
100329	1094794	When things get speculative the language always gets scary.	When things get speculative the language always gets scary. 	52072941	1473278290503	1473278290618		83
100329	1094794	When things get speculative the language always gets scary.	When things get speculative the language always gets scary. 	52072948	1473278290599	1473278290727		32
100329	1094794	When things get speculative the language always gets scary.	When things get speculative the language always gets scary. 	52072952	1473278290983	1473278291079		83
100329	1094794	When things get speculative the language always gets scary.	When things get speculative the language always gets scary. 	52072958	1473278291175	1473278291287		67
100329	1094794	When things get speculative the language always gets scary.	When things get speculative the language always gets scary. 	52072964	1473278291288	1473278291399		65
100329	1094794	When things get speculative the language always gets scary.	When things get speculative the language always gets scary. 	52073028	1473278291431	1473278291527		82
100329	1094794	When things get speculative the language always gets scary.	When things get speculative the language always gets scary. 	52073031	1473278291687	1473278291767		89
100329	1094794	When things get speculative the language always gets scary.	When things get speculative the language always gets scary. 	52073038	1473278291927	1473278292039		190
100329	1094794	When things get speculative the language always gets scary.	When things get speculative the language always gets scary. 	52073045	1473278292055	1473278292150		32
100329	1094821	It is not surprising.	It is not surprising.	52073354	1473278294471	1473278294791	SHIFT	16
100329	1094821	It is not surprising.	It is not surprising.	52073356	1473278294663	1473278294791		73
100329	1094821	It is not surprising.	It is not surprising.	52073358	1473278295447	1473278295575		84
100329	1094821	It is not surprising.	It is not surprising.	52073364	1473278295576	1473278295670		32
100329	1094821	It is not surprising.	It is not surprising.	52073369	1473278295751	1473278295847		73
100329	1094821	It is not surprising.	It is not surprising.	52073374	1473278296279	1473278296375		83
100329	1094821	It is not surprising.	It is not surprising.	52073421	1473278296379	1473278296502		32
100329	1094821	It is not surprising.	It is not surprising.	52073426	1473278296695	1473278296775		78
100329	1094821	It is not surprising.	It is not surprising.	52073431	1473278296950	1473278297031		79
100329	1094821	It is not surprising.	It is not surprising.	52073436	1473278297206	1473278297350		84
100329	1094821	It is not surprising.	It is not surprising.	52073599	1473278297319	1473278297430		32
100329	1094821	It is not surprising.	It is not surprising.	52073602	1473278297591	1473278297751		83
100329	1094821	It is not surprising.	It is not surprising.	52073606	1473278297752	1473278297894		85
100329	1094821	It is not surprising.	It is not surprising.	52073612	1473278298807	1473278298902		82
100329	1094821	It is not surprising.	It is not surprising.	52073615	1473278299079	1473278299191		80
100329	1094821	It is not surprising.	It is not surprising.	52073621	1473278299671	1473278299783		82
100329	1094821	It is not surprising.	It is not surprising.	52073651	1473278299911	1473278300006		73
100329	1094821	It is not surprising.	It is not surprising.	52073655	1473278300135	1473278300246		83
100329	1094821	It is not surprising.	It is not surprising.	52073665	1473278300327	1473278300423		84
100329	1094821	It is not surprising.	It is not surprising.	52073670	1473278300391	1473278300534		73
100329	1094821	It is not surprising.	It is not surprising.	52073760	1473278300503	1473278300599		78
100329	1094821	It is not surprising.	It is not surprising.	52073763	1473278300599	1473278300710		71
100329	1094821	It is not surprising.	It is not surprising.	52073767	1473278301543	1473278301607		8
100329	1094821	It is not surprising.	It is not surprising.	52073771	1473278301671	1473278301734		8
100329	1094821	It is not surprising.	It is not surprising.	52073774	1473278301783	1473278301862		8
100329	1094821	It is not surprising.	It is not surprising.	52073777	1473278301911	1473278301974		8
100329	1094821	It is not surprising.	It is not surprising.	52073900	1473278302054	1473278302134		8
100329	1094821	It is not surprising.	It is not surprising.	52073904	1473278302182	1473278302310		8
100329	1094821	It is not surprising.	It is not surprising.	52073906	1473278302503	1473278302646		8
100329	1094821	It is not surprising.	It is not surprising.	52073911	1473278302982	1473278303094		73
100329	1094821	It is not surprising.	It is not surprising.	52073915	1473278303520	1473278303637		8
100329	1094821	It is not surprising.	It is not surprising.	52073989	1473278304023	1473278304134		82
100329	1094821	It is not surprising.	It is not surprising.	52073992	1473278304166	1473278304262		73
100329	1094821	It is not surprising.	It is not surprising.	52074001	1473278304422	1473278304550		83
100329	1094821	It is not surprising.	It is not surprising.	52074008	1473278304854	1473278305062		73
100329	1094821	It is not surprising.	It is not surprising.	52074101	1473278305030	1473278305143		78
100329	1094821	It is not surprising.	It is not surprising.	52074102	1473278305478	1473278305606		71
100329	1094821	It is not surprising.	It is not surprising.	52074104	1473278305958	1473278306054		190
100329	1094846	I'll keep it in miles.	I'll keep it in miles.	52074339	1473278308165	1473278308294	SHIFT	16
100329	1094846	I'll keep it in miles.	I'll keep it in miles.	52074345	1473278308214	1473278308342		73
100329	1094846	I'll keep it in miles.	I'll keep it in miles.	52074350	1473278309718	1473278309782		222
100329	1094846	I'll keep it in miles.	I'll keep it in miles.	52074354	1473278310118	1473278310182		76
100329	1094846	I'll keep it in miles.	I'll keep it in miles.	52074358	1473278310278	1473278310358		76
100329	1094846	I'll keep it in miles.	I'll keep it in miles.	52074361	1473278310359	1473278310454		32
100329	1094846	I'll keep it in miles.	I'll keep it in miles.	52074403	1473278310806	1473278310918		75
100329	1094846	I'll keep it in miles.	I'll keep it in miles.	52074407	1473278310982	1473278311045		69
100329	1094846	I'll keep it in miles.	I'll keep it in miles.	52074413	1473278311142	1473278311254		69
100329	1094846	I'll keep it in miles.	I'll keep it in miles.	52074417	1473278311350	1473278311478		80
100329	1094846	I'll keep it in miles.	I'll keep it in miles.	52074423	1473278311558	1473278311718		32
100329	1094846	I'll keep it in miles.	I'll keep it in miles.	52074494	1473278311781	1473278311894		73
100329	1094846	I'll keep it in miles.	I'll keep it in miles.	52074497	1473278312502	1473278312630		84
100329	1094846	I'll keep it in miles.	I'll keep it in miles.	52074503	1473278312631	1473278312742		32
100329	1094846	I'll keep it in miles.	I'll keep it in miles.	52074508	1473278312758	1473278312838		73
100329	1094846	I'll keep it in miles.	I'll keep it in miles.	52074513	1473278312966	1473278313046		78
100329	1094846	I'll keep it in miles.	I'll keep it in miles.	52074621	1473278313051	1473278313158		32
100329	1094846	I'll keep it in miles.	I'll keep it in miles.	52074625	1473278313206	1473278313318		77
100329	1094846	I'll keep it in miles.	I'll keep it in miles.	52074632	1473278313878	1473278314006		8
100329	1094846	I'll keep it in miles.	I'll keep it in miles.	52074638	1473278314374	1473278314486		77
100329	1094846	I'll keep it in miles.	I'll keep it in miles.	52074643	1473278314550	1473278314662		73
100329	1094846	I'll keep it in miles.	I'll keep it in miles.	52074751	1473278314694	1473278314822		76
100329	1094846	I'll keep it in miles.	I'll keep it in miles.	52074754	1473278314823	1473278314890		69
100329	1094846	I'll keep it in miles.	I'll keep it in miles.	52074758	1473278315014	1473278315142		83
100329	1094846	I'll keep it in miles.	I'll keep it in miles.	52074761	1473278316182	1473278316230		190
100329	1094859	I'll call you in the morning.	ill call you in the morning. 	52074943	1473278318534	1473278318694	SHIFT	16
100329	1094859	I'll call you in the morning.	ill call you in the morning. 	52074947	1473278318695	1473278318790		73
100329	1094859	I'll call you in the morning.	ill call you in the morning. 	52074952	1473278318950	1473278318998		76
100329	1094859	I'll call you in the morning.	ill call you in the morning. 	52074954	1473278319078	1473278319174		76
100329	1094859	I'll call you in the morning.	ill call you in the morning. 	52074956	1473278319175	1473278319269		32
100329	1094859	I'll call you in the morning.	ill call you in the morning. 	52074959	1473278319334	1473278319430		67
100329	1094859	I'll call you in the morning.	ill call you in the morning. 	52075018	1473278319398	1473278319479		65
100329	1094859	I'll call you in the morning.	ill call you in the morning. 	52075019	1473278319510	1473278319574		76
100329	1094859	I'll call you in the morning.	ill call you in the morning. 	52075020	1473278319622	1473278319702		76
100329	1094859	I'll call you in the morning.	ill call you in the morning. 	52075021	1473278319718	1473278319830		32
100329	1094859	I'll call you in the morning.	ill call you in the morning. 	52075022	1473278320230	1473278320342		89
100329	1094859	I'll call you in the morning.	ill call you in the morning. 	52075025	1473278320358	1473278320502		79
100329	1094859	I'll call you in the morning.	ill call you in the morning. 	52075037	1473278320470	1473278320566		85
100329	1094859	I'll call you in the morning.	ill call you in the morning. 	52075042	1473278320567	1473278320662		32
100329	1094859	I'll call you in the morning.	ill call you in the morning. 	52075047	1473278320663	1473278320758		73
100329	1094859	I'll call you in the morning.	ill call you in the morning. 	52075052	1473278320806	1473278320919		78
100329	1094859	I'll call you in the morning.	ill call you in the morning. 	52075057	1473278320920	1473278321030		32
100329	1094859	I'll call you in the morning.	ill call you in the morning. 	52075077	1473278320998	1473278321110		84
100329	1094859	I'll call you in the morning.	ill call you in the morning. 	52075080	1473278321078	1473278321174		72
100329	1094859	I'll call you in the morning.	ill call you in the morning. 	52075081	1473278321206	1473278321317		69
100329	1094859	I'll call you in the morning.	ill call you in the morning. 	52075082	1473278321270	1473278321413		32
100329	1094859	I'll call you in the morning.	ill call you in the morning. 	52075084	1473278321381	1473278321494		77
100329	1094859	I'll call you in the morning.	ill call you in the morning. 	52075087	1473278321510	1473278321638		79
100329	1094859	I'll call you in the morning.	ill call you in the morning. 	52075136	1473278321686	1473278321782		82
100329	1094859	I'll call you in the morning.	ill call you in the morning. 	52075138	1473278322182	1473278322294		78
100329	1094859	I'll call you in the morning.	ill call you in the morning. 	52075139	1473278322342	1473278322486		73
100329	1094859	I'll call you in the morning.	ill call you in the morning. 	52075277	1473278322454	1473278322517		71
100329	1094859	I'll call you in the morning.	ill call you in the morning. 	52075281	1473278323046	1473278323126		8
100329	1094859	I'll call you in the morning.	ill call you in the morning. 	52075285	1473278323190	1473278323390		8
100329	1094859	I'll call you in the morning.	ill call you in the morning. 	52075287	1473278323526	1473278323670		78
100329	1094859	I'll call you in the morning.	ill call you in the morning. 	52075291	1473278323686	1473278323813		71
100329	1094859	I'll call you in the morning.	ill call you in the morning. 	52075294	1473278324992	1473278325045		190
100329	1094859	I'll call you in the morning.	ill call you in the morning. 	52075290	1473278325077	1473278325157		32
