PARTICIPANT_ID	TEST_SECTION_ID	SENTENCE	USER_INPUT	KEYSTROKE_ID	PRESS_TIME	RELEASE_TIME	LETTER	KEYCODE
100498	1096479	They must not be distributed without our consent.	They must not be distributed without our consent.	52151434	1473279837443	1473279837633	SHIFT	16
100498	1096479	They must not be distributed without our consent.	They must not be distributed without our consent.	52151436	1473279837532	1473279837644	T	84
100498	1096479	They must not be distributed without our consent.	They must not be distributed without our consent.	52151441	1473279837723	1473279837801	h	72
100498	1096479	They must not be distributed without our consent.	They must not be distributed without our consent.	52151445	1473279837779	1473279837925	e	69
100498	1096479	They must not be distributed without our consent.	They must not be distributed without our consent.	52151450	1473279837904	1473279837993	y	89
100498	1096479	They must not be distributed without our consent.	They must not be distributed without our consent.	52151508	1473279837982	1473279838071	 	32
100498	1096479	They must not be distributed without our consent.	They must not be distributed without our consent.	52151510	1473279838083	1473279838116	m	77
100498	1096479	They must not be distributed without our consent.	They must not be distributed without our consent.	52151512	1473279838184	1473279838251	u	85
100498	1096479	They must not be distributed without our consent.	They must not be distributed without our consent.	52151513	1473279838229	1473279838330	s	83
100498	1096479	They must not be distributed without our consent.	They must not be distributed without our consent.	52151514	1473279838285	1473279838364	t	84
100498	1096479	They must not be distributed without our consent.	They must not be distributed without our consent.	52151516	1473279838567	1473279838634	BKSP	8
100498	1096479	They must not be distributed without our consent.	They must not be distributed without our consent.	52151519	1473279838713	1473279838758	BKSP	8
100498	1096479	They must not be distributed without our consent.	They must not be distributed without our consent.	52151521	1473279839366	1473279839501	s	83
100498	1096479	They must not be distributed without our consent.	They must not be distributed without our consent.	52151550	1473279839458	1473279839545	t	84
100498	1096479	They must not be distributed without our consent.	They must not be distributed without our consent.	52151555	1473279839557	1473279839658	 	32
100498	1096479	They must not be distributed without our consent.	They must not be distributed without our consent.	52151562	1473279839681	1473279839737	n	78
100498	1096479	They must not be distributed without our consent.	They must not be distributed without our consent.	52151570	1473279839771	1473279839872	o	79
100498	1096479	They must not be distributed without our consent.	They must not be distributed without our consent.	52151578	1473279839883	1473279839995	t	84
100498	1096479	They must not be distributed without our consent.	They must not be distributed without our consent.	52151603	1473279839973	1473279840119	 	32
100498	1096479	They must not be distributed without our consent.	They must not be distributed without our consent.	52151609	1473279840108	1473279840254	b	66
100498	1096479	They must not be distributed without our consent.	They must not be distributed without our consent.	52151613	1473279840220	1473279840322	e	69
100498	1096479	They must not be distributed without our consent.	They must not be distributed without our consent.	52151619	1473279840344	1473279840479	 	32
100498	1096479	They must not be distributed without our consent.	They must not be distributed without our consent.	52151623	1473279840445	1473279840569	d	68
100498	1096479	They must not be distributed without our consent.	They must not be distributed without our consent.	52151643	1473279840547	1473279840625	i	73
100498	1096479	They must not be distributed without our consent.	They must not be distributed without our consent.	52151648	1473279840671	1473279840749	s	83
100498	1096479	They must not be distributed without our consent.	They must not be distributed without our consent.	52151650	1473279840772	1473279840895	t	84
100498	1096479	They must not be distributed without our consent.	They must not be distributed without our consent.	52151655	1473279840850	1473279840996	r	82
100498	1096479	They must not be distributed without our consent.	They must not be distributed without our consent.	52151659	1473279841053	1473279841143	i	73
100498	1096479	They must not be distributed without our consent.	They must not be distributed without our consent.	52151663	1473279841257	1473279841390	b	66
100498	1096479	They must not be distributed without our consent.	They must not be distributed without our consent.	52151686	1473279841402	1473279841480	u	85
100498	1096479	They must not be distributed without our consent.	They must not be distributed without our consent.	52151689	1473279841526	1473279841661	t	84
100498	1096479	They must not be distributed without our consent.	They must not be distributed without our consent.	52151694	1473279841661	1473279841773	e	69
100498	1096479	They must not be distributed without our consent.	They must not be distributed without our consent.	52151697	1473279841852	1473279841930	d	68
100498	1096479	They must not be distributed without our consent.	They must not be distributed without our consent.	52151701	1473279841942	1473279842077	 	32
100498	1096479	They must not be distributed without our consent.	They must not be distributed without our consent.	52151711	1473279842043	1473279842167	w	87
100498	1096479	They must not be distributed without our consent.	They must not be distributed without our consent.	52151712	1473279842224	1473279842301	i	73
100498	1096479	They must not be distributed without our consent.	They must not be distributed without our consent.	52151713	1473279842324	1473279842437	t	84
100498	1096479	They must not be distributed without our consent.	They must not be distributed without our consent.	52151714	1473279842358	1473279842482	h	72
100498	1096479	They must not be distributed without our consent.	They must not be distributed without our consent.	52151715	1473279842516	1473279842617	o	79
100498	1096479	They must not be distributed without our consent.	They must not be distributed without our consent.	52151755	1473279842606	1473279842695	u	85
100498	1096479	They must not be distributed without our consent.	They must not be distributed without our consent.	52151759	1473279842831	1473279842943	t	84
100498	1096479	They must not be distributed without our consent.	They must not be distributed without our consent.	52151764	1473279842999	1473279843145	 	32
100498	1096479	They must not be distributed without our consent.	They must not be distributed without our consent.	52151767	1473279843236	1473279843314	o	79
100498	1096479	They must not be distributed without our consent.	They must not be distributed without our consent.	52151771	1473279843405	1473279843483	u	85
100498	1096479	They must not be distributed without our consent.	They must not be distributed without our consent.	52151775	1473279843539	1473279843618	r	82
100498	1096479	They must not be distributed without our consent.	They must not be distributed without our consent.	52151790	1473279843652	1473279843787	 	32
100498	1096479	They must not be distributed without our consent.	They must not be distributed without our consent.	52151796	1473279843731	1473279843865	c	67
100498	1096479	They must not be distributed without our consent.	They must not be distributed without our consent.	52151803	1473279843854	1473279843967	o	79
100498	1096479	They must not be distributed without our consent.	They must not be distributed without our consent.	52151810	1473279843911	1473279844023	n	78
100498	1096479	They must not be distributed without our consent.	They must not be distributed without our consent.	52151819	1473279844001	1473279844159	s	83
100498	1096479	They must not be distributed without our consent.	They must not be distributed without our consent.	52151820	1473279844057	1473279844180	e	69
100498	1096479	They must not be distributed without our consent.	They must not be distributed without our consent.	52151823	1473279844169	1473279844237	n	78
100498	1096479	They must not be distributed without our consent.	They must not be distributed without our consent.	52151825	1473279844282	1473279844338	t	84
100498	1096479	They must not be distributed without our consent.	They must not be distributed without our consent.	52151827	1473279844428	1473279844529	.	190
100498	1096488	Paris had ruled out participation in such an invasion force.	Paris had ruled out participation in such an invasion force.	52151975	1473279846880	1473279848185	SHIFT	16
100498	1096488	Paris had ruled out participation in such an invasion force.	Paris had ruled out participation in such an invasion force.	52151979	1473279848152	1473279848264	P	80
100498	1096488	Paris had ruled out participation in such an invasion force.	Paris had ruled out participation in such an invasion force.	52151982	1473279848298	1473279848433	a	65
100498	1096488	Paris had ruled out participation in such an invasion force.	Paris had ruled out participation in such an invasion force.	52151985	1473279848388	1473279848500	r	82
100498	1096488	Paris had ruled out participation in such an invasion force.	Paris had ruled out participation in such an invasion force.	52151987	1473279848467	1473279848546	i	73
100498	1096488	Paris had ruled out participation in such an invasion force.	Paris had ruled out participation in such an invasion force.	52151989	1473279848602	1473279848692	s	83
100498	1096488	Paris had ruled out participation in such an invasion force.	Paris had ruled out participation in such an invasion force.	52152011	1473279848703	1473279848827	 	32
100498	1096488	Paris had ruled out participation in such an invasion force.	Paris had ruled out participation in such an invasion force.	52152015	1473279848816	1473279848905	h	72
100498	1096488	Paris had ruled out participation in such an invasion force.	Paris had ruled out participation in such an invasion force.	52152018	1473279848940	1473279849063	a	65
100498	1096488	Paris had ruled out participation in such an invasion force.	Paris had ruled out participation in such an invasion force.	52152021	1473279849086	1473279849198	d	68
100498	1096488	Paris had ruled out participation in such an invasion force.	Paris had ruled out participation in such an invasion force.	52152025	1473279849221	1473279849344	 	32
100498	1096488	Paris had ruled out participation in such an invasion force.	Paris had ruled out participation in such an invasion force.	52152044	1473279849333	1473279849468	r	82
100498	1096488	Paris had ruled out participation in such an invasion force.	Paris had ruled out participation in such an invasion force.	52152048	1473279849413	1473279849480	u	85
100498	1096488	Paris had ruled out participation in such an invasion force.	Paris had ruled out participation in such an invasion force.	52152052	1473279849570	1473279849671	l	76
100498	1096488	Paris had ruled out participation in such an invasion force.	Paris had ruled out participation in such an invasion force.	52152059	1473279849648	1473279849715	e	69
100498	1096488	Paris had ruled out participation in such an invasion force.	Paris had ruled out participation in such an invasion force.	52152063	1473279849783	1473279849850	d	68
100498	1096488	Paris had ruled out participation in such an invasion force.	Paris had ruled out participation in such an invasion force.	52152069	1473279849862	1473279849963	 	32
100498	1096488	Paris had ruled out participation in such an invasion force.	Paris had ruled out participation in such an invasion force.	52152074	1473279849918	1473279849985	o	79
100498	1096488	Paris had ruled out participation in such an invasion force.	Paris had ruled out participation in such an invasion force.	52152077	1473279850008	1473279850075	u	85
100498	1096488	Paris had ruled out participation in such an invasion force.	Paris had ruled out participation in such an invasion force.	52152080	1473279850087	1473279850177	t	84
100498	1096488	Paris had ruled out participation in such an invasion force.	Paris had ruled out participation in such an invasion force.	52152083	1473279850211	1473279850301	 	32
100498	1096488	Paris had ruled out participation in such an invasion force.	Paris had ruled out participation in such an invasion force.	52152084	1473279850244	1473279850357	p	80
100498	1096488	Paris had ruled out participation in such an invasion force.	Paris had ruled out participation in such an invasion force.	52152085	1473279850390	1473279850514	a	65
100498	1096488	Paris had ruled out participation in such an invasion force.	Paris had ruled out participation in such an invasion force.	52152096	1473279850458	1473279850582	r	82
100498	1096488	Paris had ruled out participation in such an invasion force.	Paris had ruled out participation in such an invasion force.	52152098	1473279850525	1473279850660	t	84
100498	1096488	Paris had ruled out participation in such an invasion force.	Paris had ruled out participation in such an invasion force.	52152101	1473279850649	1473279850750	i	73
100498	1096488	Paris had ruled out participation in such an invasion force.	Paris had ruled out participation in such an invasion force.	52152106	1473279850762	1473279850874	c	67
100498	1096488	Paris had ruled out participation in such an invasion force.	Paris had ruled out participation in such an invasion force.	52152109	1473279850874	1473279850964	i	73
100498	1096488	Paris had ruled out participation in such an invasion force.	Paris had ruled out participation in such an invasion force.	52152113	1473279851099	1473279851189	p	80
100498	1096488	Paris had ruled out participation in such an invasion force.	Paris had ruled out participation in such an invasion force.	52152124	1473279851290	1473279851392	a	65
100498	1096488	Paris had ruled out participation in such an invasion force.	Paris had ruled out participation in such an invasion force.	52152127	1473279851348	1473279851459	t	84
100498	1096488	Paris had ruled out participation in such an invasion force.	Paris had ruled out participation in such an invasion force.	52152130	1473279851426	1473279851549	i	73
100498	1096488	Paris had ruled out participation in such an invasion force.	Paris had ruled out participation in such an invasion force.	52152133	1473279851516	1473279851617	o	79
100498	1096488	Paris had ruled out participation in such an invasion force.	Paris had ruled out participation in such an invasion force.	52152156	1473279851583	1473279851673	n	78
100498	1096488	Paris had ruled out participation in such an invasion force.	Paris had ruled out participation in such an invasion force.	52152157	1473279851775	1473279851853	 	32
100498	1096488	Paris had ruled out participation in such an invasion force.	Paris had ruled out participation in such an invasion force.	52152158	1473279851842	1473279851943	i	73
100498	1096488	Paris had ruled out participation in such an invasion force.	Paris had ruled out participation in such an invasion force.	52152159	1473279851932	1473279852010	n	78
100498	1096488	Paris had ruled out participation in such an invasion force.	Paris had ruled out participation in such an invasion force.	52152160	1473279852090	1473279852213	 	32
100498	1096488	Paris had ruled out participation in such an invasion force.	Paris had ruled out participation in such an invasion force.	52152179	1473279852191	1473279852337	s	83
100498	1096488	Paris had ruled out participation in such an invasion force.	Paris had ruled out participation in such an invasion force.	52152181	1473279852326	1473279852415	u	85
100498	1096488	Paris had ruled out participation in such an invasion force.	Paris had ruled out participation in such an invasion force.	52152187	1473279852472	1473279852584	c	67
100498	1096488	Paris had ruled out participation in such an invasion force.	Paris had ruled out participation in such an invasion force.	52152191	1473279852663	1473279852753	h	72
100498	1096488	Paris had ruled out participation in such an invasion force.	Paris had ruled out participation in such an invasion force.	52152195	1473279852776	1473279852888	 	32
100498	1096488	Paris had ruled out participation in such an invasion force.	Paris had ruled out participation in such an invasion force.	52152199	1473279852899	1473279853024	a	65
100498	1096488	Paris had ruled out participation in such an invasion force.	Paris had ruled out participation in such an invasion force.	52152221	1473279853079	1473279853146	n	78
100498	1096488	Paris had ruled out participation in such an invasion force.	Paris had ruled out participation in such an invasion force.	52152224	1473279853237	1473279853338	 	32
100498	1096488	Paris had ruled out participation in such an invasion force.	Paris had ruled out participation in such an invasion force.	52152230	1473279853496	1473279853630	i	73
100498	1096488	Paris had ruled out participation in such an invasion force.	Paris had ruled out participation in such an invasion force.	52152234	1473279853574	1473279853664	n	78
100498	1096488	Paris had ruled out participation in such an invasion force.	Paris had ruled out participation in such an invasion force.	52152238	1473279853698	1473279853821	v	86
100498	1096488	Paris had ruled out participation in such an invasion force.	Paris had ruled out participation in such an invasion force.	52152251	1473279853834	1473279853934	a	65
100498	1096488	Paris had ruled out participation in such an invasion force.	Paris had ruled out participation in such an invasion force.	52152257	1473279853923	1473279854035	s	83
100498	1096488	Paris had ruled out participation in such an invasion force.	Paris had ruled out participation in such an invasion force.	52152260	1473279854047	1473279854170	i	73
100498	1096488	Paris had ruled out participation in such an invasion force.	Paris had ruled out participation in such an invasion force.	52152265	1473279854137	1473279854227	o	79
100498	1096488	Paris had ruled out participation in such an invasion force.	Paris had ruled out participation in such an invasion force.	52152302	1473279854217	1473279854306	n	78
100498	1096488	Paris had ruled out participation in such an invasion force.	Paris had ruled out participation in such an invasion force.	52152307	1473279854385	1473279854530	 	32
100498	1096488	Paris had ruled out participation in such an invasion force.	Paris had ruled out participation in such an invasion force.	52152313	1473279854643	1473279854801	f	70
100498	1096488	Paris had ruled out participation in such an invasion force.	Paris had ruled out participation in such an invasion force.	52152319	1473279854745	1473279854835	o	79
100498	1096488	Paris had ruled out participation in such an invasion force.	Paris had ruled out participation in such an invasion force.	52152323	1473279854812	1473279854913	r	82
100498	1096488	Paris had ruled out participation in such an invasion force.	Paris had ruled out participation in such an invasion force.	52152329	1473279855015	1473279855116	c	67
100498	1096488	Paris had ruled out participation in such an invasion force.	Paris had ruled out participation in such an invasion force.	52152331	1473279855059	1473279855172	e	69
100498	1096488	Paris had ruled out participation in such an invasion force.	Paris had ruled out participation in such an invasion force.	52152332	1473279855262	1473279855341	.	190
100498	1096498	Weinke could have a big game.	Weinke could have a big game.	52152432	1473279857129	1473279857377	SHIFT	16
100498	1096498	Weinke could have a big game.	Weinke could have a big game.	52152434	1473279857276	1473279857433	W	87
100498	1096498	Weinke could have a big game.	Weinke could have a big game.	52152436	1473279857501	1473279857636	e	69
100498	1096498	Weinke could have a big game.	Weinke could have a big game.	52152442	1473279857748	1473279857872	i	73
100498	1096498	Weinke could have a big game.	Weinke could have a big game.	52152448	1473279857805	1473279857917	n	78
100498	1096498	Weinke could have a big game.	Weinke could have a big game.	52152452	1473279858063	1473279858142	k	75
100498	1096498	Weinke could have a big game.	Weinke could have a big game.	52152473	1473279858254	1473279858356	e	69
100498	1096498	Weinke could have a big game.	Weinke could have a big game.	52152476	1473279858401	1473279858502	 	32
100498	1096498	Weinke could have a big game.	Weinke could have a big game.	52152480	1473279858570	1473279858693	c	67
100498	1096498	Weinke could have a big game.	Weinke could have a big game.	52152485	1473279858626	1473279858738	o	79
100498	1096498	Weinke could have a big game.	Weinke could have a big game.	52152492	1473279858705	1473279858772	u	85
100498	1096498	Weinke could have a big game.	Weinke could have a big game.	52152493	1473279858862	1473279858963	l	76
100498	1096498	Weinke could have a big game.	Weinke could have a big game.	52152494	1473279858952	1473279859031	d	68
100498	1096498	Weinke could have a big game.	Weinke could have a big game.	52152495	1473279859042	1473279859155	 	32
100498	1096498	Weinke could have a big game.	Weinke could have a big game.	52152498	1473279859109	1473279859210	h	72
100498	1096498	Weinke could have a big game.	Weinke could have a big game.	52152544	1473279859165	1473279859233	a	65
100498	1096498	Weinke could have a big game.	Weinke could have a big game.	52152546	1473279859289	1473279859413	v	86
100498	1096498	Weinke could have a big game.	Weinke could have a big game.	52152549	1473279859368	1473279859469	e	69
100498	1096498	Weinke could have a big game.	Weinke could have a big game.	52152552	1473279859492	1473279859615	 	32
100498	1096498	Weinke could have a big game.	Weinke could have a big game.	52152554	1473279859706	1473279859784	a	65
100498	1096498	Weinke could have a big game.	Weinke could have a big game.	52152556	1473279859841	1473279859964	 	32
100498	1096498	Weinke could have a big game.	Weinke could have a big game.	52152569	1473279859953	1473279860055	b	66
100498	1096498	Weinke could have a big game.	Weinke could have a big game.	52152573	1473279860043	1473279860121	i	73
100498	1096498	Weinke could have a big game.	Weinke could have a big game.	52152575	1473279860178	1473279860257	g	71
100498	1096498	Weinke could have a big game.	Weinke could have a big game.	52152580	1473279860302	1473279860403	 	32
100498	1096498	Weinke could have a big game.	Weinke could have a big game.	52152581	1473279860392	1473279860527	g	71
100498	1096498	Weinke could have a big game.	Weinke could have a big game.	52152583	1473279860493	1473279860594	a	65
100498	1096498	Weinke could have a big game.	Weinke could have a big game.	52152587	1473279860583	1473279860662	m	77
100498	1096498	Weinke could have a big game.	Weinke could have a big game.	52152593	1473279860707	1473279860786	e	69
100498	1096498	Weinke could have a big game.	Weinke could have a big game.	52152600	1473279860853	1473279860943	.	190
100498	1096504	I will be out on Friday, but any other day is fine.	I will be out on Friday, but any other day is fine.	52152702	1473279862709	1473279863126	SHIFT	16
100498	1096504	I will be out on Friday, but any other day is fine.	I will be out on Friday, but any other day is fine.	52152697	1473279862878	1473279863002	I	73
100498	1096504	I will be out on Friday, but any other day is fine.	I will be out on Friday, but any other day is fine.	52152707	1473279863182	1473279863294	 	32
100498	1096504	I will be out on Friday, but any other day is fine.	I will be out on Friday, but any other day is fine.	52152711	1473279863317	1473279863418	w	87
100498	1096504	I will be out on Friday, but any other day is fine.	I will be out on Friday, but any other day is fine.	52152715	1473279863408	1473279863463	i	73
100498	1096504	I will be out on Friday, but any other day is fine.	I will be out on Friday, but any other day is fine.	52152719	1473279863553	1473279863609	l	76
100498	1096504	I will be out on Friday, but any other day is fine.	I will be out on Friday, but any other day is fine.	52152723	1473279863677	1473279863756	l	76
100498	1096504	I will be out on Friday, but any other day is fine.	I will be out on Friday, but any other day is fine.	52152724	1473279863767	1473279863868	 	32
100498	1096504	I will be out on Friday, but any other day is fine.	I will be out on Friday, but any other day is fine.	52152725	1473279863823	1473279863947	b	66
100498	1096504	I will be out on Friday, but any other day is fine.	I will be out on Friday, but any other day is fine.	52152726	1473279863879	1473279864003	e	69
100498	1096504	I will be out on Friday, but any other day is fine.	I will be out on Friday, but any other day is fine.	52152737	1473279863992	1473279864093	 	32
100498	1096504	I will be out on Friday, but any other day is fine.	I will be out on Friday, but any other day is fine.	52152739	1473279864071	1473279864172	o	79
100498	1096504	I will be out on Friday, but any other day is fine.	I will be out on Friday, but any other day is fine.	52152741	1473279864161	1473279864239	u	85
100498	1096504	I will be out on Friday, but any other day is fine.	I will be out on Friday, but any other day is fine.	52152743	1473279864262	1473279864341	t	84
100498	1096504	I will be out on Friday, but any other day is fine.	I will be out on Friday, but any other day is fine.	52152746	1473279864375	1473279864487	 	32
100498	1096504	I will be out on Friday, but any other day is fine.	I will be out on Friday, but any other day is fine.	52152763	1473279864465	1473279864577	o	79
100498	1096504	I will be out on Friday, but any other day is fine.	I will be out on Friday, but any other day is fine.	52152765	1473279864532	1473279864633	n	78
100498	1096504	I will be out on Friday, but any other day is fine.	I will be out on Friday, but any other day is fine.	52152769	1473279864645	1473279864734	 	32
100498	1096504	I will be out on Friday, but any other day is fine.	I will be out on Friday, but any other day is fine.	52152771	1473279864712	1473279864914	SHIFT	16
100498	1096504	I will be out on Friday, but any other day is fine.	I will be out on Friday, but any other day is fine.	52152774	1473279864813	1473279864948	F	70
100498	1096504	I will be out on Friday, but any other day is fine.	I will be out on Friday, but any other day is fine.	52152775	1473279864982	1473279865061	i	73
100498	1096504	I will be out on Friday, but any other day is fine.	I will be out on Friday, but any other day is fine.	52152776	1473279865072	1473279865196	r	82
100498	1096504	I will be out on Friday, but any other day is fine.	I will be out on Friday, but any other day is fine.	52152856	1473279865297	1473279865443	d	68
100498	1096504	I will be out on Friday, but any other day is fine.	I will be out on Friday, but any other day is fine.	52152859	1473279865544	1473279865735	a	65
100498	1096504	I will be out on Friday, but any other day is fine.	I will be out on Friday, but any other day is fine.	52152864	1473279865646	1473279865780	y	89
100498	1096504	I will be out on Friday, but any other day is fine.	I will be out on Friday, but any other day is fine.	52152868	1473279865871	1473279865994	 	32
100498	1096504	I will be out on Friday, but any other day is fine.	I will be out on Friday, but any other day is fine.	52152872	1473279866354	1473279866422	BKSP	8
100498	1096504	I will be out on Friday, but any other day is fine.	I will be out on Friday, but any other day is fine.	52152875	1473279866512	1473279866557	BKSP	8
100498	1096504	I will be out on Friday, but any other day is fine.	I will be out on Friday, but any other day is fine.	52152878	1473279866636	1473279866703	BKSP	8
100498	1096504	I will be out on Friday, but any other day is fine.	I will be out on Friday, but any other day is fine.	52152884	1473279866782	1473279866849	BKSP	8
100498	1096504	I will be out on Friday, but any other day is fine.	I will be out on Friday, but any other day is fine.	52152890	1473279866928	1473279866996	BKSP	8
100498	1096504	I will be out on Friday, but any other day is fine.	I will be out on Friday, but any other day is fine.	52152896	1473279867074	1473279867142	BKSP	8
100498	1096504	I will be out on Friday, but any other day is fine.	I will be out on Friday, but any other day is fine.	52152902	1473279867378	1473279867479	r	82
100498	1096504	I will be out on Friday, but any other day is fine.	I will be out on Friday, but any other day is fine.	52152927	1473279867446	1473279867502	i	73
100498	1096504	I will be out on Friday, but any other day is fine.	I will be out on Friday, but any other day is fine.	52152930	1473279867592	1473279867694	d	68
100498	1096504	I will be out on Friday, but any other day is fine.	I will be out on Friday, but any other day is fine.	52152934	1473279867705	1473279867839	a	65
100498	1096504	I will be out on Friday, but any other day is fine.	I will be out on Friday, but any other day is fine.	52152937	1473279867783	1473279867895	y	89
100498	1096504	I will be out on Friday, but any other day is fine.	I will be out on Friday, but any other day is fine.	52152939	1473279867997	1473279868098	,	188
100498	1096504	I will be out on Friday, but any other day is fine.	I will be out on Friday, but any other day is fine.	52152943	1473279868256	1473279868357	 	32
100498	1096504	I will be out on Friday, but any other day is fine.	I will be out on Friday, but any other day is fine.	52152964	1473279868571	1473279868683	b	66
100498	1096504	I will be out on Friday, but any other day is fine.	I will be out on Friday, but any other day is fine.	52152966	1473279868672	1473279868751	u	85
100498	1096504	I will be out on Friday, but any other day is fine.	I will be out on Friday, but any other day is fine.	52152968	1473279868762	1473279868852	t	84
100498	1096504	I will be out on Friday, but any other day is fine.	I will be out on Friday, but any other day is fine.	52152971	1473279868863	1473279868953	 	32
100498	1096504	I will be out on Friday, but any other day is fine.	I will be out on Friday, but any other day is fine.	52152974	1473279868976	1473279869077	a	65
100498	1096504	I will be out on Friday, but any other day is fine.	I will be out on Friday, but any other day is fine.	52153004	1473279869066	1473279869145	n	78
100498	1096504	I will be out on Friday, but any other day is fine.	I will be out on Friday, but any other day is fine.	52153005	1473279869213	1473279869302	y	89
100498	1096504	I will be out on Friday, but any other day is fine.	I will be out on Friday, but any other day is fine.	52153007	1473279869336	1473279869459	 	32
100498	1096504	I will be out on Friday, but any other day is fine.	I will be out on Friday, but any other day is fine.	52153008	1473279869471	1473279869583	o	79
100498	1096504	I will be out on Friday, but any other day is fine.	I will be out on Friday, but any other day is fine.	52153010	1473279869639	1473279869752	t	84
100498	1096504	I will be out on Friday, but any other day is fine.	I will be out on Friday, but any other day is fine.	52153027	1473279869707	1473279869808	h	72
100498	1096504	I will be out on Friday, but any other day is fine.	I will be out on Friday, but any other day is fine.	52153030	1473279869797	1473279869921	e	69
100498	1096504	I will be out on Friday, but any other day is fine.	I will be out on Friday, but any other day is fine.	52153035	1473279869887	1473279869966	r	82
100498	1096504	I will be out on Friday, but any other day is fine.	I will be out on Friday, but any other day is fine.	52153038	1473279869977	1473279870101	 	32
100498	1096504	I will be out on Friday, but any other day is fine.	I will be out on Friday, but any other day is fine.	52153042	1473279870067	1473279870180	d	68
100498	1096504	I will be out on Friday, but any other day is fine.	I will be out on Friday, but any other day is fine.	52153056	1473279870168	1473279870281	a	65
100498	1096504	I will be out on Friday, but any other day is fine.	I will be out on Friday, but any other day is fine.	52153058	1473279870236	1473279870337	y	89
100498	1096504	I will be out on Friday, but any other day is fine.	I will be out on Friday, but any other day is fine.	52153061	1473279870337	1473279870449	 	32
100498	1096504	I will be out on Friday, but any other day is fine.	I will be out on Friday, but any other day is fine.	52153064	1473279870404	1473279870505	i	73
100498	1096504	I will be out on Friday, but any other day is fine.	I will be out on Friday, but any other day is fine.	52153067	1473279870494	1473279870618	s	83
100498	1096504	I will be out on Friday, but any other day is fine.	I will be out on Friday, but any other day is fine.	52153084	1473279870597	1473279870719	 	32
100498	1096504	I will be out on Friday, but any other day is fine.	I will be out on Friday, but any other day is fine.	52153090	1473279870664	1473279870787	f	70
100498	1096504	I will be out on Friday, but any other day is fine.	I will be out on Friday, but any other day is fine.	52153097	1473279870742	1473279870832	i	73
100498	1096504	I will be out on Friday, but any other day is fine.	I will be out on Friday, but any other day is fine.	52153107	1473279870798	1473279870888	n	78
100498	1096504	I will be out on Friday, but any other day is fine.	I will be out on Friday, but any other day is fine.	52153114	1473279870877	1473279870955	e	69
100498	1096504	I will be out on Friday, but any other day is fine.	I will be out on Friday, but any other day is fine.	52153123	1473279871057	1473279871147	.	190
100498	1096514	I do not want to repeat.	I do not want to repeat.	52153240	1473279872834	1473279873037	SHIFT	16
100498	1096514	I do not want to repeat.	I do not want to repeat.	52153245	1473279872936	1473279873049	I	73
100498	1096514	I do not want to repeat.	I do not want to repeat.	52153251	1473279873060	1473279873206	 	32
100498	1096514	I do not want to repeat.	I do not want to repeat.	52153258	1473279873138	1473279873273	d	68
100498	1096514	I do not want to repeat.	I do not want to repeat.	52153264	1473279873217	1473279873329	o	79
100498	1096514	I do not want to repeat.	I do not want to repeat.	52153321	1473279873296	1473279873386	n	78
100498	1096514	I do not want to repeat.	I do not want to repeat.	52153322	1473279873499	1473279873633	 	32
100498	1096514	I do not want to repeat.	I do not want to repeat.	52153324	1473279873892	1473279873949	BKSP	8
100498	1096514	I do not want to repeat.	I do not want to repeat.	52153326	1473279874027	1473279874094	BKSP	8
100498	1096514	I do not want to repeat.	I do not want to repeat.	52153330	1473279874207	1473279874286	 	32
100498	1096514	I do not want to repeat.	I do not want to repeat.	52153336	1473279874230	1473279874308	n	78
100498	1096514	I do not want to repeat.	I do not want to repeat.	52153340	1473279874297	1473279874387	o	79
100498	1096514	I do not want to repeat.	I do not want to repeat.	52153347	1473279874399	1473279874466	t	84
100498	1096514	I do not want to repeat.	I do not want to repeat.	52153361	1473279874545	1473279874636	 	32
100498	1096514	I do not want to repeat.	I do not want to repeat.	52153363	1473279874635	1473279874781	w	87
100498	1096514	I do not want to repeat.	I do not want to repeat.	52153365	1473279874759	1473279874882	a	65
100498	1096514	I do not want to repeat.	I do not want to repeat.	52153367	1473279874837	1473279874893	n	78
100498	1096514	I do not want to repeat.	I do not want to repeat.	52153369	1473279874950	1473279875062	t	84
100498	1096514	I do not want to repeat.	I do not want to repeat.	52153389	1473279875118	1473279875253	 	32
100498	1096514	I do not want to repeat.	I do not want to repeat.	52153392	1473279875231	1473279875332	t	84
100498	1096514	I do not want to repeat.	I do not want to repeat.	52153398	1473279875287	1473279875400	o	79
100498	1096514	I do not want to repeat.	I do not want to repeat.	52153403	1473279875411	1473279875545	 	32
100498	1096514	I do not want to repeat.	I do not want to repeat.	52153439	1473279875456	1473279875602	r	82
100498	1096514	I do not want to repeat.	I do not want to repeat.	52153440	1473279875523	1473279875658	e	69
100498	1096514	I do not want to repeat.	I do not want to repeat.	52153441	1473279875647	1473279875748	p	80
100498	1096514	I do not want to repeat.	I do not want to repeat.	52153442	1473279875793	1473279875928	a	65
100498	1096514	I do not want to repeat.	I do not want to repeat.	52153443	1473279876086	1473279876187	BKSP	8
100498	1096514	I do not want to repeat.	I do not want to repeat.	52153444	1473279876176	1473279876288	e	69
100498	1096514	I do not want to repeat.	I do not want to repeat.	52153445	1473279876243	1473279876344	a	65
100498	1096514	I do not want to repeat.	I do not want to repeat.	52153448	1473279876311	1473279876389	t	84
100498	1096514	I do not want to repeat.	I do not want to repeat.	52153451	1473279876401	1473279876457	.	190
100498	1096519	I am unavailable for the 1PM meeting.	I am unavailable for the 1PM meeting.	52153588	1473279878482	1473279878729	SHIFT	16
100498	1096519	I am unavailable for the 1PM meeting.	I am unavailable for the 1PM meeting.	52153591	1473279878662	1473279878786	I	73
100498	1096519	I am unavailable for the 1PM meeting.	I am unavailable for the 1PM meeting.	52153596	1473279878797	1473279878943	 	32
100498	1096519	I am unavailable for the 1PM meeting.	I am unavailable for the 1PM meeting.	52153599	1473279878966	1473279879089	a	65
100498	1096519	I am unavailable for the 1PM meeting.	I am unavailable for the 1PM meeting.	52153601	1473279879078	1473279879191	m	77
100498	1096519	I am unavailable for the 1PM meeting.	I am unavailable for the 1PM meeting.	52153603	1473279879225	1473279879371	 	32
100498	1096519	I am unavailable for the 1PM meeting.	I am unavailable for the 1PM meeting.	52153645	1473279879439	1473279879562	u	85
100498	1096519	I am unavailable for the 1PM meeting.	I am unavailable for the 1PM meeting.	52153647	1473279879528	1473279879641	n	78
100498	1096519	I am unavailable for the 1PM meeting.	I am unavailable for the 1PM meeting.	52153649	1473279879754	1473279879854	a	65
100498	1096519	I am unavailable for the 1PM meeting.	I am unavailable for the 1PM meeting.	52153650	1473279880012	1473279880181	v	86
100498	1096519	I am unavailable for the 1PM meeting.	I am unavailable for the 1PM meeting.	52153651	1473279880204	1473279880327	a	65
100498	1096519	I am unavailable for the 1PM meeting.	I am unavailable for the 1PM meeting.	52153704	1473279880676	1473279880766	i	73
100498	1096519	I am unavailable for the 1PM meeting.	I am unavailable for the 1PM meeting.	52153708	1473279880856	1473279880968	l	76
100498	1096519	I am unavailable for the 1PM meeting.	I am unavailable for the 1PM meeting.	52153710	1473279881047	1473279881159	a	65
100498	1096519	I am unavailable for the 1PM meeting.	I am unavailable for the 1PM meeting.	52153714	1473279881205	1473279881339	b	66
100498	1096519	I am unavailable for the 1PM meeting.	I am unavailable for the 1PM meeting.	52153718	1473279881362	1473279881474	l	76
100498	1096519	I am unavailable for the 1PM meeting.	I am unavailable for the 1PM meeting.	52153739	1473279881486	1473279881575	e	69
100498	1096519	I am unavailable for the 1PM meeting.	I am unavailable for the 1PM meeting.	52153743	1473279881621	1473279881733	 	32
100498	1096519	I am unavailable for the 1PM meeting.	I am unavailable for the 1PM meeting.	52153746	1473279881744	1473279881845	f	70
100498	1096519	I am unavailable for the 1PM meeting.	I am unavailable for the 1PM meeting.	52153749	1473279881823	1473279881936	o	79
100498	1096519	I am unavailable for the 1PM meeting.	I am unavailable for the 1PM meeting.	52153769	1473279881924	1473279882003	r	82
100498	1096519	I am unavailable for the 1PM meeting.	I am unavailable for the 1PM meeting.	52153778	1473279881992	1473279882160	 	32
100498	1096519	I am unavailable for the 1PM meeting.	I am unavailable for the 1PM meeting.	52153783	1473279882071	1473279882206	t	84
100498	1096519	I am unavailable for the 1PM meeting.	I am unavailable for the 1PM meeting.	52153789	1473279882150	1473279882296	h	72
100498	1096519	I am unavailable for the 1PM meeting.	I am unavailable for the 1PM meeting.	52153794	1473279882228	1473279882329	e	69
100498	1096519	I am unavailable for the 1PM meeting.	I am unavailable for the 1PM meeting.	52153800	1473279882364	1473279882532	 	32
100498	1096519	I am unavailable for the 1PM meeting.	I am unavailable for the 1PM meeting.	52153869	1473279882566	1473279882690	1	49
100498	1096519	I am unavailable for the 1PM meeting.	I am unavailable for the 1PM meeting.	52153873	1473279882769	1473279882881	 	32
100498	1096519	I am unavailable for the 1PM meeting.	I am unavailable for the 1PM meeting.	52153892	1473279882825	1473279883510	SHIFT	16
100498	1096519	I am unavailable for the 1PM meeting.	I am unavailable for the 1PM meeting.	52153880	1473279883117	1473279883185	BKSP	8
100498	1096519	I am unavailable for the 1PM meeting.	I am unavailable for the 1PM meeting.	52153886	1473279883275	1473279883342	P	80
100498	1096519	I am unavailable for the 1PM meeting.	I am unavailable for the 1PM meeting.	52153889	1473279883387	1473279883477	M	77
100498	1096519	I am unavailable for the 1PM meeting.	I am unavailable for the 1PM meeting.	52153897	1473279883612	1473279883713	 	32
100498	1096519	I am unavailable for the 1PM meeting.	I am unavailable for the 1PM meeting.	52153928	1473279883904	1473279883995	m	77
100498	1096519	I am unavailable for the 1PM meeting.	I am unavailable for the 1PM meeting.	52153933	1473279883994	1473279884062	e	69
100498	1096519	I am unavailable for the 1PM meeting.	I am unavailable for the 1PM meeting.	52153938	1473279884152	1473279884253	e	69
100498	1096519	I am unavailable for the 1PM meeting.	I am unavailable for the 1PM meeting.	52153944	1473279884242	1473279884354	t	84
100498	1096519	I am unavailable for the 1PM meeting.	I am unavailable for the 1PM meeting.	52153948	1473279884366	1473279884501	i	73
100498	1096519	I am unavailable for the 1PM meeting.	I am unavailable for the 1PM meeting.	52153954	1473279884456	1473279884545	n	78
100498	1096519	I am unavailable for the 1PM meeting.	I am unavailable for the 1PM meeting.	52153958	1473279884535	1473279884579	g	71
100498	1096529	That s all I have to say.	That s all i have to say.	52154522	1473279884692	1473279896347	.	190
100498	1096529	That s all I have to say.	That s all i have to say.	52154118	1473279886886	1473279887122	SHIFT	16
100498	1096529	That s all I have to say.	That s all i have to say.	52154121	1473279887066	1473279887133	T	84
100498	1096529	That s all I have to say.	That s all i have to say.	52154126	1473279887370	1473279887516	h	72
100498	1096529	That s all I have to say.	That s all i have to say.	52154131	1473279888022	1473279888146	 	32
100498	1096529	That s all I have to say.	That s all i have to say.	52154135	1473279888157	1473279888303	s	83
100498	1096529	That s all I have to say.	That s all i have to say.	52154139	1473279888416	1473279888517	 	32
100498	1096529	That s all I have to say.	That s all i have to say.	52154164	1473279888619	1473279888753	a	65
100498	1096529	That s all I have to say.	That s all i have to say.	52154168	1473279888787	1473279888843	l	76
100498	1096529	That s all I have to say.	That s all i have to say.	52154172	1473279888900	1473279889012	l	76
100498	1096529	That s all I have to say.	That s all i have to say.	52154176	1473279889023	1473279889113	 	32
100498	1096529	That s all I have to say.	That s all i have to say.	52154179	1473279889124	1473279889237	i	73
100498	1096529	That s all I have to say.	That s all i have to say.	52154212	1473279889226	1473279889349	 	32
100498	1096529	That s all I have to say.	That s all i have to say.	52154220	1473279889338	1473279889451	h	72
100498	1096529	That s all I have to say.	That s all i have to say.	52154226	1473279889406	1473279889507	a	65
100498	1096529	That s all I have to say.	That s all i have to say.	52154232	1473279889586	1473279889732	v	86
100498	1096529	That s all I have to say.	That s all i have to say.	52154237	1473279889687	1473279889811	e	69
100498	1096529	That s all I have to say.	That s all i have to say.	52154242	1473279889867	1473279889991	 	32
100498	1096529	That s all I have to say.	That s all i have to say.	52154274	1473279890137	1473279890250	t	84
100498	1096529	That s all I have to say.	That s all i have to say.	52154277	1473279890272	1473279890384	o	79
100498	1096529	That s all I have to say.	That s all i have to say.	52154280	1473279890373	1473279890519	 	32
100498	1096529	That s all I have to say.	That s all i have to say.	52154282	1473279890509	1473279890666	s	83
100498	1096529	That s all I have to say.	That s all i have to say.	52154507	1473279890644	1473279890801	a	65
100498	1096529	That s all I have to say.	That s all i have to say.	52154511	1473279890756	1473279890891	y	89
100498	1096529	That s all I have to say.	That s all i have to say.	52154515	1473279893051	1473279893242	a	65
100498	1096529	That s all I have to say.	That s all i have to say.	52154518	1473279893198	1473279893321	t	84
100498	1096551	The Fed has not taken an official position on the issue.	The Fed has not taken an official position on the issue.	52154664	1473279898338	1473279898541	SHIFT	16
100498	1096551	The Fed has not taken an official position on the issue.	The Fed has not taken an official position on the issue.	52154658	1473279898452	1473279898530	T	84
100498	1096551	The Fed has not taken an official position on the issue.	The Fed has not taken an official position on the issue.	52154669	1473279898620	1473279898732	h	72
100498	1096551	The Fed has not taken an official position on the issue.	The Fed has not taken an official position on the issue.	52154675	1473279898687	1473279898811	e	69
100498	1096551	The Fed has not taken an official position on the issue.	The Fed has not taken an official position on the issue.	52154678	1473279898834	1473279898946	 	32
100498	1096551	The Fed has not taken an official position on the issue.	The Fed has not taken an official position on the issue.	52154685	1473279898923	1473279899092	SHIFT	16
100498	1096551	The Fed has not taken an official position on the issue.	The Fed has not taken an official position on the issue.	52154690	1473279899025	1473279899103	F	70
100498	1096551	The Fed has not taken an official position on the issue.	The Fed has not taken an official position on the issue.	52154693	1473279899171	1473279899272	e	69
100498	1096551	The Fed has not taken an official position on the issue.	The Fed has not taken an official position on the issue.	52154696	1473279899340	1473279899441	d	68
100498	1096551	The Fed has not taken an official position on the issue.	The Fed has not taken an official position on the issue.	52154701	1473279899453	1473279899575	 	32
100498	1096551	The Fed has not taken an official position on the issue.	The Fed has not taken an official position on the issue.	52154707	1473279899520	1473279899621	h	72
100498	1096551	The Fed has not taken an official position on the issue.	The Fed has not taken an official position on the issue.	52154725	1473279899587	1473279899643	a	65
100498	1096551	The Fed has not taken an official position on the issue.	The Fed has not taken an official position on the issue.	52154728	1473279899711	1473279899801	s	83
100498	1096551	The Fed has not taken an official position on the issue.	The Fed has not taken an official position on the issue.	52154733	1473279899812	1473279899913	 	32
100498	1096551	The Fed has not taken an official position on the issue.	The Fed has not taken an official position on the issue.	52154736	1473279899937	1473279899981	n	78
100498	1096551	The Fed has not taken an official position on the issue.	The Fed has not taken an official position on the issue.	52154740	1473279899992	1473279900116	o	79
100498	1096551	The Fed has not taken an official position on the issue.	The Fed has not taken an official position on the issue.	52154765	1473279900105	1473279900149	t	84
100498	1096551	The Fed has not taken an official position on the issue.	The Fed has not taken an official position on the issue.	52154770	1473279900183	1473279900329	 	32
100498	1096551	The Fed has not taken an official position on the issue.	The Fed has not taken an official position on the issue.	52154776	1473279900262	1473279900352	t	84
100498	1096551	The Fed has not taken an official position on the issue.	The Fed has not taken an official position on the issue.	52154780	1473279900318	1473279900420	a	65
100498	1096551	The Fed has not taken an official position on the issue.	The Fed has not taken an official position on the issue.	52154785	1473279900397	1473279900476	k	75
100498	1096551	The Fed has not taken an official position on the issue.	The Fed has not taken an official position on the issue.	52154789	1473279900509	1473279900600	e	69
100498	1096551	The Fed has not taken an official position on the issue.	The Fed has not taken an official position on the issue.	52154817	1473279900611	1473279900678	n	78
100498	1096551	The Fed has not taken an official position on the issue.	The Fed has not taken an official position on the issue.	52154820	1473279900712	1473279900825	 	32
100498	1096551	The Fed has not taken an official position on the issue.	The Fed has not taken an official position on the issue.	52154825	1473279900791	1473279900892	a	65
100498	1096551	The Fed has not taken an official position on the issue.	The Fed has not taken an official position on the issue.	52154829	1473279900994	1473279901061	n	78
100498	1096551	The Fed has not taken an official position on the issue.	The Fed has not taken an official position on the issue.	52154832	1473279901219	1473279901342	 	32
100498	1096551	The Fed has not taken an official position on the issue.	The Fed has not taken an official position on the issue.	52154862	1473279901410	1473279901511	o	79
100498	1096551	The Fed has not taken an official position on the issue.	The Fed has not taken an official position on the issue.	52154864	1473279901523	1473279901601	f	70
100498	1096551	The Fed has not taken an official position on the issue.	The Fed has not taken an official position on the issue.	52154870	1473279901680	1473279901770	f	70
100498	1096551	The Fed has not taken an official position on the issue.	The Fed has not taken an official position on the issue.	52154874	1473279901781	1473279901848	i	73
100498	1096551	The Fed has not taken an official position on the issue.	The Fed has not taken an official position on the issue.	52154877	1473279901882	1473279901972	c	67
100498	1096551	The Fed has not taken an official position on the issue.	The Fed has not taken an official position on the issue.	52154896	1473279902029	1473279902118	i	73
100498	1096551	The Fed has not taken an official position on the issue.	The Fed has not taken an official position on the issue.	52154898	1473279902186	1473279902287	a	65
100498	1096551	The Fed has not taken an official position on the issue.	The Fed has not taken an official position on the issue.	52154900	1473279902322	1473279902422	l	76
100498	1096551	The Fed has not taken an official position on the issue.	The Fed has not taken an official position on the issue.	52154903	1473279902467	1473279902557	 	32
100498	1096551	The Fed has not taken an official position on the issue.	The Fed has not taken an official position on the issue.	52154907	1473279902602	1473279902715	p	80
100498	1096551	The Fed has not taken an official position on the issue.	The Fed has not taken an official position on the issue.	52154941	1473279902692	1473279902816	o	79
100498	1096551	The Fed has not taken an official position on the issue.	The Fed has not taken an official position on the issue.	52154946	1473279902884	1473279902996	s	83
100498	1096551	The Fed has not taken an official position on the issue.	The Fed has not taken an official position on the issue.	52154947	1473279902974	1473279903086	i	73
100498	1096551	The Fed has not taken an official position on the issue.	The Fed has not taken an official position on the issue.	52154950	1473279903131	1473279903232	t	84
100498	1096551	The Fed has not taken an official position on the issue.	The Fed has not taken an official position on the issue.	52154953	1473279903210	1473279903333	i	73
100498	1096551	The Fed has not taken an official position on the issue.	The Fed has not taken an official position on the issue.	52154971	1473279903300	1473279903401	o	79
100498	1096551	The Fed has not taken an official position on the issue.	The Fed has not taken an official position on the issue.	52154975	1473279903345	1473279903435	n	78
100498	1096551	The Fed has not taken an official position on the issue.	The Fed has not taken an official position on the issue.	52154979	1473279903559	1473279903648	 	32
100498	1096551	The Fed has not taken an official position on the issue.	The Fed has not taken an official position on the issue.	52154983	1473279903637	1473279903761	o	79
100498	1096551	The Fed has not taken an official position on the issue.	The Fed has not taken an official position on the issue.	52154987	1473279903727	1473279903817	n	78
100498	1096551	The Fed has not taken an official position on the issue.	The Fed has not taken an official position on the issue.	52154990	1473279903851	1473279903963	 	32
100498	1096551	The Fed has not taken an official position on the issue.	The Fed has not taken an official position on the issue.	52155012	1473279903919	1473279904110	t	84
100498	1096551	The Fed has not taken an official position on the issue.	The Fed has not taken an official position on the issue.	52155017	1473279904009	1473279904143	h	72
100498	1096551	The Fed has not taken an official position on the issue.	The Fed has not taken an official position on the issue.	52155021	1473279904121	1473279904223	e	69
100498	1096551	The Fed has not taken an official position on the issue.	The Fed has not taken an official position on the issue.	52155025	1473279904267	1473279904379	 	32
100498	1096551	The Fed has not taken an official position on the issue.	The Fed has not taken an official position on the issue.	52155029	1473279904436	1473279904526	i	73
100498	1096551	The Fed has not taken an official position on the issue.	The Fed has not taken an official position on the issue.	52155032	1473279904548	1473279904604	s	83
100498	1096551	The Fed has not taken an official position on the issue.	The Fed has not taken an official position on the issue.	52155059	1473279904695	1473279904784	s	83
100498	1096551	The Fed has not taken an official position on the issue.	The Fed has not taken an official position on the issue.	52155063	1473279904740	1473279904808	u	85
100498	1096551	The Fed has not taken an official position on the issue.	The Fed has not taken an official position on the issue.	52155066	1473279904852	1473279904919	e	69
100498	1096551	The Fed has not taken an official position on the issue.	The Fed has not taken an official position on the issue.	52155071	1473279904976	1473279905054	.	190
100498	1096560	I haven't really done any studying for it.	I haven't really done any studying for it.	52155194	1473279906787	1473279907046	SHIFT	16
100498	1096560	I haven't really done any studying for it.	I haven't really done any studying for it.	52155192	1473279906911	1473279907035	I	73
100498	1096560	I haven't really done any studying for it.	I haven't really done any studying for it.	52155197	1473279907080	1473279907203	 	32
100498	1096560	I haven't really done any studying for it.	I haven't really done any studying for it.	52155199	1473279907173	1473279907271	h	72
100498	1096560	I haven't really done any studying for it.	I haven't really done any studying for it.	52155202	1473279907248	1473279907304	a	65
100498	1096560	I haven't really done any studying for it.	I haven't really done any studying for it.	52155206	1473279907372	1473279907485	v	86
100498	1096560	I haven't really done any studying for it.	I haven't really done any studying for it.	52155242	1473279907440	1473279907563	e	69
100498	1096560	I haven't really done any studying for it.	I haven't really done any studying for it.	52155245	1473279907665	1473279907732	n	78
100498	1096560	I haven't really done any studying for it.	I haven't really done any studying for it.	52155247	1473279907912	1473279908047	'	222
100498	1096560	I haven't really done any studying for it.	I haven't really done any studying for it.	52155250	1473279908070	1473279908137	t	84
100498	1096560	I haven't really done any studying for it.	I haven't really done any studying for it.	52155254	1473279908227	1473279908317	 	32
100498	1096560	I haven't really done any studying for it.	I haven't really done any studying for it.	52155257	1473279908430	1473279908553	r	82
100498	1096560	I haven't really done any studying for it.	I haven't really done any studying for it.	52155272	1473279908497	1473279908610	e	69
100498	1096560	I haven't really done any studying for it.	I haven't really done any studying for it.	52155274	1473279908565	1473279908688	a	65
100498	1096560	I haven't really done any studying for it.	I haven't really done any studying for it.	52155277	1473279908655	1473279908700	l	76
100498	1096560	I haven't really done any studying for it.	I haven't really done any studying for it.	52155280	1473279908779	1473279908868	l	76
100498	1096560	I haven't really done any studying for it.	I haven't really done any studying for it.	52155284	1473279908835	1473279908913	y	89
100498	1096560	I haven't really done any studying for it.	I haven't really done any studying for it.	52155287	1473279908981	1473279909104	 	32
100498	1096560	I haven't really done any studying for it.	I haven't really done any studying for it.	52155301	1473279909027	1473279909138	d	68
100498	1096560	I haven't really done any studying for it.	I haven't really done any studying for it.	52155305	1473279909094	1473279909217	o	79
100498	1096560	I haven't really done any studying for it.	I haven't really done any studying for it.	52155308	1473279909172	1473279909262	n	78
100498	1096560	I haven't really done any studying for it.	I haven't really done any studying for it.	52155312	1473279909229	1473279909330	e	69
100498	1096560	I haven't really done any studying for it.	I haven't really done any studying for it.	52155316	1473279909364	1473279909476	 	32
100498	1096560	I haven't really done any studying for it.	I haven't really done any studying for it.	52155318	1473279909442	1473279909532	a	65
100498	1096560	I haven't really done any studying for it.	I haven't really done any studying for it.	52155409	1473279909487	1473279909555	n	78
100498	1096560	I haven't really done any studying for it.	I haven't really done any studying for it.	52155413	1473279909656	1473279909746	y	89
100498	1096560	I haven't really done any studying for it.	I haven't really done any studying for it.	52155420	1473279909994	1473279910072	BKSP	8
100498	1096560	I haven't really done any studying for it.	I haven't really done any studying for it.	52155424	1473279910117	1473279910252	 	32
100498	1096560	I haven't really done any studying for it.	I haven't really done any studying for it.	52155428	1473279910488	1473279910567	BKSP	8
100498	1096560	I haven't really done any studying for it.	I haven't really done any studying for it.	52155433	1473279910613	1473279910680	y	89
100498	1096560	I haven't really done any studying for it.	I haven't really done any studying for it.	52155435	1473279910815	1473279910916	 	32
100498	1096560	I haven't really done any studying for it.	I haven't really done any studying for it.	52155437	1473279911175	1473279911298	s	83
100498	1096560	I haven't really done any studying for it.	I haven't really done any studying for it.	52155458	1473279911288	1473279911400	t	84
100498	1096560	I haven't really done any studying for it.	I haven't really done any studying for it.	52155461	1473279911434	1473279911535	u	85
100498	1096560	I haven't really done any studying for it.	I haven't really done any studying for it.	52155465	1473279911591	1473279911659	d	68
100498	1096560	I haven't really done any studying for it.	I haven't really done any studying for it.	52155469	1473279911726	1473279911850	y	89
100498	1096560	I haven't really done any studying for it.	I haven't really done any studying for it.	52155472	1473279911839	1473279911963	i	73
100498	1096560	I haven't really done any studying for it.	I haven't really done any studying for it.	52155489	1473279911895	1473279911985	n	78
100498	1096560	I haven't really done any studying for it.	I haven't really done any studying for it.	52155491	1473279912007	1473279912097	g	71
100498	1096560	I haven't really done any studying for it.	I haven't really done any studying for it.	52155494	1473279912165	1473279912277	 	32
100498	1096560	I haven't really done any studying for it.	I haven't really done any studying for it.	52155498	1473279912266	1473279912401	f	70
100498	1096560	I haven't really done any studying for it.	I haven't really done any studying for it.	52155502	1473279912379	1473279912481	o	79
100498	1096560	I haven't really done any studying for it.	I haven't really done any studying for it.	52155542	1473279912469	1473279912570	r	82
100498	1096560	I haven't really done any studying for it.	I haven't really done any studying for it.	52155544	1473279912559	1473279912693	 	32
100498	1096560	I haven't really done any studying for it.	I haven't really done any studying for it.	52155552	1473279912682	1473279912750	i	73
100498	1096560	I haven't really done any studying for it.	I haven't really done any studying for it.	52155559	1473279912773	1473279912851	t	84
100498	1096568	I wonder if RBS is another institution which could move quickly.	I wonder if RBS is another institution which could move quickly	52155666	1473279914718	1473279914899	SHIFT	16
100498	1096568	I wonder if RBS is another institution which could move quickly.	I wonder if RBS is another institution which could move quickly	52155668	1473279914820	1473279914921	I	73
100498	1096568	I wonder if RBS is another institution which could move quickly.	I wonder if RBS is another institution which could move quickly	52155672	1473279914933	1473279915045	 	32
100498	1096568	I wonder if RBS is another institution which could move quickly.	I wonder if RBS is another institution which could move quickly	52155676	1473279915011	1473279915135	w	87
100498	1096568	I wonder if RBS is another institution which could move quickly.	I wonder if RBS is another institution which could move quickly	52155684	1473279915079	1473279915202	o	79
100498	1096568	I wonder if RBS is another institution which could move quickly.	I wonder if RBS is another institution which could move quickly	52155712	1473279915147	1473279915247	n	78
100498	1096568	I wonder if RBS is another institution which could move quickly.	I wonder if RBS is another institution which could move quickly	52155717	1473279915259	1473279915360	d	68
100498	1096568	I wonder if RBS is another institution which could move quickly.	I wonder if RBS is another institution which could move quickly	52155721	1473279915439	1473279915540	e	69
100498	1096568	I wonder if RBS is another institution which could move quickly.	I wonder if RBS is another institution which could move quickly	52155723	1473279915506	1473279915619	r	82
100498	1096568	I wonder if RBS is another institution which could move quickly.	I wonder if RBS is another institution which could move quickly	52155726	1473279915585	1473279915708	 	32
100498	1096568	I wonder if RBS is another institution which could move quickly.	I wonder if RBS is another institution which could move quickly	52155772	1473279915686	1473279915776	i	73
100498	1096568	I wonder if RBS is another institution which could move quickly.	I wonder if RBS is another institution which could move quickly	52155776	1473279915787	1473279915866	f	70
100498	1096568	I wonder if RBS is another institution which could move quickly.	I wonder if RBS is another institution which could move quickly	52155780	1473279915934	1473279916023	 	32
100498	1096568	I wonder if RBS is another institution which could move quickly.	I wonder if RBS is another institution which could move quickly	52155870	1473279915956	1473279917925	SHIFT	16
100498	1096568	I wonder if RBS is another institution which could move quickly.	I wonder if RBS is another institution which could move quickly	52155784	1473279916069	1473279916136	R	82
100498	1096568	I wonder if RBS is another institution which could move quickly.	I wonder if RBS is another institution which could move quickly	52155787	1473279916203	1473279916322	CTRL	17
100498	1096568	I wonder if RBS is another institution which could move quickly.	I wonder if RBS is another institution which could move quickly	52155789	1473279916429	1473279916518	A	65
100498	1096568	I wonder if RBS is another institution which could move quickly.	I wonder if RBS is another institution which could move quickly	52155794	1473279916777	1473279916867	BKSP	8
100498	1096568	I wonder if RBS is another institution which could move quickly.	I wonder if RBS is another institution which could move quickly	52155846	1473279916856	1473279916957	S	83
100498	1096568	I wonder if RBS is another institution which could move quickly.	I wonder if RBS is another institution which could move quickly	52155848	1473279917092	1473279917137	BKSP	8
100498	1096568	I wonder if RBS is another institution which could move quickly.	I wonder if RBS is another institution which could move quickly	52155851	1473279917419	1473279917509	R	82
100498	1096568	I wonder if RBS is another institution which could move quickly.	I wonder if RBS is another institution which could move quickly	52155856	1473279917531	1473279917610	B	66
100498	1096568	I wonder if RBS is another institution which could move quickly.	I wonder if RBS is another institution which could move quickly	52155861	1473279917666	1473279917790	S	83
100498	1096568	I wonder if RBS is another institution which could move quickly.	I wonder if RBS is another institution which could move quickly	52155866	1473279917812	1473279917914	 	32
100498	1096568	I wonder if RBS is another institution which could move quickly.	I wonder if RBS is another institution which could move quickly	52155872	1473279918206	1473279918285	i	73
100498	1096568	I wonder if RBS is another institution which could move quickly.	I wonder if RBS is another institution which could move quickly	52155891	1473279918420	1473279918498	s	83
100498	1096568	I wonder if RBS is another institution which could move quickly.	I wonder if RBS is another institution which could move quickly	52155894	1473279918533	1473279918645	 	32
100498	1096568	I wonder if RBS is another institution which could move quickly.	I wonder if RBS is another institution which could move quickly	52155898	1473279918634	1473279918746	a	65
100498	1096568	I wonder if RBS is another institution which could move quickly.	I wonder if RBS is another institution which could move quickly	52155904	1473279918757	1473279918813	n	78
100498	1096568	I wonder if RBS is another institution which could move quickly.	I wonder if RBS is another institution which could move quickly	52155905	1473279918915	1473279918960	t	84
100498	1096568	I wonder if RBS is another institution which could move quickly.	I wonder if RBS is another institution which could move quickly	52155920	1473279918983	1473279919061	o	79
100498	1096568	I wonder if RBS is another institution which could move quickly.	I wonder if RBS is another institution which could move quickly	52155922	1473279919207	1473279919275	BKSP	8
100498	1096568	I wonder if RBS is another institution which could move quickly.	I wonder if RBS is another institution which could move quickly	52155924	1473279919331	1473279919410	BKSP	8
100498	1096568	I wonder if RBS is another institution which could move quickly.	I wonder if RBS is another institution which could move quickly	52155928	1473279919477	1473279919545	o	79
100498	1096568	I wonder if RBS is another institution which could move quickly.	I wonder if RBS is another institution which could move quickly	52155933	1473279919556	1473279919636	t	84
100498	1096568	I wonder if RBS is another institution which could move quickly.	I wonder if RBS is another institution which could move quickly	52155937	1473279919613	1473279919714	h	72
100498	1096568	I wonder if RBS is another institution which could move quickly.	I wonder if RBS is another institution which could move quickly	52155969	1473279919703	1473279919837	e	69
100498	1096568	I wonder if RBS is another institution which could move quickly.	I wonder if RBS is another institution which could move quickly	52155973	1473279919770	1473279919905	r	82
100498	1096568	I wonder if RBS is another institution which could move quickly.	I wonder if RBS is another institution which could move quickly	52155978	1473279919894	1473279920006	 	32
100498	1096568	I wonder if RBS is another institution which could move quickly.	I wonder if RBS is another institution which could move quickly	52155982	1473279920580	1473279920726	i	73
100498	1096568	I wonder if RBS is another institution which could move quickly.	I wonder if RBS is another institution which could move quickly	52155990	1473279920658	1473279920771	n	78
100498	1096568	I wonder if RBS is another institution which could move quickly.	I wonder if RBS is another institution which could move quickly	52156013	1473279920748	1473279920894	s	83
100498	1096568	I wonder if RBS is another institution which could move quickly.	I wonder if RBS is another institution which could move quickly	52156019	1473279920929	1473279921018	i	73
100498	1096568	I wonder if RBS is another institution which could move quickly.	I wonder if RBS is another institution which could move quickly	52156026	1473279921187	1473279921254	BKSP	8
100498	1096568	I wonder if RBS is another institution which could move quickly.	I wonder if RBS is another institution which could move quickly	52156033	1473279921289	1473279921401	t	84
100498	1096568	I wonder if RBS is another institution which could move quickly.	I wonder if RBS is another institution which could move quickly	52156039	1473279921379	1473279921434	i	73
100498	1096568	I wonder if RBS is another institution which could move quickly.	I wonder if RBS is another institution which could move quickly	52156045	1473279921558	1473279921660	t	84
100498	1096568	I wonder if RBS is another institution which could move quickly.	I wonder if RBS is another institution which could move quickly	52156165	1473279921649	1473279921783	i	73
100498	1096568	I wonder if RBS is another institution which could move quickly.	I wonder if RBS is another institution which could move quickly	52156172	1473279922222	1473279922278	BKSP	8
100498	1096568	I wonder if RBS is another institution which could move quickly.	I wonder if RBS is another institution which could move quickly	52156179	1473279923224	1473279923268	t	84
100498	1096568	I wonder if RBS is another institution which could move quickly.	I wonder if RBS is another institution which could move quickly	52156184	1473279923336	1473279923403	u	85
100498	1096568	I wonder if RBS is another institution which could move quickly.	I wonder if RBS is another institution which could move quickly	52156189	1473279923662	1473279923707	BKSP	8
100498	1096568	I wonder if RBS is another institution which could move quickly.	I wonder if RBS is another institution which could move quickly	52156193	1473279923809	1473279923853	BKSP	8
100498	1096568	I wonder if RBS is another institution which could move quickly.	I wonder if RBS is another institution which could move quickly	52156196	1473279923966	1473279924067	u	85
100498	1096568	I wonder if RBS is another institution which could move quickly.	I wonder if RBS is another institution which could move quickly	52156198	1473279924135	1473279924236	t	84
100498	1096568	I wonder if RBS is another institution which could move quickly.	I wonder if RBS is another institution which could move quickly	52156221	1473279924214	1473279924337	i	73
100498	1096568	I wonder if RBS is another institution which could move quickly.	I wonder if RBS is another institution which could move quickly	52156230	1473279924293	1473279924393	o	79
100498	1096568	I wonder if RBS is another institution which could move quickly.	I wonder if RBS is another institution which could move quickly	52156234	1473279924371	1473279924483	n	78
100498	1096568	I wonder if RBS is another institution which could move quickly.	I wonder if RBS is another institution which could move quickly	52156241	1473279924517	1473279924618	 	32
100498	1096568	I wonder if RBS is another institution which could move quickly.	I wonder if RBS is another institution which could move quickly	52156246	1473279924754	1473279924832	o	79
100498	1096568	I wonder if RBS is another institution which could move quickly.	I wonder if RBS is another institution which could move quickly	52156249	1473279925001	1473279925080	BKSP	8
100498	1096568	I wonder if RBS is another institution which could move quickly.	I wonder if RBS is another institution which could move quickly	52156261	1473279925069	1473279925170	w	87
100498	1096568	I wonder if RBS is another institution which could move quickly.	I wonder if RBS is another institution which could move quickly	52156265	1473279925136	1473279925237	h	72
100498	1096568	I wonder if RBS is another institution which could move quickly.	I wonder if RBS is another institution which could move quickly	52156272	1473279925204	1473279925282	i	73
100498	1096568	I wonder if RBS is another institution which could move quickly.	I wonder if RBS is another institution which could move quickly	52156276	1473279925327	1473279925417	c	67
100498	1096568	I wonder if RBS is another institution which could move quickly.	I wonder if RBS is another institution which could move quickly	52156279	1473279925474	1473279925552	h	72
100498	1096568	I wonder if RBS is another institution which could move quickly.	I wonder if RBS is another institution which could move quickly	52156284	1473279925586	1473279925732	 	32
100498	1096568	I wonder if RBS is another institution which could move quickly.	I wonder if RBS is another institution which could move quickly	52156320	1473279925698	1473279925833	c	67
100498	1096568	I wonder if RBS is another institution which could move quickly.	I wonder if RBS is another institution which could move quickly	52156324	1473279925743	1473279925844	o	79
100498	1096568	I wonder if RBS is another institution which could move quickly.	I wonder if RBS is another institution which could move quickly	52156331	1473279925980	1473279926070	l	76
100498	1096568	I wonder if RBS is another institution which could move quickly.	I wonder if RBS is another institution which could move quickly	52156340	1473279926104	1473279926205	d	68
100498	1096568	I wonder if RBS is another institution which could move quickly.	I wonder if RBS is another institution which could move quickly	52156346	1473279926216	1473279926351	 	32
100498	1096568	I wonder if RBS is another institution which could move quickly.	I wonder if RBS is another institution which could move quickly	52156348	1473279926554	1473279926621	BKSP	8
100498	1096568	I wonder if RBS is another institution which could move quickly.	I wonder if RBS is another institution which could move quickly	52156353	1473279926700	1473279926745	BKSP	8
100498	1096568	I wonder if RBS is another institution which could move quickly.	I wonder if RBS is another institution which could move quickly	52156360	1473279926835	1473279926892	BKSP	8
100498	1096568	I wonder if RBS is another institution which could move quickly.	I wonder if RBS is another institution which could move quickly	52156368	1473279926992	1473279927026	BKSP	8
100498	1096568	I wonder if RBS is another institution which could move quickly.	I wonder if RBS is another institution which could move quickly	52156375	1473279927139	1473279927195	u	85
100498	1096568	I wonder if RBS is another institution which could move quickly.	I wonder if RBS is another institution which could move quickly	52156432	1473279927408	1473279927498	BKSP	8
100498	1096568	I wonder if RBS is another institution which could move quickly.	I wonder if RBS is another institution which could move quickly	52156436	1473279927600	1473279927701	o	79
100498	1096568	I wonder if RBS is another institution which could move quickly.	I wonder if RBS is another institution which could move quickly	52156443	1473279927690	1473279927769	u	85
100498	1096568	I wonder if RBS is another institution which could move quickly.	I wonder if RBS is another institution which could move quickly	52156447	1473279927881	1473279927982	l	76
100498	1096568	I wonder if RBS is another institution which could move quickly.	I wonder if RBS is another institution which could move quickly	52156451	1473279928174	1473279928252	d	68
100498	1096568	I wonder if RBS is another institution which could move quickly.	I wonder if RBS is another institution which could move quickly	52156457	1473279928703	1473279928871	 	32
100498	1096568	I wonder if RBS is another institution which could move quickly.	I wonder if RBS is another institution which could move quickly	52156490	1473279928860	1473279928938	m	77
100498	1096568	I wonder if RBS is another institution which could move quickly.	I wonder if RBS is another institution which could move quickly	52156494	1473279928916	1473279929051	o	79
100498	1096568	I wonder if RBS is another institution which could move quickly.	I wonder if RBS is another institution which could move quickly	52156497	1473279928995	1473279929152	v	86
100498	1096568	I wonder if RBS is another institution which could move quickly.	I wonder if RBS is another institution which could move quickly	52156502	1473279929074	1473279929220	e	69
100498	1096568	I wonder if RBS is another institution which could move quickly.	I wonder if RBS is another institution which could move quickly	52156505	1473279929186	1473279929321	 	32
100498	1096568	I wonder if RBS is another institution which could move quickly.	I wonder if RBS is another institution which could move quickly	52156508	1473279929377	1473279929501	q	81
100498	1096568	I wonder if RBS is another institution which could move quickly.	I wonder if RBS is another institution which could move quickly	52156534	1473279929479	1473279929546	u	85
100498	1096568	I wonder if RBS is another institution which could move quickly.	I wonder if RBS is another institution which could move quickly	52156536	1473279929625	1473279929703	i	73
100498	1096568	I wonder if RBS is another institution which could move quickly.	I wonder if RBS is another institution which could move quickly	52156539	1473279929737	1473279929839	c	67
100498	1096568	I wonder if RBS is another institution which could move quickly.	I wonder if RBS is another institution which could move quickly	52156541	1473279929861	1473279929951	k	75
100498	1096568	I wonder if RBS is another institution which could move quickly.	I wonder if RBS is another institution which could move quickly	52156548	1473279930086	1473279930199	l	76
100498	1096568	I wonder if RBS is another institution which could move quickly.	I wonder if RBS is another institution which could move quickly	52156552	1473279930211	1473279930255	y	89
100498	1096586	Steve Gilbert is working on this.	Steve Gilbert is working on this.	52156868	1473279912931	1473279936285	.	190
100498	1096586	Steve Gilbert is working on this.	Steve Gilbert is working on this.	52156639	1473279931998	1473279932336	SHIFT	16
100498	1096586	Steve Gilbert is working on this.	Steve Gilbert is working on this.	52156635	1473279932179	1473279932313	S	83
100498	1096586	Steve Gilbert is working on this.	Steve Gilbert is working on this.	52156643	1473279932359	1473279932460	t	84
100498	1096586	Steve Gilbert is working on this.	Steve Gilbert is working on this.	52156647	1473279932437	1473279932549	e	69
100498	1096586	Steve Gilbert is working on this.	Steve Gilbert is working on this.	52156651	1473279932651	1473279932775	v	86
100498	1096586	Steve Gilbert is working on this.	Steve Gilbert is working on this.	52156709	1473279932730	1473279932842	e	69
100498	1096586	Steve Gilbert is working on this.	Steve Gilbert is working on this.	52156711	1473279932899	1473279933011	 	32
100498	1096586	Steve Gilbert is working on this.	Steve Gilbert is working on this.	52156714	1473279932977	1473279933169	SHIFT	16
100498	1096586	Steve Gilbert is working on this.	Steve Gilbert is working on this.	52156716	1473279933056	1473279933180	G	71
100498	1096586	Steve Gilbert is working on this.	Steve Gilbert is working on this.	52156718	1473279933203	1473279933292	i	73
100498	1096586	Steve Gilbert is working on this.	Steve Gilbert is working on this.	52156720	1473279933383	1473279933484	l	76
100498	1096586	Steve Gilbert is working on this.	Steve Gilbert is working on this.	52156723	1473279933810	1473279933922	b	66
100498	1096586	Steve Gilbert is working on this.	Steve Gilbert is working on this.	52156742	1473279933934	1473279934057	e	69
100498	1096586	Steve Gilbert is working on this.	Steve Gilbert is working on this.	52156744	1473279934012	1473279934147	r	82
100498	1096586	Steve Gilbert is working on this.	Steve Gilbert is working on this.	52156746	1473279934361	1473279934451	t	84
100498	1096586	Steve Gilbert is working on this.	Steve Gilbert is working on this.	52156747	1473279934518	1473279934619	 	32
100498	1096586	Steve Gilbert is working on this.	Steve Gilbert is working on this.	52156750	1473279934632	1473279934721	i	73
100498	1096586	Steve Gilbert is working on this.	Steve Gilbert is working on this.	52156777	1473279934744	1473279934833	s	83
100498	1096586	Steve Gilbert is working on this.	Steve Gilbert is working on this.	52156782	1473279934867	1473279934991	 	32
100498	1096586	Steve Gilbert is working on this.	Steve Gilbert is working on this.	52156789	1473279934935	1473279935070	w	87
100498	1096586	Steve Gilbert is working on this.	Steve Gilbert is working on this.	52156794	1473279935059	1473279935148	o	79
100498	1096586	Steve Gilbert is working on this.	Steve Gilbert is working on this.	52156798	1473279935160	1473279935272	r	82
100498	1096586	Steve Gilbert is working on this.	Steve Gilbert is working on this.	52156813	1473279935295	1473279935351	k	75
100498	1096586	Steve Gilbert is working on this.	Steve Gilbert is working on this.	52156817	1473279935363	1473279935498	i	73
100498	1096586	Steve Gilbert is working on this.	Steve Gilbert is working on this.	52156821	1473279935464	1473279935565	n	78
100498	1096586	Steve Gilbert is working on this.	Steve Gilbert is working on this.	52156825	1473279935509	1473279935576	g	71
100498	1096586	Steve Gilbert is working on this.	Steve Gilbert is working on this.	52156828	1473279935655	1473279935711	 	32
100498	1096586	Steve Gilbert is working on this.	Steve Gilbert is working on this.	52156834	1473279935689	1473279935790	o	79
100498	1096586	Steve Gilbert is working on this.	Steve Gilbert is working on this.	52156836	1473279935756	1473279935857	n	78
100498	1096586	Steve Gilbert is working on this.	Steve Gilbert is working on this.	52156842	1473279935835	1473279935947	 	32
100498	1096586	Steve Gilbert is working on this.	Steve Gilbert is working on this.	52156847	1473279935914	1473279936003	t	84
100498	1096586	Steve Gilbert is working on this.	Steve Gilbert is working on this.	52156853	1473279935970	1473279936060	h	72
100498	1096586	Steve Gilbert is working on this.	Steve Gilbert is working on this.	52156861	1473279936016	1473279936093	i	73
100498	1096586	Steve Gilbert is working on this.	Steve Gilbert is working on this.	52156863	1473279936127	1473279936195	s	83
100498	1096593	Do you know if this has been done yet?	Do you know if this has been done yet?	52156993	1473279937860	1473279938051	SHIFT	16
100498	1096593	Do you know if this has been done yet?	Do you know if this has been done yet?	52156996	1473279937972	1473279938119	D	68
100498	1096593	Do you know if this has been done yet?	Do you know if this has been done yet?	52157001	1473279938108	1473279938209	o	79
100498	1096593	Do you know if this has been done yet?	Do you know if this has been done yet?	52157008	1473279938231	1473279938344	 	32
100498	1096593	Do you know if this has been done yet?	Do you know if this has been done yet?	52157012	1473279938322	1473279938400	y	89
100498	1096593	Do you know if this has been done yet?	Do you know if this has been done yet?	52157019	1473279938367	1473279938469	o	79
100498	1096593	Do you know if this has been done yet?	Do you know if this has been done yet?	52157020	1473279938490	1473279938557	u	85
100498	1096593	Do you know if this has been done yet?	Do you know if this has been done yet?	52157021	1473279938591	1473279938692	 	32
100498	1096593	Do you know if this has been done yet?	Do you know if this has been done yet?	52157022	1473279938704	1473279938772	k	75
100498	1096593	Do you know if this has been done yet?	Do you know if this has been done yet?	52157023	1473279938850	1473279938918	n	78
100498	1096593	Do you know if this has been done yet?	Do you know if this has been done yet?	52157051	1473279938906	1473279939018	o	79
100498	1096593	Do you know if this has been done yet?	Do you know if this has been done yet?	52157056	1473279938996	1473279939075	w	87
100498	1096593	Do you know if this has been done yet?	Do you know if this has been done yet?	52157065	1473279939086	1473279939154	 	32
100498	1096593	Do you know if this has been done yet?	Do you know if this has been done yet?	52157071	1473279939131	1473279939232	i	73
100498	1096593	Do you know if this has been done yet?	Do you know if this has been done yet?	52157079	1473279939244	1473279939322	f	70
100498	1096593	Do you know if this has been done yet?	Do you know if this has been done yet?	52157088	1473279939356	1473279939502	 	32
100498	1096593	Do you know if this has been done yet?	Do you know if this has been done yet?	52157162	1473279939412	1473279939558	t	84
100498	1096593	Do you know if this has been done yet?	Do you know if this has been done yet?	52157165	1473279939491	1473279939603	h	72
100498	1096593	Do you know if this has been done yet?	Do you know if this has been done yet?	52157167	1473279939536	1473279939637	i	73
100498	1096593	Do you know if this has been done yet?	Do you know if this has been done yet?	52157170	1473279939671	1473279939772	s	83
100498	1096593	Do you know if this has been done yet?	Do you know if this has been done yet?	52157173	1473279939795	1473279939907	 	32
100498	1096593	Do you know if this has been done yet?	Do you know if this has been done yet?	52157177	1473279940268	1473279940336	BKSP	8
100498	1096593	Do you know if this has been done yet?	Do you know if this has been done yet?	52157183	1473279940414	1473279940470	h	72
100498	1096593	Do you know if this has been done yet?	Do you know if this has been done yet?	52157187	1473279940807	1473279940886	BKSP	8
100498	1096593	Do you know if this has been done yet?	Do you know if this has been done yet?	52157191	1473279940988	1473279941146	 	32
100498	1096593	Do you know if this has been done yet?	Do you know if this has been done yet?	52157200	1473279941033	1473279941167	h	72
100498	1096593	Do you know if this has been done yet?	Do you know if this has been done yet?	52157203	1473279941145	1473279941190	a	65
100498	1096593	Do you know if this has been done yet?	Do you know if this has been done yet?	52157208	1473279941257	1473279941370	s	83
100498	1096593	Do you know if this has been done yet?	Do you know if this has been done yet?	52157212	1473279941404	1473279941505	 	32
100498	1096593	Do you know if this has been done yet?	Do you know if this has been done yet?	52157215	1473279941471	1473279941583	b	66
100498	1096593	Do you know if this has been done yet?	Do you know if this has been done yet?	52157220	1473279941561	1473279941629	e	69
100498	1096593	Do you know if this has been done yet?	Do you know if this has been done yet?	52157223	1473279941707	1473279941797	e	69
100498	1096593	Do you know if this has been done yet?	Do you know if this has been done yet?	52157230	1473279941764	1473279941808	n	78
100498	1096593	Do you know if this has been done yet?	Do you know if this has been done yet?	52157233	1473279941854	1473279941977	 	32
100498	1096593	Do you know if this has been done yet?	Do you know if this has been done yet?	52157237	1473279941899	1473279942022	d	68
100498	1096593	Do you know if this has been done yet?	Do you know if this has been done yet?	52157242	1473279942000	1473279942101	o	79
100498	1096593	Do you know if this has been done yet?	Do you know if this has been done yet?	52157243	1473279942090	1473279942191	n	78
100498	1096593	Do you know if this has been done yet?	Do you know if this has been done yet?	52157250	1473279942203	1473279942281	e	69
100498	1096593	Do you know if this has been done yet?	Do you know if this has been done yet?	52157270	1473279942304	1473279942439	 	32
100498	1096593	Do you know if this has been done yet?	Do you know if this has been done yet?	52157273	1473279942383	1473279942461	y	89
100498	1096593	Do you know if this has been done yet?	Do you know if this has been done yet?	52157278	1473279942451	1473279942562	e	69
100498	1096593	Do you know if this has been done yet?	Do you know if this has been done yet?	52157284	1473279942540	1473279942641	t	84
100498	1096593	Do you know if this has been done yet?	Do you know if this has been done yet?	52157290	1473279942731	1473279942945	SHIFT	16
100498	1096600	He said he would learn more about the injury as the week progressed.	He said he would learn about the injury as the week progressed.	52157392	1473279944396	1473279944576	SHIFT	16
100498	1096600	He said he would learn more about the injury as the week progressed.	He said he would learn about the injury as the week progressed.	52157397	1473279944531	1473279944656	H	72
100498	1096600	He said he would learn more about the injury as the week progressed.	He said he would learn about the injury as the week progressed.	52157401	1473279944666	1473279944767	e	69
100498	1096600	He said he would learn more about the injury as the week progressed.	He said he would learn about the injury as the week progressed.	52157407	1473279944790	1473279944936	 	32
100498	1096600	He said he would learn more about the injury as the week progressed.	He said he would learn about the injury as the week progressed.	52157413	1473279944903	1473279945026	s	83
100498	1096600	He said he would learn more about the injury as the week progressed.	He said he would learn about the injury as the week progressed.	52157425	1473279945015	1473279945105	a	65
100498	1096600	He said he would learn more about the injury as the week progressed.	He said he would learn about the injury as the week progressed.	52157428	1473279945127	1473279945219	i	73
100498	1096600	He said he would learn more about the injury as the week progressed.	He said he would learn about the injury as the week progressed.	52157434	1473279945206	1473279945307	d	68
100498	1096600	He said he would learn more about the injury as the week progressed.	He said he would learn about the injury as the week progressed.	52157437	1473279945319	1473279945408	 	32
100498	1096600	He said he would learn more about the injury as the week progressed.	He said he would learn about the injury as the week progressed.	52157441	1473279945386	1473279945510	h	72
100498	1096600	He said he would learn more about the injury as the week progressed.	He said he would learn about the injury as the week progressed.	52157465	1473279945454	1473279945555	e	69
100498	1096600	He said he would learn more about the injury as the week progressed.	He said he would learn about the injury as the week progressed.	52157469	1473279945577	1473279945724	 	32
100498	1096600	He said he would learn more about the injury as the week progressed.	He said he would learn about the injury as the week progressed.	52157474	1473279945668	1473279945802	w	87
100498	1096600	He said he would learn more about the injury as the week progressed.	He said he would learn about the injury as the week progressed.	52157477	1473279945780	1473279945847	o	79
100498	1096600	He said he would learn more about the injury as the week progressed.	He said he would learn about the injury as the week progressed.	52157481	1473279945836	1473279945892	u	85
100498	1096600	He said he would learn more about the injury as the week progressed.	He said he would learn about the injury as the week progressed.	52157484	1473279946005	1473279946084	l	76
100498	1096600	He said he would learn more about the injury as the week progressed.	He said he would learn about the injury as the week progressed.	52157490	1473279946095	1473279946174	d	68
100498	1096600	He said he would learn more about the injury as the week progressed.	He said he would learn about the injury as the week progressed.	52157493	1473279946163	1473279946320	 	32
100498	1096600	He said he would learn more about the injury as the week progressed.	He said he would learn about the injury as the week progressed.	52157496	1473279946241	1473279946342	l	76
100498	1096600	He said he would learn more about the injury as the week progressed.	He said he would learn about the injury as the week progressed.	52157498	1473279946331	1473279946466	e	69
100498	1096600	He said he would learn more about the injury as the week progressed.	He said he would learn about the injury as the week progressed.	52157507	1473279946410	1473279946545	a	65
100498	1096600	He said he would learn more about the injury as the week progressed.	He said he would learn about the injury as the week progressed.	52157510	1473279946478	1473279946591	r	82
100498	1096600	He said he would learn more about the injury as the week progressed.	He said he would learn about the injury as the week progressed.	52157512	1473279946568	1473279946646	n	78
100498	1096600	He said he would learn more about the injury as the week progressed.	He said he would learn about the injury as the week progressed.	52157515	1473279946691	1473279946804	 	32
100498	1096600	He said he would learn more about the injury as the week progressed.	He said he would learn about the injury as the week progressed.	52157518	1473279946781	1473279946882	a	65
100498	1096600	He said he would learn more about the injury as the week progressed.	He said he would learn about the injury as the week progressed.	52157534	1473279946849	1473279946961	b	66
100498	1096600	He said he would learn more about the injury as the week progressed.	He said he would learn about the injury as the week progressed.	52157540	1473279946939	1473279947017	o	79
100498	1096600	He said he would learn more about the injury as the week progressed.	He said he would learn about the injury as the week progressed.	52157548	1473279947006	1473279947074	u	85
100498	1096600	He said he would learn more about the injury as the week progressed.	He said he would learn about the injury as the week progressed.	52157554	1473279947062	1473279947152	t	84
100498	1096600	He said he would learn more about the injury as the week progressed.	He said he would learn about the injury as the week progressed.	52157558	1473279947175	1473279947287	 	32
100498	1096600	He said he would learn more about the injury as the week progressed.	He said he would learn about the injury as the week progressed.	52157575	1473279947254	1473279947366	t	84
100498	1096600	He said he would learn more about the injury as the week progressed.	He said he would learn about the injury as the week progressed.	52157577	1473279947321	1473279947456	h	72
100498	1096600	He said he would learn more about the injury as the week progressed.	He said he would learn about the injury as the week progressed.	52157582	1473279947400	1473279947512	e	69
100498	1096600	He said he would learn more about the injury as the week progressed.	He said he would learn about the injury as the week progressed.	52157585	1473279947501	1473279947636	 	32
100498	1096600	He said he would learn more about the injury as the week progressed.	He said he would learn about the injury as the week progressed.	52157587	1473279947647	1473279947771	i	73
100498	1096600	He said he would learn more about the injury as the week progressed.	He said he would learn about the injury as the week progressed.	52157614	1473279947704	1473279947805	n	78
100498	1096600	He said he would learn more about the injury as the week progressed.	He said he would learn about the injury as the week progressed.	52157617	1473279947918	1473279948019	j	74
100498	1096600	He said he would learn more about the injury as the week progressed.	He said he would learn about the injury as the week progressed.	52157620	1473279948008	1473279948120	u	85
100498	1096600	He said he would learn more about the injury as the week progressed.	He said he would learn about the injury as the week progressed.	52157624	1473279948188	1473279948345	r	82
100498	1096600	He said he would learn more about the injury as the week progressed.	He said he would learn about the injury as the week progressed.	52157626	1473279948334	1473279948458	y	89
100498	1096600	He said he would learn more about the injury as the week progressed.	He said he would learn about the injury as the week progressed.	52157627	1473279948503	1473279948626	 	32
100498	1096600	He said he would learn more about the injury as the week progressed.	He said he would learn about the injury as the week progressed.	52157628	1473279948604	1473279948716	a	65
100498	1096600	He said he would learn more about the injury as the week progressed.	He said he would learn about the injury as the week progressed.	52157630	1473279948739	1473279948840	s	83
100498	1096600	He said he would learn more about the injury as the week progressed.	He said he would learn about the injury as the week progressed.	52157632	1473279948897	1473279949009	 	32
100498	1096600	He said he would learn more about the injury as the week progressed.	He said he would learn about the injury as the week progressed.	52157636	1473279948964	1473279949110	t	84
100498	1096600	He said he would learn more about the injury as the week progressed.	He said he would learn about the injury as the week progressed.	52157684	1473279949020	1473279949155	h	72
100498	1096600	He said he would learn more about the injury as the week progressed.	He said he would learn about the injury as the week progressed.	52157689	1473279949099	1473279949222	e	69
100498	1096600	He said he would learn more about the injury as the week progressed.	He said he would learn about the injury as the week progressed.	52157695	1473279949245	1473279949357	 	32
100498	1096600	He said he would learn more about the injury as the week progressed.	He said he would learn about the injury as the week progressed.	52157701	1473279949504	1473279949627	w	87
100498	1096600	He said he would learn more about the injury as the week progressed.	He said he would learn about the injury as the week progressed.	52157707	1473279949594	1473279949695	e	69
100498	1096600	He said he would learn more about the injury as the week progressed.	He said he would learn about the injury as the week progressed.	52157713	1473279949774	1473279949909	e	69
100498	1096600	He said he would learn more about the injury as the week progressed.	He said he would learn about the injury as the week progressed.	52157732	1473279949864	1473279949943	k	75
100498	1096600	He said he would learn more about the injury as the week progressed.	He said he would learn about the injury as the week progressed.	52157735	1473279950021	1473279950134	 	32
100498	1096600	He said he would learn more about the injury as the week progressed.	He said he would learn about the injury as the week progressed.	52157741	1473279950179	1473279950314	p	80
100498	1096600	He said he would learn more about the injury as the week progressed.	He said he would learn about the injury as the week progressed.	52157744	1473279950269	1473279950393	r	82
100498	1096600	He said he would learn more about the injury as the week progressed.	He said he would learn about the injury as the week progressed.	52157748	1473279950427	1473279950527	o	79
100498	1096600	He said he would learn more about the injury as the week progressed.	He said he would learn about the injury as the week progressed.	52157791	1473279950516	1473279950651	g	71
100498	1096600	He said he would learn more about the injury as the week progressed.	He said he would learn about the injury as the week progressed.	52157792	1473279950618	1473279950752	r	82
100498	1096600	He said he would learn more about the injury as the week progressed.	He said he would learn about the injury as the week progressed.	52157793	1473279950730	1473279950831	e	69
100498	1096600	He said he would learn more about the injury as the week progressed.	He said he would learn about the injury as the week progressed.	52157796	1473279951034	1473279951113	s	83
100498	1096600	He said he would learn more about the injury as the week progressed.	He said he would learn about the injury as the week progressed.	52157799	1473279951203	1473279951337	s	83
100498	1096600	He said he would learn more about the injury as the week progressed.	He said he would learn about the injury as the week progressed.	52157812	1473279951293	1473279951382	e	69
100498	1096600	He said he would learn more about the injury as the week progressed.	He said he would learn about the injury as the week progressed.	52157814	1473279951394	1473279951495	d	68
100498	1096600	He said he would learn more about the injury as the week progressed.	He said he would learn about the injury as the week progressed.	52157819	1473279951596	1473279951675	.	190
100498	1096613	More jobs are to be eliminated this financial year.	More jobs are to be eliminated this financial year.	52158005	1473279954116	1473279954308	SHIFT	16
100498	1096613	More jobs are to be eliminated this financial year.	More jobs are to be eliminated this financial year.	52158002	1473279954217	1473279954297	M	77
100498	1096613	More jobs are to be eliminated this financial year.	More jobs are to be eliminated this financial year.	52158010	1473279954319	1473279954409	o	79
100498	1096613	More jobs are to be eliminated this financial year.	More jobs are to be eliminated this financial year.	52158016	1473279954398	1473279954510	r	82
100498	1096613	More jobs are to be eliminated this financial year.	More jobs are to be eliminated this financial year.	52158021	1473279954454	1473279954577	e	69
100498	1096613	More jobs are to be eliminated this financial year.	More jobs are to be eliminated this financial year.	52158026	1473279954645	1473279954747	 	32
100498	1096613	More jobs are to be eliminated this financial year.	More jobs are to be eliminated this financial year.	52158058	1473279954758	1473279954825	j	74
100498	1096613	More jobs are to be eliminated this financial year.	More jobs are to be eliminated this financial year.	52158063	1473279954836	1473279954960	o	79
100498	1096613	More jobs are to be eliminated this financial year.	More jobs are to be eliminated this financial year.	52158073	1473279954994	1473279955117	b	66
100498	1096613	More jobs are to be eliminated this financial year.	More jobs are to be eliminated this financial year.	52158078	1473279955084	1473279955185	s	83
100498	1096613	More jobs are to be eliminated this financial year.	More jobs are to be eliminated this financial year.	52158084	1473279955275	1473279955365	 	32
100498	1096613	More jobs are to be eliminated this financial year.	More jobs are to be eliminated this financial year.	52158097	1473279955320	1473279955455	a	65
100498	1096613	More jobs are to be eliminated this financial year.	More jobs are to be eliminated this financial year.	52158101	1473279955410	1473279955545	r	82
100498	1096613	More jobs are to be eliminated this financial year.	More jobs are to be eliminated this financial year.	52158107	1473279955478	1473279955612	e	69
100498	1096613	More jobs are to be eliminated this financial year.	More jobs are to be eliminated this financial year.	52158112	1473279955602	1473279955725	 	32
100498	1096613	More jobs are to be eliminated this financial year.	More jobs are to be eliminated this financial year.	52158122	1473279955692	1473279955804	t	84
100498	1096613	More jobs are to be eliminated this financial year.	More jobs are to be eliminated this financial year.	52158153	1473279955782	1473279955871	o	79
100498	1096613	More jobs are to be eliminated this financial year.	More jobs are to be eliminated this financial year.	52158157	1473279955883	1473279955972	 	32
100498	1096613	More jobs are to be eliminated this financial year.	More jobs are to be eliminated this financial year.	52158159	1473279955928	1473279956051	b	66
100498	1096613	More jobs are to be eliminated this financial year.	More jobs are to be eliminated this financial year.	52158162	1473279956018	1473279956130	e	69
100498	1096613	More jobs are to be eliminated this financial year.	More jobs are to be eliminated this financial year.	52158165	1473279956153	1473279956276	 	32
100498	1096613	More jobs are to be eliminated this financial year.	More jobs are to be eliminated this financial year.	52158169	1473279956310	1473279956411	e	69
100498	1096613	More jobs are to be eliminated this financial year.	More jobs are to be eliminated this financial year.	52158191	1473279956445	1473279956546	l	76
100498	1096613	More jobs are to be eliminated this financial year.	More jobs are to be eliminated this financial year.	52158194	1473279956648	1473279956783	i	73
100498	1096613	More jobs are to be eliminated this financial year.	More jobs are to be eliminated this financial year.	52158198	1473279956760	1473279956861	m	77
100498	1096613	More jobs are to be eliminated this financial year.	More jobs are to be eliminated this financial year.	52158202	1473279956895	1473279957007	i	73
100498	1096613	More jobs are to be eliminated this financial year.	More jobs are to be eliminated this financial year.	52158208	1473279957109	1473279957187	n	78
100498	1096613	More jobs are to be eliminated this financial year.	More jobs are to be eliminated this financial year.	52158226	1473279957345	1473279957457	a	65
100498	1096613	More jobs are to be eliminated this financial year.	More jobs are to be eliminated this financial year.	52158230	1473279957424	1473279957558	t	84
100498	1096613	More jobs are to be eliminated this financial year.	More jobs are to be eliminated this financial year.	52158234	1473279957536	1473279957649	e	69
100498	1096613	More jobs are to be eliminated this financial year.	More jobs are to be eliminated this financial year.	52158239	1473279957671	1473279957840	d	68
100498	1096613	More jobs are to be eliminated this financial year.	More jobs are to be eliminated this financial year.	52158257	1473279957829	1473279957963	 	32
100498	1096613	More jobs are to be eliminated this financial year.	More jobs are to be eliminated this financial year.	52158259	1473279957953	1473279958110	t	84
100498	1096613	More jobs are to be eliminated this financial year.	More jobs are to be eliminated this financial year.	52158261	1473279958032	1473279958177	h	72
100498	1096613	More jobs are to be eliminated this financial year.	More jobs are to be eliminated this financial year.	52158265	1473279958144	1473279958245	i	73
100498	1096613	More jobs are to be eliminated this financial year.	More jobs are to be eliminated this financial year.	52158268	1473279958223	1473279958313	s	83
100498	1096613	More jobs are to be eliminated this financial year.	More jobs are to be eliminated this financial year.	52158272	1473279958369	1473279958493	 	32
100498	1096613	More jobs are to be eliminated this financial year.	More jobs are to be eliminated this financial year.	52158352	1473279958414	1473279958537	f	70
100498	1096613	More jobs are to be eliminated this financial year.	More jobs are to be eliminated this financial year.	52158359	1473279958549	1473279958672	i	73
100498	1096613	More jobs are to be eliminated this financial year.	More jobs are to be eliminated this financial year.	52158365	1473279958684	1473279958774	n	78
100498	1096613	More jobs are to be eliminated this financial year.	More jobs are to be eliminated this financial year.	52158368	1473279958999	1473279959145	c	67
100498	1096613	More jobs are to be eliminated this financial year.	More jobs are to be eliminated this financial year.	52158372	1473279959190	1473279959303	a	65
100498	1096613	More jobs are to be eliminated this financial year.	More jobs are to be eliminated this financial year.	52158373	1473279959573	1473279959640	BKSP	8
100498	1096613	More jobs are to be eliminated this financial year.	More jobs are to be eliminated this financial year.	52158374	1473279959708	1473279959797	BKSP	8
100498	1096613	More jobs are to be eliminated this financial year.	More jobs are to be eliminated this financial year.	52158376	1473279960000	1473279960079	n	78
100498	1096613	More jobs are to be eliminated this financial year.	More jobs are to be eliminated this financial year.	52158431	1473279960326	1473279960416	BKSP	8
100498	1096613	More jobs are to be eliminated this financial year.	More jobs are to be eliminated this financial year.	52158432	1473279960439	1473279960574	a	65
100498	1096613	More jobs are to be eliminated this financial year.	More jobs are to be eliminated this financial year.	52158435	1473279960529	1473279960596	n	78
100498	1096613	More jobs are to be eliminated this financial year.	More jobs are to be eliminated this financial year.	52158438	1473279960720	1473279960799	c	67
100498	1096613	More jobs are to be eliminated this financial year.	More jobs are to be eliminated this financial year.	52158441	1473279960979	1473279961069	i	73
100498	1096613	More jobs are to be eliminated this financial year.	More jobs are to be eliminated this financial year.	52158443	1473279961103	1473279961215	a	65
100498	1096613	More jobs are to be eliminated this financial year.	More jobs are to be eliminated this financial year.	52158473	1473279961204	1473279961294	l	76
100498	1096613	More jobs are to be eliminated this financial year.	More jobs are to be eliminated this financial year.	52158482	1473279961362	1473279961462	 	32
100498	1096613	More jobs are to be eliminated this financial year.	More jobs are to be eliminated this financial year.	52158487	1473279961497	1473279961631	y	89
100498	1096613	More jobs are to be eliminated this financial year.	More jobs are to be eliminated this financial year.	52158493	1473279961564	1473279961755	e	69
100498	1096613	More jobs are to be eliminated this financial year.	More jobs are to be eliminated this financial year.	52158494	1473279961654	1473279961778	a	65
100498	1096613	More jobs are to be eliminated this financial year.	More jobs are to be eliminated this financial year.	52158495	1473279961733	1473279961834	r	82
100498	1096613	More jobs are to be eliminated this financial year.	More jobs are to be eliminated this financial year.	52158496	1473279961857	1473279961924	.	190
100498	1096623	We can discuss options early next week.	We can discuss options early next week.	52158608	1473279963990	1473279964196	SHIFT	16
100498	1096623	We can discuss options early next week.	We can discuss options early next week.	52158610	1473279964118	1473279964264	W	87
100498	1096623	We can discuss options early next week.	We can discuss options early next week.	52158612	1473279964219	1473279964320	e	69
100498	1096623	We can discuss options early next week.	We can discuss options early next week.	52158617	1473279964365	1473279964500	 	32
100498	1096623	We can discuss options early next week.	We can discuss options early next week.	52158624	1473279964478	1473279964601	c	67
100498	1096623	We can discuss options early next week.	We can discuss options early next week.	52158639	1473279964545	1473279964658	a	65
100498	1096623	We can discuss options early next week.	We can discuss options early next week.	52158642	1473279964635	1473279964702	n	78
100498	1096623	We can discuss options early next week.	We can discuss options early next week.	52158646	1473279964748	1473279964871	 	32
100498	1096623	We can discuss options early next week.	We can discuss options early next week.	52158648	1473279964839	1473279964916	d	68
100498	1096623	We can discuss options early next week.	We can discuss options early next week.	52158652	1473279964906	1473279965017	i	73
100498	1096623	We can discuss options early next week.	We can discuss options early next week.	52158688	1473279965006	1473279965085	s	83
100498	1096623	We can discuss options early next week.	We can discuss options early next week.	52158693	1473279965142	1473279965265	c	67
100498	1096623	We can discuss options early next week.	We can discuss options early next week.	52158697	1473279965254	1473279965356	u	85
100498	1096623	We can discuss options early next week.	We can discuss options early next week.	52158702	1473279965378	1473279965445	s	83
100498	1096623	We can discuss options early next week.	We can discuss options early next week.	52158704	1473279965535	1473279965614	s	83
100498	1096623	We can discuss options early next week.	We can discuss options early next week.	52158705	1473279965670	1473279965771	 	32
100498	1096623	We can discuss options early next week.	We can discuss options early next week.	52158716	1473279965738	1473279965861	o	79
100498	1096623	We can discuss options early next week.	We can discuss options early next week.	52158718	1473279965828	1473279965918	p	80
100498	1096623	We can discuss options early next week.	We can discuss options early next week.	52158723	1473279965895	1473279965985	t	84
100498	1096623	We can discuss options early next week.	We can discuss options early next week.	52158728	1473279966008	1473279966131	i	73
100498	1096623	We can discuss options early next week.	We can discuss options early next week.	52158733	1473279966109	1473279966278	o	79
100498	1096623	We can discuss options early next week.	We can discuss options early next week.	52158782	1473279966188	1473279966289	n	78
100498	1096623	We can discuss options early next week.	We can discuss options early next week.	52158786	1473279966300	1473279966391	s	83
100498	1096623	We can discuss options early next week.	We can discuss options early next week.	52158787	1473279966435	1473279966604	 	32
100498	1096623	We can discuss options early next week.	We can discuss options early next week.	52158791	1473279966694	1473279966840	e	69
100498	1096623	We can discuss options early next week.	We can discuss options early next week.	52158792	1473279966807	1473279966975	a	65
100498	1096623	We can discuss options early next week.	We can discuss options early next week.	52158796	1473279967031	1473279967144	r	82
100498	1096623	We can discuss options early next week.	We can discuss options early next week.	52158818	1473279967200	1473279967313	l	76
100498	1096623	We can discuss options early next week.	We can discuss options early next week.	52158820	1473279967291	1473279967380	y	89
100498	1096623	We can discuss options early next week.	We can discuss options early next week.	52158823	1473279967493	1473279967628	 	32
100498	1096623	We can discuss options early next week.	We can discuss options early next week.	52158826	1473279967695	1473279967785	n	78
100498	1096623	We can discuss options early next week.	We can discuss options early next week.	52158843	1473279967775	1473279967853	e	69
100498	1096623	We can discuss options early next week.	We can discuss options early next week.	52158848	1473279967932	1473279968033	x	88
100498	1096623	We can discuss options early next week.	We can discuss options early next week.	52158853	1473279968055	1473279968179	t	84
100498	1096623	We can discuss options early next week.	We can discuss options early next week.	52158859	1473279968168	1473279968280	 	32
100498	1096623	We can discuss options early next week.	We can discuss options early next week.	52158862	1473279968213	1473279968336	w	87
100498	1096623	We can discuss options early next week.	We can discuss options early next week.	52158872	1473279968292	1473279968381	e	69
100498	1096623	We can discuss options early next week.	We can discuss options early next week.	52158879	1473279968449	1473279968539	e	69
100498	1096623	We can discuss options early next week.	We can discuss options early next week.	52158882	1473279968528	1473279968595	k	75
