PARTICIPANT_ID	TEST_SECTION_ID	SENTENCE	USER_INPUT	KEYSTROKE_ID	PRESS_TIME	RELEASE_TIME	LETTER	KEYCODE
100501	1096499	Will let you know how call goes in morning.	Will let you know how call goes in morning.	52152798	1473279865284	1473279865507	SHIFT	16
100501	1096499	Will let you know how call goes in morning.	Will let you know how call goes in morning.	52152799	1473279865419	1473279865523	W	87
100501	1096499	Will let you know how call goes in morning.	Will let you know how call goes in morning.	52152800	1473279865619	1473279865707	i	73
100501	1096499	Will let you know how call goes in morning.	Will let you know how call goes in morning.	52152802	1473279865795	1473279865835	l	76
100501	1096499	Will let you know how call goes in morning.	Will let you know how call goes in morning.	52152804	1473279865939	1473279866043	l	76
100501	1096499	Will let you know how call goes in morning.	Will let you know how call goes in morning.	52152806	1473279866083	1473279866171	 	32
100501	1096499	Will let you know how call goes in morning.	Will let you know how call goes in morning.	52152862	1473279866459	1473279866523	e	69
100501	1096499	Will let you know how call goes in morning.	Will let you know how call goes in morning.	52152866	1473279866547	1473279866651	l	76
100501	1096499	Will let you know how call goes in morning.	Will let you know how call goes in morning.	52152870	1473279866899	1473279866947	BKSP	8
100501	1096499	Will let you know how call goes in morning.	Will let you know how call goes in morning.	52152874	1473279867042	1473279867083	BKSP	8
100501	1096499	Will let you know how call goes in morning.	Will let you know how call goes in morning.	52152879	1473279867251	1473279867363	l	76
100501	1096499	Will let you know how call goes in morning.	Will let you know how call goes in morning.	52152883	1473279867339	1473279867427	e	69
100501	1096499	Will let you know how call goes in morning.	Will let you know how call goes in morning.	52152888	1473279867451	1473279867523	t	84
100501	1096499	Will let you know how call goes in morning.	Will let you know how call goes in morning.	52152913	1473279867547	1473279867619	 	32
100501	1096499	Will let you know how call goes in morning.	Will let you know how call goes in morning.	52152917	1473279867731	1473279867819	y	89
100501	1096499	Will let you know how call goes in morning.	Will let you know how call goes in morning.	52152922	1473279867867	1473279867987	o	79
100501	1096499	Will let you know how call goes in morning.	Will let you know how call goes in morning.	52152924	1473279868011	1473279868056	u	85
100501	1096499	Will let you know how call goes in morning.	Will let you know how call goes in morning.	52152979	1473279868039	1473279868115	 	32
100501	1096499	Will let you know how call goes in morning.	Will let you know how call goes in morning.	52152982	1473279868179	1473279868300	k	75
100501	1096499	Will let you know how call goes in morning.	Will let you know how call goes in morning.	52152985	1473279868283	1473279868429	n	78
100501	1096499	Will let you know how call goes in morning.	Will let you know how call goes in morning.	52152989	1473279868395	1473279868523	o	79
100501	1096499	Will let you know how call goes in morning.	Will let you know how call goes in morning.	52152995	1473279868987	1473279869091	w	87
100501	1096499	Will let you know how call goes in morning.	Will let you know how call goes in morning.	52152998	1473279869171	1473279869219	 	32
100501	1096499	Will let you know how call goes in morning.	Will let you know how call goes in morning.	52153054	1473279869379	1473279869475	h	72
100501	1096499	Will let you know how call goes in morning.	Will let you know how call goes in morning.	52153057	1473279869491	1473279869547	a	65
100501	1096499	Will let you know how call goes in morning.	Will let you know how call goes in morning.	52153060	1473279869571	1473279869675	o	79
100501	1096499	Will let you know how call goes in morning.	Will let you know how call goes in morning.	52153063	1473279869922	1473279869979	BKSP	8
100501	1096499	Will let you know how call goes in morning.	Will let you know how call goes in morning.	52153066	1473279870059	1473279870123	BKSP	8
100501	1096499	Will let you know how call goes in morning.	Will let you know how call goes in morning.	52153070	1473279870259	1473279870363	o	79
100501	1096499	Will let you know how call goes in morning.	Will let you know how call goes in morning.	52153073	1473279870387	1473279870451	w	87
100501	1096499	Will let you know how call goes in morning.	Will let you know how call goes in morning.	52153095	1473279870483	1473279870571	 	32
100501	1096499	Will let you know how call goes in morning.	Will let you know how call goes in morning.	52153102	1473279870771	1473279870915	c	67
100501	1096499	Will let you know how call goes in morning.	Will let you know how call goes in morning.	52153111	1473279870899	1473279870998	a	65
100501	1096499	Will let you know how call goes in morning.	Will let you know how call goes in morning.	52153120	1473279870971	1473279871035	l	76
100501	1096499	Will let you know how call goes in morning.	Will let you know how call goes in morning.	52153128	1473279871147	1473279871210	l	76
100501	1096499	Will let you know how call goes in morning.	Will let you know how call goes in morning.	52153162	1473279871226	1473279871339	 	32
100501	1096499	Will let you know how call goes in morning.	Will let you know how call goes in morning.	52153166	1473279871427	1473279871498	g	71
100501	1096499	Will let you know how call goes in morning.	Will let you know how call goes in morning.	52153172	1473279871483	1473279871595	o	79
100501	1096499	Will let you know how call goes in morning.	Will let you know how call goes in morning.	52153176	1473279871579	1473279871667	e	69
100501	1096499	Will let you know how call goes in morning.	Will let you know how call goes in morning.	52153178	1473279871763	1473279871891	s	83
100501	1096499	Will let you know how call goes in morning.	Will let you know how call goes in morning.	52153200	1473279871834	1473279871923	 	32
100501	1096499	Will let you know how call goes in morning.	Will let you know how call goes in morning.	52153207	1473279872051	1473279872158	i	73
100501	1096499	Will let you know how call goes in morning.	Will let you know how call goes in morning.	52153213	1473279872123	1473279872275	n	78
100501	1096499	Will let you know how call goes in morning.	Will let you know how call goes in morning.	52153216	1473279872299	1473279872379	 	32
100501	1096499	Will let you know how call goes in morning.	Will let you know how call goes in morning.	52153220	1473279872571	1473279872620	m	77
100501	1096499	Will let you know how call goes in morning.	Will let you know how call goes in morning.	52153246	1473279872603	1473279872682	o	79
100501	1096499	Will let you know how call goes in morning.	Will let you know how call goes in morning.	52153249	1473279872723	1473279872802	r	82
100501	1096499	Will let you know how call goes in morning.	Will let you know how call goes in morning.	52153259	1473279872851	1473279872963	n	78
100501	1096499	Will let you know how call goes in morning.	Will let you know how call goes in morning.	52153265	1473279872979	1473279873119	i	73
100501	1096499	Will let you know how call goes in morning.	Will let you know how call goes in morning.	52153268	1473279873083	1473279873227	n	78
100501	1096499	Will let you know how call goes in morning.	Will let you know how call goes in morning.	52153273	1473279873179	1473279873243	g	71
100501	1096499	Will let you know how call goes in morning.	Will let you know how call goes in morning.	52153278	1473279873387	1473279873483	.	190
100501	1096518	They've really caught the fever.	They've really caught the fever.	52153553	1473279877731	1473279877894	SHIFT	16
100501	1096518	They've really caught the fever.	They've really caught the fever.	52153559	1473279877875	1473279877946	T	84
100501	1096518	They've really caught the fever.	They've really caught the fever.	52153563	1473279877995	1473279878059	h	72
100501	1096518	They've really caught the fever.	They've really caught the fever.	52153567	1473279878083	1473279878155	e	69
100501	1096518	They've really caught the fever.	They've really caught the fever.	52153572	1473279878195	1473279878267	y	89
100501	1096518	They've really caught the fever.	They've really caught the fever.	52153576	1473279878395	1473279878515	'	222
100501	1096518	They've really caught the fever.	They've really caught the fever.	52153583	1473279878499	1473279878562	v	86
100501	1096518	They've really caught the fever.	They've really caught the fever.	52153585	1473279878667	1473279878763	e	69
100501	1096518	They've really caught the fever.	They've really caught the fever.	52153589	1473279878803	1473279878890	 	32
100501	1096518	They've really caught the fever.	They've really caught the fever.	52153593	1473279879011	1473279879099	r	82
100501	1096518	They've really caught the fever.	They've really caught the fever.	52153597	1473279879123	1473279879227	e	69
100501	1096518	They've really caught the fever.	They've really caught the fever.	52153668	1473279879211	1473279879290	a	65
100501	1096518	They've really caught the fever.	They've really caught the fever.	52153671	1473279879346	1473279879411	l	76
100501	1096518	They've really caught the fever.	They've really caught the fever.	52153674	1473279879507	1473279879571	l	76
100501	1096518	They've really caught the fever.	They've really caught the fever.	52153677	1473279879755	1473279879867	 	32
100501	1096518	They've really caught the fever.	They've really caught the fever.	52153679	1473279880227	1473279880299	BKSP	8
100501	1096518	They've really caught the fever.	They've really caught the fever.	52153682	1473279880427	1473279880507	y	89
100501	1096518	They've really caught the fever.	They've really caught the fever.	52153683	1473279880587	1473279880675	 	32
100501	1096518	They've really caught the fever.	They've really caught the fever.	52153711	1473279880755	1473279880891	c	67
100501	1096518	They've really caught the fever.	They've really caught the fever.	52153715	1473279880907	1473279881000	a	65
100501	1096518	They've really caught the fever.	They've really caught the fever.	52153719	1473279880971	1473279881059	u	85
100501	1096518	They've really caught the fever.	They've really caught the fever.	52153723	1473279881307	1473279881379	g	71
100501	1096518	They've really caught the fever.	They've really caught the fever.	52153730	1473279881411	1473279881515	h	72
100501	1096518	They've really caught the fever.	They've really caught the fever.	52153753	1473279881611	1473279881699	t	84
100501	1096518	They've really caught the fever.	They've really caught the fever.	52153757	1473279881731	1473279881795	 	32
100501	1096518	They've really caught the fever.	They've really caught the fever.	52153760	1473279881907	1473279881971	t	84
100501	1096518	They've really caught the fever.	They've really caught the fever.	52153765	1473279881955	1473279882059	h	72
100501	1096518	They've really caught the fever.	They've really caught the fever.	52153776	1473279882075	1473279882163	e	69
100501	1096518	They've really caught the fever.	They've really caught the fever.	52153835	1473279882187	1473279882283	 	32
100501	1096518	They've really caught the fever.	They've really caught the fever.	52153841	1473279882571	1473279882651	f	70
100501	1096518	They've really caught the fever.	They've really caught the fever.	52153851	1473279882715	1473279882811	e	69
100501	1096518	They've really caught the fever.	They've really caught the fever.	52153855	1473279882907	1473279882995	v	86
100501	1096518	They've really caught the fever.	They've really caught the fever.	52153858	1473279883051	1473279883211	e	69
100501	1096518	They've really caught the fever.	They've really caught the fever.	52153874	1473279883155	1473279883283	r	82
100501	1096518	They've really caught the fever.	They've really caught the fever.	52153879	1473279883443	1473279883507	.	190
100501	1096528	Will you come get me?	Will you come get me?	52154104	1473279886987	1473279887122	SHIFT	16
100501	1096528	Will you come get me?	Will you come get me?	52154106	1473279887091	1473279887187	W	87
100501	1096528	Will you come get me?	Will you come get me?	52154107	1473279887203	1473279887299	i	73
100501	1096528	Will you come get me?	Will you come get me?	52154108	1473279887323	1473279887379	l	76
100501	1096528	Will you come get me?	Will you come get me?	52154109	1473279887483	1473279887579	l	76
100501	1096528	Will you come get me?	Will you come get me?	52154110	1473279887611	1473279887699	 	32
100501	1096528	Will you come get me?	Will you come get me?	52154149	1473279887771	1473279887859	y	89
100501	1096528	Will you come get me?	Will you come get me?	52154150	1473279887882	1473279888023	o	79
100501	1096528	Will you come get me?	Will you come get me?	52154152	1473279887971	1473279888107	u	85
100501	1096528	Will you come get me?	Will you come get me?	52154153	1473279888083	1473279888186	 	32
100501	1096528	Will you come get me?	Will you come get me?	52154156	1473279888715	1473279888806	c	67
100501	1096528	Will you come get me?	Will you come get me?	52154204	1473279888786	1473279888914	o	79
100501	1096528	Will you come get me?	Will you come get me?	52154208	1473279888882	1473279889010	m	77
100501	1096528	Will you come get me?	Will you come get me?	52154215	1473279888995	1473279889074	e	69
100501	1096528	Will you come get me?	Will you come get me?	52154222	1473279889187	1473279889282	 	32
100501	1096528	Will you come get me?	Will you come get me?	52154229	1473279889531	1473279889602	g	71
100501	1096528	Will you come get me?	Will you come get me?	52154234	1473279889674	1473279889802	e	69
100501	1096528	Will you come get me?	Will you come get me?	52154283	1473279889770	1473279889874	t	84
100501	1096528	Will you come get me?	Will you come get me?	52154285	1473279889898	1473279889986	 	32
100501	1096528	Will you come get me?	Will you come get me?	52154288	1473279890082	1473279890178	m	77
100501	1096528	Will you come get me?	Will you come get me?	52154291	1473279890162	1473279890250	e	69
100501	1096528	Will you come get me?	Will you come get me?	52154294	1473279890379	1473279890562	SHIFT	16
100501	1096528	Will you come get me?	Will you come get me?	52154298	1473279890458	1473279890578	?	191
100501	1096542	Let Gary Smith know today if you want him.	Let Gary Smith know today if you want him.	52154659	1473279898146	1473279898274	SHIFT	16
100501	1096542	Let Gary Smith know today if you want him.	Let Gary Smith know today if you want him.	52154661	1473279898243	1473279898352	L	76
100501	1096542	Let Gary Smith know today if you want him.	Let Gary Smith know today if you want him.	52154666	1473279898322	1473279898442	e	69
100501	1096542	Let Gary Smith know today if you want him.	Let Gary Smith know today if you want him.	52154671	1473279898466	1473279898546	t	84
100501	1096542	Let Gary Smith know today if you want him.	Let Gary Smith know today if you want him.	52154676	1473279898578	1473279898658	 	32
100501	1096542	Let Gary Smith know today if you want him.	Let Gary Smith know today if you want him.	52154683	1473279898922	1473279899050	SHIFT	16
100501	1096542	Let Gary Smith know today if you want him.	Let Gary Smith know today if you want him.	52154732	1473279898978	1473279899074	G	71
100501	1096542	Let Gary Smith know today if you want him.	Let Gary Smith know today if you want him.	52154738	1473279899154	1473279899298	a	65
100501	1096542	Let Gary Smith know today if you want him.	Let Gary Smith know today if you want him.	52154741	1473279899282	1473279899378	r	82
100501	1096542	Let Gary Smith know today if you want him.	Let Gary Smith know today if you want him.	52154745	1473279899594	1473279899698	y	89
100501	1096542	Let Gary Smith know today if you want him.	Let Gary Smith know today if you want him.	52154749	1473279899738	1473279899850	 	32
100501	1096542	Let Gary Smith know today if you want him.	Let Gary Smith know today if you want him.	52154754	1473279899962	1473279900138	SHIFT	16
100501	1096542	Let Gary Smith know today if you want him.	Let Gary Smith know today if you want him.	52154794	1473279900050	1473279900178	S	83
100501	1096542	Let Gary Smith know today if you want him.	Let Gary Smith know today if you want him.	52154797	1473279900218	1473279900306	m	77
100501	1096542	Let Gary Smith know today if you want him.	Let Gary Smith know today if you want him.	52154800	1473279900370	1473279900466	i	73
100501	1096542	Let Gary Smith know today if you want him.	Let Gary Smith know today if you want him.	52154804	1473279900482	1473279900554	t	84
100501	1096542	Let Gary Smith know today if you want him.	Let Gary Smith know today if you want him.	52154808	1473279900578	1473279900666	h	72
100501	1096542	Let Gary Smith know today if you want him.	Let Gary Smith know today if you want him.	52154810	1473279900706	1473279900818	 	32
100501	1096542	Let Gary Smith know today if you want him.	Let Gary Smith know today if you want him.	52154836	1473279901002	1473279901146	k	75
100501	1096542	Let Gary Smith know today if you want him.	Let Gary Smith know today if you want him.	52154841	1473279901090	1473279901250	n	78
100501	1096542	Let Gary Smith know today if you want him.	Let Gary Smith know today if you want him.	52154851	1473279901234	1473279901386	o	79
100501	1096542	Let Gary Smith know today if you want him.	Let Gary Smith know today if you want him.	52154846	1473279901275	1473279901362	w	87
100501	1096542	Let Gary Smith know today if you want him.	Let Gary Smith know today if you want him.	52154854	1473279901418	1473279901530	 	32
100501	1096542	Let Gary Smith know today if you want him.	Let Gary Smith know today if you want him.	52154882	1473279901794	1473279901859	t	84
100501	1096542	Let Gary Smith know today if you want him.	Let Gary Smith know today if you want him.	52154883	1473279901882	1473279901994	o	79
100501	1096542	Let Gary Smith know today if you want him.	Let Gary Smith know today if you want him.	52154885	1473279902034	1473279902154	d	68
100501	1096542	Let Gary Smith know today if you want him.	Let Gary Smith know today if you want him.	52154887	1473279902178	1473279902250	a	65
100501	1096542	Let Gary Smith know today if you want him.	Let Gary Smith know today if you want him.	52154890	1473279902266	1473279902354	y	89
100501	1096542	Let Gary Smith know today if you want him.	Let Gary Smith know today if you want him.	52154935	1473279902386	1473279902482	 	32
100501	1096542	Let Gary Smith know today if you want him.	Let Gary Smith know today if you want him.	52154937	1473279902554	1473279902684	i	73
100501	1096542	Let Gary Smith know today if you want him.	Let Gary Smith know today if you want him.	52154939	1473279902650	1473279902738	f	70
100501	1096542	Let Gary Smith know today if you want him.	Let Gary Smith know today if you want him.	52154943	1473279902906	1473279902986	y	89
100501	1096542	Let Gary Smith know today if you want him.	Let Gary Smith know today if you want him.	52154944	1473279903010	1473279903138	o	79
100501	1096542	Let Gary Smith know today if you want him.	Let Gary Smith know today if you want him.	52154998	1473279903490	1473279903554	BKSP	8
100501	1096542	Let Gary Smith know today if you want him.	Let Gary Smith know today if you want him.	52155002	1473279903642	1473279903714	BKSP	8
100501	1096542	Let Gary Smith know today if you want him.	Let Gary Smith know today if you want him.	52155006	1473279903778	1473279903842	 	32
100501	1096542	Let Gary Smith know today if you want him.	Let Gary Smith know today if you want him.	52155009	1473279903954	1473279904042	y	89
100501	1096542	Let Gary Smith know today if you want him.	Let Gary Smith know today if you want him.	52155011	1473279904082	1473279904218	o	79
100501	1096542	Let Gary Smith know today if you want him.	Let Gary Smith know today if you want him.	52155016	1473279904178	1473279904298	u	85
100501	1096542	Let Gary Smith know today if you want him.	Let Gary Smith know today if you want him.	52155083	1473279904282	1473279904442	 	32
100501	1096542	Let Gary Smith know today if you want him.	Let Gary Smith know today if you want him.	52155087	1473279904810	1473279904914	w	87
100501	1096542	Let Gary Smith know today if you want him.	Let Gary Smith know today if you want him.	52155091	1473279904994	1473279905163	a	65
100501	1096542	Let Gary Smith know today if you want him.	Let Gary Smith know today if you want him.	52155095	1473279905130	1473279905218	n	78
100501	1096542	Let Gary Smith know today if you want him.	Let Gary Smith know today if you want him.	52155102	1473279905266	1473279905338	t	84
100501	1096542	Let Gary Smith know today if you want him.	Let Gary Smith know today if you want him.	52155108	1473279905370	1473279905466	 	32
100501	1096542	Let Gary Smith know today if you want him.	Let Gary Smith know today if you want him.	52155155	1473279905626	1473279905714	h	72
100501	1096542	Let Gary Smith know today if you want him.	Let Gary Smith know today if you want him.	52155157	1473279905738	1473279905842	i	73
100501	1096542	Let Gary Smith know today if you want him.	Let Gary Smith know today if you want him.	52155160	1473279905890	1473279905994	m	77
100501	1096542	Let Gary Smith know today if you want him.	Let Gary Smith know today if you want him.	52155162	1473279906242	1473279906330	.	190
100501	1096564	However, Jeffers is too risky to start from a Fantasy perspective.	However, Jeffers is too risky to start from a Fantasy perspective.	52155505	1473279911786	1473279911946	SHIFT	16
100501	1096564	However, Jeffers is too risky to start from a Fantasy perspective.	However, Jeffers is too risky to start from a Fantasy perspective.	52155509	1473279911882	1473279911970	H	72
100501	1096564	However, Jeffers is too risky to start from a Fantasy perspective.	However, Jeffers is too risky to start from a Fantasy perspective.	52155513	1473279911994	1473279912122	o	79
100501	1096564	However, Jeffers is too risky to start from a Fantasy perspective.	However, Jeffers is too risky to start from a Fantasy perspective.	52155518	1473279912098	1473279912202	w	87
100501	1096564	However, Jeffers is too risky to start from a Fantasy perspective.	However, Jeffers is too risky to start from a Fantasy perspective.	52155523	1473279912298	1473279912427	e	69
100501	1096564	However, Jeffers is too risky to start from a Fantasy perspective.	However, Jeffers is too risky to start from a Fantasy perspective.	52155530	1473279912538	1473279912609	v	86
100501	1096564	However, Jeffers is too risky to start from a Fantasy perspective.	However, Jeffers is too risky to start from a Fantasy perspective.	52155564	1473279912690	1473279912801	e	69
100501	1096564	However, Jeffers is too risky to start from a Fantasy perspective.	However, Jeffers is too risky to start from a Fantasy perspective.	52155566	1473279912754	1473279912841	r	82
100501	1096564	However, Jeffers is too risky to start from a Fantasy perspective.	However, Jeffers is too risky to start from a Fantasy perspective.	52155567	1473279912897	1473279913017	,	188
100501	1096564	However, Jeffers is too risky to start from a Fantasy perspective.	However, Jeffers is too risky to start from a Fantasy perspective.	52155568	1473279913033	1473279913113	 	32
100501	1096564	However, Jeffers is too risky to start from a Fantasy perspective.	However, Jeffers is too risky to start from a Fantasy perspective.	52155571	1473279913153	1473279913274	SHIFT	16
100501	1096564	However, Jeffers is too risky to start from a Fantasy perspective.	However, Jeffers is too risky to start from a Fantasy perspective.	52155609	1473279913225	1473279913322	J	74
100501	1096564	However, Jeffers is too risky to start from a Fantasy perspective.	However, Jeffers is too risky to start from a Fantasy perspective.	52155612	1473279913362	1473279913466	e	69
100501	1096564	However, Jeffers is too risky to start from a Fantasy perspective.	However, Jeffers is too risky to start from a Fantasy perspective.	52155615	1473279913546	1473279913626	f	70
100501	1096564	However, Jeffers is too risky to start from a Fantasy perspective.	However, Jeffers is too risky to start from a Fantasy perspective.	52155620	1473279913730	1473279913802	f	70
100501	1096564	However, Jeffers is too risky to start from a Fantasy perspective.	However, Jeffers is too risky to start from a Fantasy perspective.	52155623	1473279913882	1473279913991	e	69
100501	1096564	However, Jeffers is too risky to start from a Fantasy perspective.	However, Jeffers is too risky to start from a Fantasy perspective.	52155654	1473279913938	1473279914026	r	82
100501	1096564	However, Jeffers is too risky to start from a Fantasy perspective.	However, Jeffers is too risky to start from a Fantasy perspective.	52155656	1473279914122	1473279914250	s	83
100501	1096564	However, Jeffers is too risky to start from a Fantasy perspective.	However, Jeffers is too risky to start from a Fantasy perspective.	52155658	1473279914330	1473279914394	 	32
100501	1096564	However, Jeffers is too risky to start from a Fantasy perspective.	However, Jeffers is too risky to start from a Fantasy perspective.	52155660	1473279914498	1473279914626	i	73
100501	1096564	However, Jeffers is too risky to start from a Fantasy perspective.	However, Jeffers is too risky to start from a Fantasy perspective.	52155662	1473279914610	1473279914722	s	83
100501	1096564	However, Jeffers is too risky to start from a Fantasy perspective.	However, Jeffers is too risky to start from a Fantasy perspective.	52155664	1473279914746	1473279914850	 	32
100501	1096564	However, Jeffers is too risky to start from a Fantasy perspective.	However, Jeffers is too risky to start from a Fantasy perspective.	52155701	1473279914922	1473279915002	t	84
100501	1096564	However, Jeffers is too risky to start from a Fantasy perspective.	However, Jeffers is too risky to start from a Fantasy perspective.	52155705	1473279915026	1473279915074	o	79
100501	1096564	However, Jeffers is too risky to start from a Fantasy perspective.	However, Jeffers is too risky to start from a Fantasy perspective.	52155708	1473279915170	1473279915251	o	79
100501	1096564	However, Jeffers is too risky to start from a Fantasy perspective.	However, Jeffers is too risky to start from a Fantasy perspective.	52155713	1473279915218	1473279915338	 	32
100501	1096564	However, Jeffers is too risky to start from a Fantasy perspective.	However, Jeffers is too risky to start from a Fantasy perspective.	52155719	1473279915426	1473279915506	r	82
100501	1096564	However, Jeffers is too risky to start from a Fantasy perspective.	However, Jeffers is too risky to start from a Fantasy perspective.	52155766	1473279915546	1473279915634	i	73
100501	1096564	However, Jeffers is too risky to start from a Fantasy perspective.	However, Jeffers is too risky to start from a Fantasy perspective.	52155767	1473279915698	1473279915802	s	83
100501	1096564	However, Jeffers is too risky to start from a Fantasy perspective.	However, Jeffers is too risky to start from a Fantasy perspective.	52155769	1473279915834	1473279915930	k	75
100501	1096564	However, Jeffers is too risky to start from a Fantasy perspective.	However, Jeffers is too risky to start from a Fantasy perspective.	52155773	1473279915994	1473279916042	e	69
100501	1096564	However, Jeffers is too risky to start from a Fantasy perspective.	However, Jeffers is too risky to start from a Fantasy perspective.	52155777	1473279916362	1473279916434	BKSP	8
100501	1096564	However, Jeffers is too risky to start from a Fantasy perspective.	However, Jeffers is too risky to start from a Fantasy perspective.	52155781	1473279916554	1473279916634	y	89
100501	1096564	However, Jeffers is too risky to start from a Fantasy perspective.	However, Jeffers is too risky to start from a Fantasy perspective.	52155808	1473279916722	1473279916794	 	32
100501	1096564	However, Jeffers is too risky to start from a Fantasy perspective.	However, Jeffers is too risky to start from a Fantasy perspective.	52155813	1473279916882	1473279916970	t	84
100501	1096564	However, Jeffers is too risky to start from a Fantasy perspective.	However, Jeffers is too risky to start from a Fantasy perspective.	52155816	1473279916954	1473279917034	o	79
100501	1096564	However, Jeffers is too risky to start from a Fantasy perspective.	However, Jeffers is too risky to start from a Fantasy perspective.	52155819	1473279917002	1473279917098	 	32
100501	1096564	However, Jeffers is too risky to start from a Fantasy perspective.	However, Jeffers is too risky to start from a Fantasy perspective.	52155821	1473279917170	1473279917290	s	83
100501	1096564	However, Jeffers is too risky to start from a Fantasy perspective.	However, Jeffers is too risky to start from a Fantasy perspective.	52155859	1473279917346	1473279917410	t	84
100501	1096564	However, Jeffers is too risky to start from a Fantasy perspective.	However, Jeffers is too risky to start from a Fantasy perspective.	52155863	1473279917610	1473279917754	a	65
100501	1096564	However, Jeffers is too risky to start from a Fantasy perspective.	However, Jeffers is too risky to start from a Fantasy perspective.	52155868	1473279917938	1473279918026	r	82
100501	1096564	However, Jeffers is too risky to start from a Fantasy perspective.	However, Jeffers is too risky to start from a Fantasy perspective.	52155871	1473279918154	1473279918234	t	84
100501	1096564	However, Jeffers is too risky to start from a Fantasy perspective.	However, Jeffers is too risky to start from a Fantasy perspective.	52155873	1473279918258	1473279918346	 	32
100501	1096564	However, Jeffers is too risky to start from a Fantasy perspective.	However, Jeffers is too risky to start from a Fantasy perspective.	52155911	1473279918434	1473279918498	f	70
100501	1096564	However, Jeffers is too risky to start from a Fantasy perspective.	However, Jeffers is too risky to start from a Fantasy perspective.	52155912	1473279918618	1473279918704	r	82
100501	1096564	However, Jeffers is too risky to start from a Fantasy perspective.	However, Jeffers is too risky to start from a Fantasy perspective.	52155913	1473279918674	1473279918802	o	79
100501	1096564	However, Jeffers is too risky to start from a Fantasy perspective.	However, Jeffers is too risky to start from a Fantasy perspective.	52155914	1473279918786	1473279918866	m	77
100501	1096564	However, Jeffers is too risky to start from a Fantasy perspective.	However, Jeffers is too risky to start from a Fantasy perspective.	52155915	1473279918882	1473279918962	 	32
100501	1096564	However, Jeffers is too risky to start from a Fantasy perspective.	However, Jeffers is too risky to start from a Fantasy perspective.	52155923	1473279919010	1473279919138	a	65
100501	1096564	However, Jeffers is too risky to start from a Fantasy perspective.	However, Jeffers is too risky to start from a Fantasy perspective.	52155926	1473279919090	1473279919194	 	32
100501	1096564	However, Jeffers is too risky to start from a Fantasy perspective.	However, Jeffers is too risky to start from a Fantasy perspective.	52155927	1473279919290	1473279919434	SHIFT	16
100501	1096564	However, Jeffers is too risky to start from a Fantasy perspective.	However, Jeffers is too risky to start from a Fantasy perspective.	52155930	1473279919370	1473279919457	F	70
100501	1096564	However, Jeffers is too risky to start from a Fantasy perspective.	However, Jeffers is too risky to start from a Fantasy perspective.	52155931	1473279919490	1473279919594	a	65
100501	1096564	However, Jeffers is too risky to start from a Fantasy perspective.	However, Jeffers is too risky to start from a Fantasy perspective.	52155934	1473279919618	1473279919706	n	78
100501	1096564	However, Jeffers is too risky to start from a Fantasy perspective.	However, Jeffers is too risky to start from a Fantasy perspective.	52155967	1473279919810	1473279919898	t	84
100501	1096564	However, Jeffers is too risky to start from a Fantasy perspective.	However, Jeffers is too risky to start from a Fantasy perspective.	52155970	1473279920010	1473279920114	a	65
100501	1096564	However, Jeffers is too risky to start from a Fantasy perspective.	However, Jeffers is too risky to start from a Fantasy perspective.	52155976	1473279920274	1473279920402	s	83
100501	1096564	However, Jeffers is too risky to start from a Fantasy perspective.	However, Jeffers is too risky to start from a Fantasy perspective.	52155979	1473279920387	1473279920482	y	89
100501	1096564	However, Jeffers is too risky to start from a Fantasy perspective.	However, Jeffers is too risky to start from a Fantasy perspective.	52155986	1473279920530	1473279920618	 	32
100501	1096564	However, Jeffers is too risky to start from a Fantasy perspective.	However, Jeffers is too risky to start from a Fantasy perspective.	52156008	1473279920770	1473279920882	p	80
100501	1096564	However, Jeffers is too risky to start from a Fantasy perspective.	However, Jeffers is too risky to start from a Fantasy perspective.	52156010	1473279920842	1473279920986	e	69
100501	1096564	However, Jeffers is too risky to start from a Fantasy perspective.	However, Jeffers is too risky to start from a Fantasy perspective.	52156015	1473279920938	1473279921058	r	82
100501	1096564	However, Jeffers is too risky to start from a Fantasy perspective.	However, Jeffers is too risky to start from a Fantasy perspective.	52156023	1473279921138	1473279921258	s	83
100501	1096564	However, Jeffers is too risky to start from a Fantasy perspective.	However, Jeffers is too risky to start from a Fantasy perspective.	52156027	1473279921282	1473279921394	p	80
100501	1096564	However, Jeffers is too risky to start from a Fantasy perspective.	However, Jeffers is too risky to start from a Fantasy perspective.	52156057	1473279921418	1473279921481	e	69
100501	1096564	However, Jeffers is too risky to start from a Fantasy perspective.	However, Jeffers is too risky to start from a Fantasy perspective.	52156061	1473279921610	1473279921705	c	67
100501	1096564	However, Jeffers is too risky to start from a Fantasy perspective.	However, Jeffers is too risky to start from a Fantasy perspective.	52156064	1473279921770	1473279921865	t	84
100501	1096564	However, Jeffers is too risky to start from a Fantasy perspective.	However, Jeffers is too risky to start from a Fantasy perspective.	52156067	1473279921834	1473279921929	i	73
100501	1096564	However, Jeffers is too risky to start from a Fantasy perspective.	However, Jeffers is too risky to start from a Fantasy perspective.	52156069	1473279921994	1473279922066	v	86
100501	1096564	However, Jeffers is too risky to start from a Fantasy perspective.	However, Jeffers is too risky to start from a Fantasy perspective.	52156085	1473279922162	1473279922234	e	69
100501	1096564	However, Jeffers is too risky to start from a Fantasy perspective.	However, Jeffers is too risky to start from a Fantasy perspective.	52156087	1473279922274	1473279922378	.	190
100501	1096578	Do not send small, unsuspecting children to check on my progress.	Do not send small, unsuspecting children to check on my progress.	52156483	1473279928058	1473279928186	SHIFT	16
100501	1096578	Do not send small, unsuspecting children to check on my progress.	Do not send small, unsuspecting children to check on my progress.	52156487	1473279928146	1473279928234	D	68
100501	1096578	Do not send small, unsuspecting children to check on my progress.	Do not send small, unsuspecting children to check on my progress.	52156492	1473279928282	1473279928410	o	79
100501	1096578	Do not send small, unsuspecting children to check on my progress.	Do not send small, unsuspecting children to check on my progress.	52156496	1473279928434	1473279928506	 	32
100501	1096578	Do not send small, unsuspecting children to check on my progress.	Do not send small, unsuspecting children to check on my progress.	52156499	1473279928610	1473279928690	n	78
100501	1096578	Do not send small, unsuspecting children to check on my progress.	Do not send small, unsuspecting children to check on my progress.	52156504	1473279929210	1473279929334	o	79
100501	1096578	Do not send small, unsuspecting children to check on my progress.	Do not send small, unsuspecting children to check on my progress.	52156543	1473279929306	1473279929377	t	84
100501	1096578	Do not send small, unsuspecting children to check on my progress.	Do not send small, unsuspecting children to check on my progress.	52156546	1473279929426	1473279929506	 	32
100501	1096578	Do not send small, unsuspecting children to check on my progress.	Do not send small, unsuspecting children to check on my progress.	52156549	1473279929898	1473279930018	s	83
100501	1096578	Do not send small, unsuspecting children to check on my progress.	Do not send small, unsuspecting children to check on my progress.	52156554	1473279930106	1473279930186	e	69
100501	1096578	Do not send small, unsuspecting children to check on my progress.	Do not send small, unsuspecting children to check on my progress.	52156558	1473279930218	1473279930298	n	78
100501	1096578	Do not send small, unsuspecting children to check on my progress.	Do not send small, unsuspecting children to check on my progress.	52156564	1473279930313	1473279930394	d	68
100501	1096578	Do not send small, unsuspecting children to check on my progress.	Do not send small, unsuspecting children to check on my progress.	52156583	1473279930426	1473279930514	 	32
100501	1096578	Do not send small, unsuspecting children to check on my progress.	Do not send small, unsuspecting children to check on my progress.	52156585	1473279930626	1473279930746	s	83
100501	1096578	Do not send small, unsuspecting children to check on my progress.	Do not send small, unsuspecting children to check on my progress.	52156587	1473279930762	1473279930834	m	77
100501	1096578	Do not send small, unsuspecting children to check on my progress.	Do not send small, unsuspecting children to check on my progress.	52156588	1473279930914	1473279931018	a	65
100501	1096578	Do not send small, unsuspecting children to check on my progress.	Do not send small, unsuspecting children to check on my progress.	52156589	1473279931050	1473279931130	l	76
100501	1096578	Do not send small, unsuspecting children to check on my progress.	Do not send small, unsuspecting children to check on my progress.	52156606	1473279931218	1473279931330	l	76
100501	1096578	Do not send small, unsuspecting children to check on my progress.	Do not send small, unsuspecting children to check on my progress.	52156607	1473279931362	1473279931458	,	188
100501	1096578	Do not send small, unsuspecting children to check on my progress.	Do not send small, unsuspecting children to check on my progress.	52156608	1473279931506	1473279931601	 	32
100501	1096578	Do not send small, unsuspecting children to check on my progress.	Do not send small, unsuspecting children to check on my progress.	52156609	1473279931722	1473279931802	u	85
100501	1096578	Do not send small, unsuspecting children to check on my progress.	Do not send small, unsuspecting children to check on my progress.	52156610	1473279931930	1473279932018	n	78
100501	1096578	Do not send small, unsuspecting children to check on my progress.	Do not send small, unsuspecting children to check on my progress.	52156648	1473279932066	1473279932178	s	83
100501	1096578	Do not send small, unsuspecting children to check on my progress.	Do not send small, unsuspecting children to check on my progress.	52156652	1473279932210	1473279932281	u	85
100501	1096578	Do not send small, unsuspecting children to check on my progress.	Do not send small, unsuspecting children to check on my progress.	52156655	1473279932322	1473279932442	s	83
100501	1096578	Do not send small, unsuspecting children to check on my progress.	Do not send small, unsuspecting children to check on my progress.	52156659	1473279932602	1473279932706	p	80
100501	1096578	Do not send small, unsuspecting children to check on my progress.	Do not send small, unsuspecting children to check on my progress.	52156662	1473279932770	1473279932850	e	69
100501	1096578	Do not send small, unsuspecting children to check on my progress.	Do not send small, unsuspecting children to check on my progress.	52156685	1473279932978	1473279933066	c	67
100501	1096578	Do not send small, unsuspecting children to check on my progress.	Do not send small, unsuspecting children to check on my progress.	52156689	1473279933146	1473279933225	t	84
100501	1096578	Do not send small, unsuspecting children to check on my progress.	Do not send small, unsuspecting children to check on my progress.	52156695	1473279933209	1473279933393	i	73
100501	1096578	Do not send small, unsuspecting children to check on my progress.	Do not send small, unsuspecting children to check on my progress.	52156701	1473279933362	1473279933537	n	78
100501	1096578	Do not send small, unsuspecting children to check on my progress.	Do not send small, unsuspecting children to check on my progress.	52156725	1473279933481	1473279933561	g	71
100501	1096578	Do not send small, unsuspecting children to check on my progress.	Do not send small, unsuspecting children to check on my progress.	52156727	1473279933618	1473279933690	 	32
100501	1096578	Do not send small, unsuspecting children to check on my progress.	Do not send small, unsuspecting children to check on my progress.	52156729	1473279933929	1473279934017	c	67
100501	1096578	Do not send small, unsuspecting children to check on my progress.	Do not send small, unsuspecting children to check on my progress.	52156733	1473279933993	1473279934082	h	72
100501	1096578	Do not send small, unsuspecting children to check on my progress.	Do not send small, unsuspecting children to check on my progress.	52156737	1473279934177	1473279934316	i	73
100501	1096578	Do not send small, unsuspecting children to check on my progress.	Do not send small, unsuspecting children to check on my progress.	52156799	1473279934282	1473279934426	l	76
100501	1096578	Do not send small, unsuspecting children to check on my progress.	Do not send small, unsuspecting children to check on my progress.	52156802	1473279934466	1473279934538	d	68
100501	1096578	Do not send small, unsuspecting children to check on my progress.	Do not send small, unsuspecting children to check on my progress.	52156807	1473279934930	1473279935026	r	82
100501	1096578	Do not send small, unsuspecting children to check on my progress.	Do not send small, unsuspecting children to check on my progress.	52156812	1473279935066	1473279935154	e	69
100501	1096578	Do not send small, unsuspecting children to check on my progress.	Do not send small, unsuspecting children to check on my progress.	52156819	1473279935218	1473279935298	n	78
100501	1096578	Do not send small, unsuspecting children to check on my progress.	Do not send small, unsuspecting children to check on my progress.	52156823	1473279935410	1473279935474	 	32
100501	1096578	Do not send small, unsuspecting children to check on my progress.	Do not send small, unsuspecting children to check on my progress.	52156838	1473279935586	1473279935666	t	84
100501	1096578	Do not send small, unsuspecting children to check on my progress.	Do not send small, unsuspecting children to check on my progress.	52156843	1473279935634	1473279935743	o	79
100501	1096578	Do not send small, unsuspecting children to check on my progress.	Do not send small, unsuspecting children to check on my progress.	52156848	1473279935722	1473279935795	 	32
100501	1096578	Do not send small, unsuspecting children to check on my progress.	Do not send small, unsuspecting children to check on my progress.	52156854	1473279935906	1473279935994	c	67
100501	1096578	Do not send small, unsuspecting children to check on my progress.	Do not send small, unsuspecting children to check on my progress.	52156883	1473279935954	1473279936034	h	72
100501	1096578	Do not send small, unsuspecting children to check on my progress.	Do not send small, unsuspecting children to check on my progress.	52156884	1473279936098	1473279936178	e	69
100501	1096578	Do not send small, unsuspecting children to check on my progress.	Do not send small, unsuspecting children to check on my progress.	52156885	1473279936322	1473279936409	c	67
100501	1096578	Do not send small, unsuspecting children to check on my progress.	Do not send small, unsuspecting children to check on my progress.	52156887	1473279936362	1473279936466	k	75
100501	1096578	Do not send small, unsuspecting children to check on my progress.	Do not send small, unsuspecting children to check on my progress.	52156889	1473279936522	1473279936594	 	32
100501	1096578	Do not send small, unsuspecting children to check on my progress.	Do not send small, unsuspecting children to check on my progress.	52156894	1473279936650	1473279936810	o	79
100501	1096578	Do not send small, unsuspecting children to check on my progress.	Do not send small, unsuspecting children to check on my progress.	52156965	1473279936794	1473279936906	n	78
100501	1096578	Do not send small, unsuspecting children to check on my progress.	Do not send small, unsuspecting children to check on my progress.	52156969	1473279936938	1473279937010	 	32
100501	1096578	Do not send small, unsuspecting children to check on my progress.	Do not send small, unsuspecting children to check on my progress.	52156974	1473279937146	1473279937258	m	77
100501	1096578	Do not send small, unsuspecting children to check on my progress.	Do not send small, unsuspecting children to check on my progress.	52156978	1473279937377	1473279937426	y	89
100501	1096578	Do not send small, unsuspecting children to check on my progress.	Do not send small, unsuspecting children to check on my progress.	52156981	1473279937450	1473279937578	 	32
100501	1096578	Do not send small, unsuspecting children to check on my progress.	Do not send small, unsuspecting children to check on my progress.	52156986	1473279937794	1473279937906	p	80
100501	1096578	Do not send small, unsuspecting children to check on my progress.	Do not send small, unsuspecting children to check on my progress.	52157039	1473279938154	1473279938234	r	82
100501	1096578	Do not send small, unsuspecting children to check on my progress.	Do not send small, unsuspecting children to check on my progress.	52157044	1473279938266	1473279938362	o	79
100501	1096578	Do not send small, unsuspecting children to check on my progress.	Do not send small, unsuspecting children to check on my progress.	52157048	1473279938442	1473279938490	g	71
100501	1096578	Do not send small, unsuspecting children to check on my progress.	Do not send small, unsuspecting children to check on my progress.	52157055	1473279938858	1473279938954	r	82
100501	1096578	Do not send small, unsuspecting children to check on my progress.	Do not send small, unsuspecting children to check on my progress.	52157063	1473279939202	1473279939266	e	69
100501	1096578	Do not send small, unsuspecting children to check on my progress.	Do not send small, unsuspecting children to check on my progress.	52157100	1473279939426	1473279939490	s	83
100501	1096578	Do not send small, unsuspecting children to check on my progress.	Do not send small, unsuspecting children to check on my progress.	52157102	1473279939562	1473279939674	s	83
100501	1096578	Do not send small, unsuspecting children to check on my progress.	Do not send small, unsuspecting children to check on my progress.	52157105	1473279939690	1473279939777	.	190
100501	1096597	They have not issued an order yet.	They have not issued an order yet.	52157489	1473279945554	1473279945714	SHIFT	16
100501	1096597	They have not issued an order yet.	They have not issued an order yet.	52157492	1473279945674	1473279945753	T	84
100501	1096597	They have not issued an order yet.	They have not issued an order yet.	52157495	1473279945826	1473279945914	h	72
100501	1096597	They have not issued an order yet.	They have not issued an order yet.	52157497	1473279945874	1473279945962	e	69
100501	1096597	They have not issued an order yet.	They have not issued an order yet.	52157499	1473279946066	1473279946162	y	89
100501	1096597	They have not issued an order yet.	They have not issued an order yet.	52157502	1473279946234	1473279946329	 	32
100501	1096597	They have not issued an order yet.	They have not issued an order yet.	52157525	1473279946562	1473279946657	h	72
100501	1096597	They have not issued an order yet.	They have not issued an order yet.	52157528	1473279946690	1473279946785	a	65
100501	1096597	They have not issued an order yet.	They have not issued an order yet.	52157535	1473279946858	1473279946929	v	86
100501	1096597	They have not issued an order yet.	They have not issued an order yet.	52157544	1473279947002	1473279947089	e	69
100501	1096597	They have not issued an order yet.	They have not issued an order yet.	52157580	1473279947050	1473279947129	 	32
100501	1096597	They have not issued an order yet.	They have not issued an order yet.	52157583	1473279947250	1473279947373	n	78
100501	1096597	They have not issued an order yet.	They have not issued an order yet.	52157584	1473279947346	1473279947489	o	79
100501	1096597	They have not issued an order yet.	They have not issued an order yet.	52157588	1473279947434	1473279947513	t	84
100501	1096597	They have not issued an order yet.	They have not issued an order yet.	52157591	1473279947538	1473279947633	 	32
100501	1096597	They have not issued an order yet.	They have not issued an order yet.	52157594	1473279947674	1473279947769	i	73
100501	1096597	They have not issued an order yet.	They have not issued an order yet.	52157610	1473279947785	1473279947842	s	83
100501	1096597	They have not issued an order yet.	They have not issued an order yet.	52157613	1473279947945	1473279948033	s	83
100501	1096597	They have not issued an order yet.	They have not issued an order yet.	52157616	1473279948090	1473279948146	u	85
100501	1096597	They have not issued an order yet.	They have not issued an order yet.	52157618	1473279948210	1473279948257	e	69
100501	1096597	They have not issued an order yet.	They have not issued an order yet.	52157622	1473279948378	1473279948473	d	68
100501	1096597	They have not issued an order yet.	They have not issued an order yet.	52157658	1473279948489	1473279948546	 	32
100501	1096597	They have not issued an order yet.	They have not issued an order yet.	52157662	1473279948714	1473279948841	a	65
100501	1096597	They have not issued an order yet.	They have not issued an order yet.	52157668	1473279948889	1473279949009	n	78
100501	1096597	They have not issued an order yet.	They have not issued an order yet.	52157672	1473279949098	1473279949185	 	32
100501	1096597	They have not issued an order yet.	They have not issued an order yet.	52157675	1473279949378	1473279949493	o	79
100501	1096597	They have not issued an order yet.	They have not issued an order yet.	52157722	1473279949466	1473279949537	r	82
100501	1096597	They have not issued an order yet.	They have not issued an order yet.	52157724	1473279949626	1473279949729	d	68
100501	1096597	They have not issued an order yet.	They have not issued an order yet.	52157728	1473279949826	1473279949922	e	69
100501	1096597	They have not issued an order yet.	They have not issued an order yet.	52157733	1473279949882	1473279950002	r	82
100501	1096597	They have not issued an order yet.	They have not issued an order yet.	52157738	1473279950025	1473279950089	 	32
100501	1096597	They have not issued an order yet.	They have not issued an order yet.	52157739	1473279950193	1473279950313	y	89
100501	1096597	They have not issued an order yet.	They have not issued an order yet.	52157778	1473279950410	1473279950537	e	69
100501	1096597	They have not issued an order yet.	They have not issued an order yet.	52157782	1473279950578	1473279950649	t	84
100501	1096597	They have not issued an order yet.	They have not issued an order yet.	52157784	1473279950762	1473279950842	.	190
100501	1096612	Thank you again for the evening.	Thank you again for the evening.	52158168	1473279955977	1473279956113	SHIFT	16
100501	1096612	Thank you again for the evening.	Thank you again for the evening.	52158171	1473279956065	1473279956161	T	84
100501	1096612	Thank you again for the evening.	Thank you again for the evening.	52158174	1473279956193	1473279956257	h	72
100501	1096612	Thank you again for the evening.	Thank you again for the evening.	52158177	1473279956322	1473279956369	a	65
100501	1096612	Thank you again for the evening.	Thank you again for the evening.	52158181	1473279956402	1473279956552	n	78
100501	1096612	Thank you again for the evening.	Thank you again for the evening.	52158190	1473279956522	1473279956640	k	75
100501	1096612	Thank you again for the evening.	Thank you again for the evening.	52158193	1473279956609	1473279956705	 	32
100501	1096612	Thank you again for the evening.	Thank you again for the evening.	52158197	1473279956729	1473279956842	y	89
100501	1096612	Thank you again for the evening.	Thank you again for the evening.	52158201	1473279956897	1473279957025	o	79
100501	1096612	Thank you again for the evening.	Thank you again for the evening.	52158206	1473279956945	1473279957097	u	85
100501	1096612	Thank you again for the evening.	Thank you again for the evening.	52158222	1473279957081	1473279957169	 	32
100501	1096612	Thank you again for the evening.	Thank you again for the evening.	52158224	1473279957193	1473279957329	a	65
100501	1096612	Thank you again for the evening.	Thank you again for the evening.	52158228	1473279957353	1473279957409	g	71
100501	1096612	Thank you again for the evening.	Thank you again for the evening.	52158232	1473279957441	1473279957553	a	65
100501	1096612	Thank you again for the evening.	Thank you again for the evening.	52158236	1473279957569	1473279957682	i	73
100501	1096612	Thank you again for the evening.	Thank you again for the evening.	52158273	1473279957633	1473279957793	n	78
100501	1096612	Thank you again for the evening.	Thank you again for the evening.	52158278	1473279957897	1473279957985	 	32
100501	1096612	Thank you again for the evening.	Thank you again for the evening.	52158283	1473279958329	1473279958385	f	70
100501	1096612	Thank you again for the evening.	Thank you again for the evening.	52158287	1473279958449	1473279958569	o	79
100501	1096612	Thank you again for the evening.	Thank you again for the evening.	52158291	1473279958593	1473279958691	r	82
100501	1096612	Thank you again for the evening.	Thank you again for the evening.	52158324	1473279958665	1473279958769	 	32
100501	1096612	Thank you again for the evening.	Thank you again for the evening.	52158326	1473279958841	1473279958923	t	84
100501	1096612	Thank you again for the evening.	Thank you again for the evening.	52158328	1473279958889	1473279959033	h	72
100501	1096612	Thank you again for the evening.	Thank you again for the evening.	52158330	1473279959017	1473279959113	e	69
100501	1096612	Thank you again for the evening.	Thank you again for the evening.	52158333	1473279959169	1473279959289	 	32
100501	1096612	Thank you again for the evening.	Thank you again for the evening.	52158336	1473279959481	1473279959553	e	69
100501	1096612	Thank you again for the evening.	Thank you again for the evening.	52158427	1473279959657	1473279959737	v	86
100501	1096612	Thank you again for the evening.	Thank you again for the evening.	52158428	1473279960137	1473279960209	n	78
100501	1096612	Thank you again for the evening.	Thank you again for the evening.	52158430	1473279960481	1473279960561	BKSP	8
100501	1096612	Thank you again for the evening.	Thank you again for the evening.	52158433	1473279960649	1473279960729	e	69
100501	1096612	Thank you again for the evening.	Thank you again for the evening.	52158436	1473279960754	1473279960841	n	78
100501	1096612	Thank you again for the evening.	Thank you again for the evening.	52158440	1473279960913	1473279961041	i	73
100501	1096612	Thank you again for the evening.	Thank you again for the evening.	52158451	1473279961001	1473279961154	n	78
100501	1096612	Thank you again for the evening.	Thank you again for the evening.	52158458	1473279961113	1473279961185	g	71
100501	1096612	Thank you again for the evening.	Thank you again for the evening.	52158467	1473279961295	1473279961401	.	190
100501	1096624	I meant to try and explain, not to redo.	I meant to try and explain, not to redo.	52158899	1473279968377	1473279968529	SHIFT	16
100501	1096624	I meant to try and explain, not to redo.	I meant to try and explain, not to redo.	52158902	1473279968457	1473279968545	I	73
100501	1096624	I meant to try and explain, not to redo.	I meant to try and explain, not to redo.	52158904	1473279968578	1473279968633	 	32
100501	1096624	I meant to try and explain, not to redo.	I meant to try and explain, not to redo.	52158906	1473279968697	1473279968817	m	77
100501	1096624	I meant to try and explain, not to redo.	I meant to try and explain, not to redo.	52158910	1473279968761	1473279968889	e	69
100501	1096624	I meant to try and explain, not to redo.	I meant to try and explain, not to redo.	52158912	1473279968913	1473279969065	a	65
100501	1096624	I meant to try and explain, not to redo.	I meant to try and explain, not to redo.	52158955	1473279969089	1473279969161	t	84
100501	1096624	I meant to try and explain, not to redo.	I meant to try and explain, not to redo.	52158956	1473279969554	1473279969609	BKSP	8
100501	1096624	I meant to try and explain, not to redo.	I meant to try and explain, not to redo.	52158958	1473279969745	1473279969845	n	78
100501	1096624	I meant to try and explain, not to redo.	I meant to try and explain, not to redo.	52158961	1473279969809	1473279969889	t	84
100501	1096624	I meant to try and explain, not to redo.	I meant to try and explain, not to redo.	52158965	1473279969969	1473279970065	 	32
100501	1096624	I meant to try and explain, not to redo.	I meant to try and explain, not to redo.	52158969	1473279970193	1473279970265	t	84
100501	1096624	I meant to try and explain, not to redo.	I meant to try and explain, not to redo.	52158991	1473279970241	1473279970337	o	79
100501	1096624	I meant to try and explain, not to redo.	I meant to try and explain, not to redo.	52158994	1473279970321	1473279970441	 	32
100501	1096624	I meant to try and explain, not to redo.	I meant to try and explain, not to redo.	52158998	1473279970521	1473279970601	t	84
100501	1096624	I meant to try and explain, not to redo.	I meant to try and explain, not to redo.	52159002	1473279970705	1473279970793	r	82
100501	1096624	I meant to try and explain, not to redo.	I meant to try and explain, not to redo.	52159004	1473279970777	1473279970881	y	89
100501	1096624	I meant to try and explain, not to redo.	I meant to try and explain, not to redo.	52159006	1473279970897	1473279971009	 	32
100501	1096624	I meant to try and explain, not to redo.	I meant to try and explain, not to redo.	52159033	1473279971049	1473279971153	a	65
100501	1096624	I meant to try and explain, not to redo.	I meant to try and explain, not to redo.	52159038	1473279971169	1473279971257	n	78
100501	1096624	I meant to try and explain, not to redo.	I meant to try and explain, not to redo.	52159041	1473279971273	1473279971337	d	68
100501	1096624	I meant to try and explain, not to redo.	I meant to try and explain, not to redo.	52159043	1473279971307	1473279971377	 	32
100501	1096624	I meant to try and explain, not to redo.	I meant to try and explain, not to redo.	52159045	1473279971577	1473279971641	e	69
100501	1096624	I meant to try and explain, not to redo.	I meant to try and explain, not to redo.	52159079	1473279971809	1473279971947	x	88
100501	1096624	I meant to try and explain, not to redo.	I meant to try and explain, not to redo.	52159082	1473279971913	1473279972001	p	80
100501	1096624	I meant to try and explain, not to redo.	I meant to try and explain, not to redo.	52159084	1473279972041	1473279972177	l	76
100501	1096624	I meant to try and explain, not to redo.	I meant to try and explain, not to redo.	52159087	1473279972193	1473279972289	a	65
100501	1096624	I meant to try and explain, not to redo.	I meant to try and explain, not to redo.	52159090	1473279972345	1473279972523	i	73
100501	1096624	I meant to try and explain, not to redo.	I meant to try and explain, not to redo.	52159138	1473279972481	1473279972633	n	78
100501	1096624	I meant to try and explain, not to redo.	I meant to try and explain, not to redo.	52159143	1473279972729	1473279972817	,	188
100501	1096624	I meant to try and explain, not to redo.	I meant to try and explain, not to redo.	52159148	1473279972785	1473279972905	 	32
100501	1096624	I meant to try and explain, not to redo.	I meant to try and explain, not to redo.	52159151	1473279973048	1473279973225	n	78
100501	1096624	I meant to try and explain, not to redo.	I meant to try and explain, not to redo.	52159154	1473279973209	1473279973337	o	79
100501	1096624	I meant to try and explain, not to redo.	I meant to try and explain, not to redo.	52159156	1473279973401	1473279973505	t	84
100501	1096624	I meant to try and explain, not to redo.	I meant to try and explain, not to redo.	52159179	1473279973673	1473279973769	 	32
100501	1096624	I meant to try and explain, not to redo.	I meant to try and explain, not to redo.	52159186	1473279973865	1473279973957	t	84
100501	1096624	I meant to try and explain, not to redo.	I meant to try and explain, not to redo.	52159191	1473279973929	1473279974009	o	79
100501	1096624	I meant to try and explain, not to redo.	I meant to try and explain, not to redo.	52159196	1473279973969	1473279974097	 	32
100501	1096624	I meant to try and explain, not to redo.	I meant to try and explain, not to redo.	52159200	1473279974137	1473279974249	r	82
100501	1096624	I meant to try and explain, not to redo.	I meant to try and explain, not to redo.	52159229	1473279974273	1473279974353	e	69
100501	1096624	I meant to try and explain, not to redo.	I meant to try and explain, not to redo.	52159230	1473279974457	1473279974545	d	68
100501	1096624	I meant to try and explain, not to redo.	I meant to try and explain, not to redo.	52159231	1473279974521	1473279974633	o	79
100501	1096624	I meant to try and explain, not to redo.	I meant to try and explain, not to redo.	52159234	1473279974785	1473279974857	.	190
100501	1096640	Please respond if anyone has a different view.	Please respond if anyone has a different view.	52159485	1473279979521	1473279979657	SHIFT	16
100501	1096640	Please respond if anyone has a different view.	Please respond if anyone has a different view.	52159489	1473279979593	1473279979673	P	80
100501	1096640	Please respond if anyone has a different view.	Please respond if anyone has a different view.	52159498	1473279979729	1473279979877	l	76
100501	1096640	Please respond if anyone has a different view.	Please respond if anyone has a different view.	52159502	1473279979849	1473279979953	e	69
100501	1096640	Please respond if anyone has a different view.	Please respond if anyone has a different view.	52159508	1473279979977	1473279980097	a	65
100501	1096640	Please respond if anyone has a different view.	Please respond if anyone has a different view.	52159513	1473279980113	1473279980313	s	83
100501	1096640	Please respond if anyone has a different view.	Please respond if anyone has a different view.	52159536	1473279980273	1473279980353	e	69
100501	1096640	Please respond if anyone has a different view.	Please respond if anyone has a different view.	52159539	1473279980369	1473279980457	 	32
100501	1096640	Please respond if anyone has a different view.	Please respond if anyone has a different view.	52159541	1473279980609	1473279980697	r	82
100501	1096640	Please respond if anyone has a different view.	Please respond if anyone has a different view.	52159543	1473279980753	1473279980824	e	69
100501	1096640	Please respond if anyone has a different view.	Please respond if anyone has a different view.	52159544	1473279980921	1473279981033	s	83
100501	1096640	Please respond if anyone has a different view.	Please respond if anyone has a different view.	52159589	1473279981017	1473279981097	p	80
100501	1096640	Please respond if anyone has a different view.	Please respond if anyone has a different view.	52159593	1473279981169	1473279981329	o	79
100501	1096640	Please respond if anyone has a different view.	Please respond if anyone has a different view.	52159600	1473279981241	1473279981425	n	78
100501	1096640	Please respond if anyone has a different view.	Please respond if anyone has a different view.	52159606	1473279981409	1473279981505	d	68
100501	1096640	Please respond if anyone has a different view.	Please respond if anyone has a different view.	52159610	1473279981537	1473279981609	 	32
100501	1096640	Please respond if anyone has a different view.	Please respond if anyone has a different view.	52159613	1473279981737	1473279981866	i	73
100501	1096640	Please respond if anyone has a different view.	Please respond if anyone has a different view.	52159648	1473279981833	1473279981934	f	70
100501	1096640	Please respond if anyone has a different view.	Please respond if anyone has a different view.	52159650	1473279981905	1473279982009	 	32
100501	1096640	Please respond if anyone has a different view.	Please respond if anyone has a different view.	52159654	1473279982065	1473279982178	a	65
100501	1096640	Please respond if anyone has a different view.	Please respond if anyone has a different view.	52159665	1473279982145	1473279982225	n	78
100501	1096640	Please respond if anyone has a different view.	Please respond if anyone has a different view.	52159670	1473279982337	1473279982425	y	89
100501	1096640	Please respond if anyone has a different view.	Please respond if anyone has a different view.	52159675	1473279982537	1473279982681	o	79
100501	1096640	Please respond if anyone has a different view.	Please respond if anyone has a different view.	52159710	1473279982625	1473279982785	n	78
100501	1096640	Please respond if anyone has a different view.	Please respond if anyone has a different view.	52159714	1473279982721	1473279982801	e	69
100501	1096640	Please respond if anyone has a different view.	Please respond if anyone has a different view.	52159719	1473279982857	1473279982937	 	32
100501	1096640	Please respond if anyone has a different view.	Please respond if anyone has a different view.	52159724	1473279983033	1473279983129	h	72
100501	1096640	Please respond if anyone has a different view.	Please respond if anyone has a different view.	52159731	1473279983113	1473279983225	a	65
100501	1096640	Please respond if anyone has a different view.	Please respond if anyone has a different view.	52159735	1473279983273	1473279983409	s	83
100501	1096640	Please respond if anyone has a different view.	Please respond if anyone has a different view.	52159759	1473279983425	1473279983505	 	32
100501	1096640	Please respond if anyone has a different view.	Please respond if anyone has a different view.	52159764	1473279983633	1473279983801	a	65
100501	1096640	Please respond if anyone has a different view.	Please respond if anyone has a different view.	52159777	1473279983849	1473279983945	 	32
100501	1096640	Please respond if anyone has a different view.	Please respond if anyone has a different view.	52159785	1473279984048	1473279984129	d	68
100501	1096640	Please respond if anyone has a different view.	Please respond if anyone has a different view.	52159792	1473279984145	1473279984225	i	73
100501	1096640	Please respond if anyone has a different view.	Please respond if anyone has a different view.	52159814	1473279984281	1473279984361	f	70
100501	1096640	Please respond if anyone has a different view.	Please respond if anyone has a different view.	52159816	1473279984449	1473279984520	f	70
100501	1096640	Please respond if anyone has a different view.	Please respond if anyone has a different view.	52159818	1473279984609	1473279984713	e	69
100501	1096640	Please respond if anyone has a different view.	Please respond if anyone has a different view.	52159820	1473279984673	1473279984793	r	82
100501	1096640	Please respond if anyone has a different view.	Please respond if anyone has a different view.	52159822	1473279984825	1473279984921	e	69
100501	1096640	Please respond if anyone has a different view.	Please respond if anyone has a different view.	52159874	1473279984961	1473279985033	n	78
100501	1096640	Please respond if anyone has a different view.	Please respond if anyone has a different view.	52159879	1473279985185	1473279985265	t	84
100501	1096640	Please respond if anyone has a different view.	Please respond if anyone has a different view.	52159883	1473279985313	1473279985401	 	32
100501	1096640	Please respond if anyone has a different view.	Please respond if anyone has a different view.	52159885	1473279985785	1473279985897	v	86
100501	1096640	Please respond if anyone has a different view.	Please respond if anyone has a different view.	52159910	1473279985881	1473279985993	i	73
100501	1096640	Please respond if anyone has a different view.	Please respond if anyone has a different view.	52159912	1473279986025	1473279986187	e	69
100501	1096640	Please respond if anyone has a different view.	Please respond if anyone has a different view.	52159915	1473279986145	1473279986273	w	87
100501	1096640	Please respond if anyone has a different view.	Please respond if anyone has a different view.	52159918	1473279986313	1473279986409	.	190
100501	1096655	Another group of policemen was due to be deployed.	Another gourp of policemen was due to be deployed.	52160167	1473279991105	1473279991265	SHIFT	16
100501	1096655	Another group of policemen was due to be deployed.	Another gourp of policemen was due to be deployed.	52160169	1473279991201	1473279991305	A	65
100501	1096655	Another group of policemen was due to be deployed.	Another gourp of policemen was due to be deployed.	52160171	1473279991329	1473279991400	n	78
100501	1096655	Another group of policemen was due to be deployed.	Another gourp of policemen was due to be deployed.	52160173	1473279991443	1473279991521	o	79
100501	1096655	Another group of policemen was due to be deployed.	Another gourp of policemen was due to be deployed.	52160176	1473279991561	1473279991633	t	84
100501	1096655	Another group of policemen was due to be deployed.	Another gourp of policemen was due to be deployed.	52160229	1473279991617	1473279991713	h	72
100501	1096655	Another group of policemen was due to be deployed.	Another gourp of policemen was due to be deployed.	52160233	1473279991745	1473279991849	e	69
100501	1096655	Another group of policemen was due to be deployed.	Another gourp of policemen was due to be deployed.	52160237	1473279991801	1473279991897	r	82
100501	1096655	Another group of policemen was due to be deployed.	Another gourp of policemen was due to be deployed.	52160238	1473279991913	1473279992009	 	32
100501	1096655	Another group of policemen was due to be deployed.	Another gourp of policemen was due to be deployed.	52160239	1473279992121	1473279992185	g	71
100501	1096655	Another group of policemen was due to be deployed.	Another gourp of policemen was due to be deployed.	52160240	1473279992209	1473279992368	o	79
100501	1096655	Another group of policemen was due to be deployed.	Another gourp of policemen was due to be deployed.	52160257	1473279992329	1473279992457	u	85
100501	1096655	Another group of policemen was due to be deployed.	Another gourp of policemen was due to be deployed.	52160260	1473279992384	1473279992481	r	82
100501	1096655	Another group of policemen was due to be deployed.	Another gourp of policemen was due to be deployed.	52160264	1473279992529	1473279992649	p	80
100501	1096655	Another group of policemen was due to be deployed.	Another gourp of policemen was due to be deployed.	52160270	1473279992705	1473279992793	 	32
100501	1096655	Another group of policemen was due to be deployed.	Another gourp of policemen was due to be deployed.	52160277	1473279992841	1473279992977	o	79
100501	1096655	Another group of policemen was due to be deployed.	Another gourp of policemen was due to be deployed.	52160324	1473279992953	1473279993032	f	70
100501	1096655	Another group of policemen was due to be deployed.	Another gourp of policemen was due to be deployed.	52160327	1473279993000	1473279993073	 	32
100501	1096655	Another group of policemen was due to be deployed.	Another gourp of policemen was due to be deployed.	52160332	1473279993169	1473279993257	p	80
100501	1096655	Another group of policemen was due to be deployed.	Another gourp of policemen was due to be deployed.	52160338	1473279993329	1473279993409	o	79
100501	1096655	Another group of policemen was due to be deployed.	Another gourp of policemen was due to be deployed.	52160345	1473279993585	1473279993713	l	76
100501	1096655	Another group of policemen was due to be deployed.	Another gourp of policemen was due to be deployed.	52160349	1473279993753	1473279993849	i	73
100501	1096655	Another group of policemen was due to be deployed.	Another gourp of policemen was due to be deployed.	52160377	1473279993873	1473279993953	c	67
100501	1096655	Another group of policemen was due to be deployed.	Another gourp of policemen was due to be deployed.	52160382	1473279994089	1473279994169	e	69
100501	1096655	Another group of policemen was due to be deployed.	Another gourp of policemen was due to be deployed.	52160388	1473279994305	1473279994385	m	77
100501	1096655	Another group of policemen was due to be deployed.	Another gourp of policemen was due to be deployed.	52160392	1473279994409	1473279994489	e	69
100501	1096655	Another group of policemen was due to be deployed.	Another gourp of policemen was due to be deployed.	52160397	1473279994513	1473279994601	n	78
100501	1096655	Another group of policemen was due to be deployed.	Another gourp of policemen was due to be deployed.	52160405	1473279994625	1473279994689	t	84
100501	1096655	Another group of policemen was due to be deployed.	Another gourp of policemen was due to be deployed.	52160407	1473279994705	1473279994761	 	32
100501	1096655	Another group of policemen was due to be deployed.	Another gourp of policemen was due to be deployed.	52160412	1473279994857	1473279994937	w	87
100501	1096655	Another group of policemen was due to be deployed.	Another gourp of policemen was due to be deployed.	52160415	1473279994985	1473279995099	a	65
100501	1096655	Another group of policemen was due to be deployed.	Another gourp of policemen was due to be deployed.	52160639	1473279995065	1473279995209	s	83
100501	1096655	Another group of policemen was due to be deployed.	Another gourp of policemen was due to be deployed.	52160646	1473279995225	1473279995289	 	32
100501	1096655	Another group of policemen was due to be deployed.	Another gourp of policemen was due to be deployed.	52160659	1473279995801	1473279996466	BKSP	8
100501	1096655	Another group of policemen was due to be deployed.	Another gourp of policemen was due to be deployed.	52160666	1473279996945	1473279996977	 	32
100501	1096655	Another group of policemen was due to be deployed.	Another gourp of policemen was due to be deployed.	52160671	1473279997601	1473279997697	w	87
100501	1096655	Another group of policemen was due to be deployed.	Another gourp of policemen was due to be deployed.	52160677	1473279997969	1473279998081	a	65
100501	1096655	Another group of policemen was due to be deployed.	Another gourp of policemen was due to be deployed.	52160699	1473279998049	1473279998233	s	83
100501	1096655	Another group of policemen was due to be deployed.	Another gourp of policemen was due to be deployed.	52160708	1473279998249	1473279998313	 	32
100501	1096655	Another group of policemen was due to be deployed.	Another gourp of policemen was due to be deployed.	52160714	1473279998432	1473279998529	d	68
100501	1096655	Another group of policemen was due to be deployed.	Another gourp of policemen was due to be deployed.	52160719	1473279998553	1473279998625	u	85
100501	1096655	Another group of policemen was due to be deployed.	Another gourp of policemen was due to be deployed.	52160725	1473279998657	1473279998737	e	69
100501	1096655	Another group of policemen was due to be deployed.	Another gourp of policemen was due to be deployed.	52160729	1473279998929	1473279999001	 	32
100501	1096655	Another group of policemen was due to be deployed.	Another gourp of policemen was due to be deployed.	52160770	1473279999121	1473279999193	t	84
100501	1096655	Another group of policemen was due to be deployed.	Another gourp of policemen was due to be deployed.	52160774	1473279999153	1473279999276	o	79
100501	1096655	Another group of policemen was due to be deployed.	Another gourp of policemen was due to be deployed.	52160781	1473279999249	1473279999368	 	32
100501	1096655	Another group of policemen was due to be deployed.	Another gourp of policemen was due to be deployed.	52160785	1473279999704	1473279999785	b	66
100501	1096655	Another group of policemen was due to be deployed.	Another gourp of policemen was due to be deployed.	52160788	1473279999873	1473279999961	e	69
100501	1096655	Another group of policemen was due to be deployed.	Another gourp of policemen was due to be deployed.	52160833	1473279999945	1473280000049	 	32
100501	1096655	Another group of policemen was due to be deployed.	Another gourp of policemen was due to be deployed.	52160838	1473280000145	1473280000240	d	68
100501	1096655	Another group of policemen was due to be deployed.	Another gourp of policemen was due to be deployed.	52160846	1473280000393	1473280000497	e	69
100501	1096655	Another group of policemen was due to be deployed.	Another gourp of policemen was due to be deployed.	52160853	1473280000513	1473280000609	p	80
100501	1096655	Another group of policemen was due to be deployed.	Another gourp of policemen was due to be deployed.	52160862	1473280000625	1473280000753	l	76
100501	1096655	Another group of policemen was due to be deployed.	Another gourp of policemen was due to be deployed.	52160868	1473280000849	1473280000945	o	79
100501	1096655	Another group of policemen was due to be deployed.	Another gourp of policemen was due to be deployed.	52160921	1473280001017	1473280001081	y	89
100501	1096655	Another group of policemen was due to be deployed.	Another gourp of policemen was due to be deployed.	52160923	1473280001329	1473280001401	e	69
100501	1096655	Another group of policemen was due to be deployed.	Another gourp of policemen was due to be deployed.	52160926	1473280001505	1473280001593	d	68
100501	1096655	Another group of policemen was due to be deployed.	Another gourp of policemen was due to be deployed.	52160930	1473280001617	1473280001705	.	190
100501	1096673	Neal, can you help with this?	Neal, can you help with this?	52161206	1473280005521	1473280005688	SHIFT	16
100501	1096673	Neal, can you help with this?	Neal, can you help with this?	52161210	1473280005657	1473280005737	N	78
100501	1096673	Neal, can you help with this?	Neal, can you help with this?	52161213	1473280005817	1473280005913	e	69
100501	1096673	Neal, can you help with this?	Neal, can you help with this?	52161217	1473280005977	1473280006080	a	65
100501	1096673	Neal, can you help with this?	Neal, can you help with this?	52161221	1473280006145	1473280006240	l	76
100501	1096673	Neal, can you help with this?	Neal, can you help with this?	52161224	1473280006417	1473280006472	,	188
100501	1096673	Neal, can you help with this?	Neal, can you help with this?	52161241	1473280006497	1473280006577	 	32
100501	1096673	Neal, can you help with this?	Neal, can you help with this?	52161244	1473280006721	1473280006840	c	67
100501	1096673	Neal, can you help with this?	Neal, can you help with this?	52161250	1473280006865	1473280006960	n	65
100501	1096673	Neal, can you help with this?	Neal, can you help with this?	52161254	1473280007025	1473280007112	 	32
100501	1096673	Neal, can you help with this?	Neal, can you help with this?	52161298	1473280007185	1473280007288	y	89
100501	1096673	Neal, can you help with this?	Neal, can you help with this?	52161300	1473280007305	1473280007424	o	79
100501	1096673	Neal, can you help with this?	Neal, can you help with this?	52161305	1473280007376	1473280007506	u	85
100501	1096673	Neal, can you help with this?	Neal, can you help with this?	52161314	1473280007481	1473280007624	 	32
100501	1096673	Neal, can you help with this?	Neal, can you help with this?	52161319	1473280007753	1473280007864	h	72
100501	1096673	Neal, can you help with this?	Neal, can you help with this?	52161358	1473280007889	1473280007968	e	69
100501	1096673	Neal, can you help with this?	Neal, can you help with this?	52161361	1473280008016	1473280008057	l	76
100501	1096673	Neal, can you help with this?	Neal, can you help with this?	52161367	1473280008120	1473280008240	p	80
100501	1096673	Neal, can you help with this?	Neal, can you help with this?	52161377	1473280008345	1473280008440	 	32
100501	1096673	Neal, can you help with this?	Neal, can you help with this?	52161384	1473280008624	1473280008712	w	87
100501	1096673	Neal, can you help with this?	Neal, can you help with this?	52161417	1473280008737	1473280008808	i	73
100501	1096673	Neal, can you help with this?	Neal, can you help with this?	52161419	1473280008889	1473280008968	t	84
100501	1096673	Neal, can you help with this?	Neal, can you help with this?	52161426	1473280008984	1473280009080	h	72
100501	1096673	Neal, can you help with this?	Neal, can you help with this?	52161430	1473280009105	1473280009184	 	32
100501	1096673	Neal, can you help with this?	Neal, can you help with this?	52161435	1473280009329	1473280009409	t	84
100501	1096673	Neal, can you help with this?	Neal, can you help with this?	52161474	1473280009377	1473280009520	h	72
100501	1096673	Neal, can you help with this?	Neal, can you help with this?	52161479	1473280009873	1473280009977	i	73
100501	1096673	Neal, can you help with this?	Neal, can you help with this?	52161485	1473280010000	1473280010088	s	83
100501	1096673	Neal, can you help with this?	Neal, can you help with this?	52161493	1473280010257	1473280010432	SHIFT	16
100501	1096673	Neal, can you help with this?	Neal, can you help with this?	52161489	1473280010304	1473280010400	?	191
100501	1096687	I need your help in putting together a new list.	I need your help in putting together a new list.	52161711	1473280013593	1473280013752	SHIFT	16
100501	1096687	I need your help in putting together a new list.	I need your help in putting together a new list.	52161714	1473280013664	1473280013800	I	73
100501	1096687	I need your help in putting together a new list.	I need your help in putting together a new list.	52161718	1473280013824	1473280013920	 	32
100501	1096687	I need your help in putting together a new list.	I need your help in putting together a new list.	52161722	1473280013984	1473280014096	n	78
100501	1096687	I need your help in putting together a new list.	I need your help in putting together a new list.	52161726	1473280014072	1473280014152	e	69
100501	1096687	I need your help in putting together a new list.	I need your help in putting together a new list.	52161730	1473280014248	1473280014320	e	69
100501	1096687	I need your help in putting together a new list.	I need your help in putting together a new list.	52161754	1473280014440	1473280014512	d	68
100501	1096687	I need your help in putting together a new list.	I need your help in putting together a new list.	52161761	1473280014536	1473280014568	 	32
100501	1096687	I need your help in putting together a new list.	I need your help in putting together a new list.	52161771	1473280014688	1473280014768	y	89
100501	1096687	I need your help in putting together a new list.	I need your help in putting together a new list.	52161778	1473280014744	1473280014896	o	79
100501	1096687	I need your help in putting together a new list.	I need your help in putting together a new list.	52161802	1473280014840	1473280014984	u	85
100501	1096687	I need your help in putting together a new list.	I need your help in putting together a new list.	52161800	1473280014881	1473280014960	r	82
100501	1096687	I need your help in putting together a new list.	I need your help in putting together a new list.	52161804	1473280015000	1473280015136	 	32
100501	1096687	I need your help in putting together a new list.	I need your help in putting together a new list.	52161808	1473280015224	1473280015369	h	72
100501	1096687	I need your help in putting together a new list.	I need your help in putting together a new list.	52161811	1473280015344	1473280015464	e	69
100501	1096687	I need your help in putting together a new list.	I need your help in putting together a new list.	52161814	1473280015449	1473280015552	l	76
100501	1096687	I need your help in putting together a new list.	I need your help in putting together a new list.	52161817	1473280015616	1473280015712	p	80
100501	1096687	I need your help in putting together a new list.	I need your help in putting together a new list.	52161849	1473280015856	1473280015920	 	32
100501	1096687	I need your help in putting together a new list.	I need your help in putting together a new list.	52161857	1473280016080	1473280016184	i	73
100501	1096687	I need your help in putting together a new list.	I need your help in putting together a new list.	52161864	1473280016200	1473280016328	n	78
100501	1096687	I need your help in putting together a new list.	I need your help in putting together a new list.	52161869	1473280016352	1473280016424	 	32
100501	1096687	I need your help in putting together a new list.	I need your help in putting together a new list.	52161875	1473280016496	1473280016608	p	80
100501	1096687	I need your help in putting together a new list.	I need your help in putting together a new list.	52161890	1473280016632	1473280016712	u	85
100501	1096687	I need your help in putting together a new list.	I need your help in putting together a new list.	52161893	1473280016744	1473280016784	t	84
100501	1096687	I need your help in putting together a new list.	I need your help in putting together a new list.	52161901	1473280016896	1473280016944	t	84
100501	1096687	I need your help in putting together a new list.	I need your help in putting together a new list.	52161909	1473280016930	1473280017070	i	73
100501	1096687	I need your help in putting together a new list.	I need your help in putting together a new list.	52161985	1473280017040	1473280017161	n	78
100501	1096687	I need your help in putting together a new list.	I need your help in putting together a new list.	52161987	1473280017120	1473280017208	g	71
100501	1096687	I need your help in putting together a new list.	I need your help in putting together a new list.	52161988	1473280017225	1473280017288	 	32
100501	1096687	I need your help in putting together a new list.	I need your help in putting together a new list.	52161991	1473280017672	1473280017752	t	84
100501	1096687	I need your help in putting together a new list.	I need your help in putting together a new list.	52161994	1473280017776	1473280017864	o	79
100501	1096687	I need your help in putting together a new list.	I need your help in putting together a new list.	52161997	1473280018112	1473280018160	g	71
100501	1096687	I need your help in putting together a new list.	I need your help in putting together a new list.	52162001	1473280018240	1473280018328	e	69
100501	1096687	I need your help in putting together a new list.	I need your help in putting together a new list.	52162002	1473280018344	1473280018432	t	84
100501	1096687	I need your help in putting together a new list.	I need your help in putting together a new list.	52162003	1473280018448	1473280018552	h	72
100501	1096687	I need your help in putting together a new list.	I need your help in putting together a new list.	52162004	1473280018520	1473280018642	e	69
100501	1096687	I need your help in putting together a new list.	I need your help in putting together a new list.	52162029	1473280018600	1473280018712	r	82
100501	1096687	I need your help in putting together a new list.	I need your help in putting together a new list.	52162032	1473280018736	1473280018832	 	32
100501	1096687	I need your help in putting together a new list.	I need your help in putting together a new list.	52162038	1473280018880	1473280019024	a	65
100501	1096687	I need your help in putting together a new list.	I need your help in putting together a new list.	52162041	1473280018960	1473280019048	 	32
100501	1096687	I need your help in putting together a new list.	I need your help in putting together a new list.	52162043	1473280019144	1473280019256	n	78
100501	1096687	I need your help in putting together a new list.	I need your help in putting together a new list.	52162078	1473280019216	1473280019376	e	69
100501	1096687	I need your help in putting together a new list.	I need your help in putting together a new list.	52162082	1473280019360	1473280019480	w	87
100501	1096687	I need your help in putting together a new list.	I need your help in putting together a new list.	52162087	1473280019448	1473280019552	 	32
100501	1096687	I need your help in putting together a new list.	I need your help in putting together a new list.	52162091	1473280019584	1473280019664	l	76
100501	1096687	I need your help in putting together a new list.	I need your help in putting together a new list.	52162095	1473280019760	1473280019864	i	73
100501	1096687	I need your help in putting together a new list.	I need your help in putting together a new list.	52162098	1473280019896	1473280020016	s	83
100501	1096687	I need your help in putting together a new list.	I need your help in putting together a new list.	52162116	1473280020072	1473280020152	t	84
100501	1096687	I need your help in putting together a new list.	I need your help in putting together a new list.	52162122	1473280020200	1473280020304	.	190
100501	1096699	I was a bit rusty but I didn't want to miss the elections back home.	I was a bit rusty but I didn't want to miss the elections back home.	52162582	1473280026600	1473280026736	SHIFT	16
100501	1096699	I was a bit rusty but I didn't want to miss the elections back home.	I was a bit rusty but I didn't want to miss the elections back home.	52162587	1473280026672	1473280026768	I	73
100501	1096699	I was a bit rusty but I didn't want to miss the elections back home.	I was a bit rusty but I didn't want to miss the elections back home.	52162593	1473280026792	1473280026888	 	32
100501	1096699	I was a bit rusty but I didn't want to miss the elections back home.	I was a bit rusty but I didn't want to miss the elections back home.	52162601	1473280026904	1473280026992	w	87
100501	1096699	I was a bit rusty but I didn't want to miss the elections back home.	I was a bit rusty but I didn't want to miss the elections back home.	52162611	1473280027056	1473280027176	a	65
100501	1096699	I was a bit rusty but I didn't want to miss the elections back home.	I was a bit rusty but I didn't want to miss the elections back home.	52162654	1473280027144	1473280027272	s	83
100501	1096699	I was a bit rusty but I didn't want to miss the elections back home.	I was a bit rusty but I didn't want to miss the elections back home.	52162658	1473280027240	1473280027352	 	32
100501	1096699	I was a bit rusty but I didn't want to miss the elections back home.	I was a bit rusty but I didn't want to miss the elections back home.	52162664	1473280027608	1473280027792	a	65
100501	1096699	I was a bit rusty but I didn't want to miss the elections back home.	I was a bit rusty but I didn't want to miss the elections back home.	52162669	1473280027760	1473280027840	 	32
100501	1096699	I was a bit rusty but I didn't want to miss the elections back home.	I was a bit rusty but I didn't want to miss the elections back home.	52162678	1473280027984	1473280028064	b	66
100501	1096699	I was a bit rusty but I didn't want to miss the elections back home.	I was a bit rusty but I didn't want to miss the elections back home.	52162684	1473280028112	1473280028192	i	73
100501	1096699	I was a bit rusty but I didn't want to miss the elections back home.	I was a bit rusty but I didn't want to miss the elections back home.	52162726	1473280028224	1473280028320	t	84
100501	1096699	I was a bit rusty but I didn't want to miss the elections back home.	I was a bit rusty but I didn't want to miss the elections back home.	52162731	1473280028344	1473280028424	 	32
100501	1096699	I was a bit rusty but I didn't want to miss the elections back home.	I was a bit rusty but I didn't want to miss the elections back home.	52162734	1473280028520	1473280028600	r	82
100501	1096699	I was a bit rusty but I didn't want to miss the elections back home.	I was a bit rusty but I didn't want to miss the elections back home.	52162738	1473280028672	1473280028728	u	85
100501	1096699	I was a bit rusty but I didn't want to miss the elections back home.	I was a bit rusty but I didn't want to miss the elections back home.	52162743	1473280028992	1473280029064	s	83
100501	1096699	I was a bit rusty but I didn't want to miss the elections back home.	I was a bit rusty but I didn't want to miss the elections back home.	52162801	1473280029424	1473280029496	t	84
100501	1096699	I was a bit rusty but I didn't want to miss the elections back home.	I was a bit rusty but I didn't want to miss the elections back home.	52162803	1473280029576	1473280029680	y	89
100501	1096699	I was a bit rusty but I didn't want to miss the elections back home.	I was a bit rusty but I didn't want to miss the elections back home.	52162805	1473280029704	1473280029832	 	32
100501	1096699	I was a bit rusty but I didn't want to miss the elections back home.	I was a bit rusty but I didn't want to miss the elections back home.	52162807	1473280030048	1473280030144	b	66
100501	1096699	I was a bit rusty but I didn't want to miss the elections back home.	I was a bit rusty but I didn't want to miss the elections back home.	52162812	1473280030160	1473280030248	u	85
100501	1096699	I was a bit rusty but I didn't want to miss the elections back home.	I was a bit rusty but I didn't want to miss the elections back home.	52162843	1473280030264	1473280030344	t	84
100501	1096699	I was a bit rusty but I didn't want to miss the elections back home.	I was a bit rusty but I didn't want to miss the elections back home.	52162847	1473280030368	1473280030440	 	32
100501	1096699	I was a bit rusty but I didn't want to miss the elections back home.	I was a bit rusty but I didn't want to miss the elections back home.	52162852	1473280030512	1473280030641	SHIFT	16
100501	1096699	I was a bit rusty but I didn't want to miss the elections back home.	I was a bit rusty but I didn't want to miss the elections back home.	52162857	1473280030552	1473280030656	I	73
100501	1096699	I was a bit rusty but I didn't want to miss the elections back home.	I was a bit rusty but I didn't want to miss the elections back home.	52162864	1473280030616	1473280030720	 	32
100501	1096699	I was a bit rusty but I didn't want to miss the elections back home.	I was a bit rusty but I didn't want to miss the elections back home.	52162871	1473280030736	1473280030824	d	68
100501	1096699	I was a bit rusty but I didn't want to miss the elections back home.	I was a bit rusty but I didn't want to miss the elections back home.	52162948	1473280030792	1473280030880	i	73
100501	1096699	I was a bit rusty but I didn't want to miss the elections back home.	I was a bit rusty but I didn't want to miss the elections back home.	52162952	1473280030912	1473280031034	d	68
100501	1096699	I was a bit rusty but I didn't want to miss the elections back home.	I was a bit rusty but I didn't want to miss the elections back home.	52162957	1473280031000	1473280031064	i	73
100501	1096699	I was a bit rusty but I didn't want to miss the elections back home.	I was a bit rusty but I didn't want to miss the elections back home.	52162959	1473280031160	1473280031344	n	78
100501	1096699	I was a bit rusty but I didn't want to miss the elections back home.	I was a bit rusty but I didn't want to miss the elections back home.	52162965	1473280031368	1473280031448	'	222
100501	1096699	I was a bit rusty but I didn't want to miss the elections back home.	I was a bit rusty but I didn't want to miss the elections back home.	52162968	1473280031688	1473280031744	BKSP	8
100501	1096699	I was a bit rusty but I didn't want to miss the elections back home.	I was a bit rusty but I didn't want to miss the elections back home.	52162971	1473280031840	1473280031890	BKSP	8
100501	1096699	I was a bit rusty but I didn't want to miss the elections back home.	I was a bit rusty but I didn't want to miss the elections back home.	52162976	1473280031968	1473280032040	BKSP	8
100501	1096699	I was a bit rusty but I didn't want to miss the elections back home.	I was a bit rusty but I didn't want to miss the elections back home.	52162984	1473280032248	1473280032352	n	78
100501	1096699	I was a bit rusty but I didn't want to miss the elections back home.	I was a bit rusty but I didn't want to miss the elections back home.	52163005	1473280032424	1473280032568	'	222
100501	1096699	I was a bit rusty but I didn't want to miss the elections back home.	I was a bit rusty but I didn't want to miss the elections back home.	52163007	1473280032552	1473280032624	t	84
100501	1096699	I was a bit rusty but I didn't want to miss the elections back home.	I was a bit rusty but I didn't want to miss the elections back home.	52163011	1473280032688	1473280032776	 	32
100501	1096699	I was a bit rusty but I didn't want to miss the elections back home.	I was a bit rusty but I didn't want to miss the elections back home.	52163014	1473280032952	1473280033032	w	87
100501	1096699	I was a bit rusty but I didn't want to miss the elections back home.	I was a bit rusty but I didn't want to miss the elections back home.	52163016	1473280033080	1473280033240	a	65
100501	1096699	I was a bit rusty but I didn't want to miss the elections back home.	I was a bit rusty but I didn't want to miss the elections back home.	52163026	1473280033176	1473280033284	n	78
100501	1096699	I was a bit rusty but I didn't want to miss the elections back home.	I was a bit rusty but I didn't want to miss the elections back home.	52163031	1473280033256	1473280033344	t	84
100501	1096699	I was a bit rusty but I didn't want to miss the elections back home.	I was a bit rusty but I didn't want to miss the elections back home.	52163036	1473280033384	1473280033464	 	32
100501	1096699	I was a bit rusty but I didn't want to miss the elections back home.	I was a bit rusty but I didn't want to miss the elections back home.	52163040	1473280033488	1473280033560	t	84
100501	1096699	I was a bit rusty but I didn't want to miss the elections back home.	I was a bit rusty but I didn't want to miss the elections back home.	52163045	1473280033544	1473280033672	o	79
100501	1096699	I was a bit rusty but I didn't want to miss the elections back home.	I was a bit rusty but I didn't want to miss the elections back home.	52163062	1473280033656	1473280033744	 	32
100501	1096699	I was a bit rusty but I didn't want to miss the elections back home.	I was a bit rusty but I didn't want to miss the elections back home.	52163063	1473280033808	1473280033888	m	77
100501	1096699	I was a bit rusty but I didn't want to miss the elections back home.	I was a bit rusty but I didn't want to miss the elections back home.	52163064	1473280033936	1473280034044	i	73
100501	1096699	I was a bit rusty but I didn't want to miss the elections back home.	I was a bit rusty but I didn't want to miss the elections back home.	52163067	1473280034016	1473280034112	s	83
100501	1096699	I was a bit rusty but I didn't want to miss the elections back home.	I was a bit rusty but I didn't want to miss the elections back home.	52163072	1473280034208	1473280034304	s	83
100501	1096699	I was a bit rusty but I didn't want to miss the elections back home.	I was a bit rusty but I didn't want to miss the elections back home.	52163092	1473280034288	1473280034376	 	32
100501	1096699	I was a bit rusty but I didn't want to miss the elections back home.	I was a bit rusty but I didn't want to miss the elections back home.	52163095	1473280034456	1473280034528	t	84
100501	1096699	I was a bit rusty but I didn't want to miss the elections back home.	I was a bit rusty but I didn't want to miss the elections back home.	52163099	1473280034512	1473280034614	h	72
100501	1096699	I was a bit rusty but I didn't want to miss the elections back home.	I was a bit rusty but I didn't want to miss the elections back home.	52163105	1473280034584	1473280034672	e	69
100501	1096699	I was a bit rusty but I didn't want to miss the elections back home.	I was a bit rusty but I didn't want to miss the elections back home.	52163110	1473280034656	1473280034784	 	32
100501	1096699	I was a bit rusty but I didn't want to miss the elections back home.	I was a bit rusty but I didn't want to miss the elections back home.	52163114	1473280034816	1473280034896	e	69
100501	1096699	I was a bit rusty but I didn't want to miss the elections back home.	I was a bit rusty but I didn't want to miss the elections back home.	52163181	1473280034992	1473280035104	l	76
100501	1096699	I was a bit rusty but I didn't want to miss the elections back home.	I was a bit rusty but I didn't want to miss the elections back home.	52163185	1473280035456	1473280035520	e	69
100501	1096699	I was a bit rusty but I didn't want to miss the elections back home.	I was a bit rusty but I didn't want to miss the elections back home.	52163189	1473280035768	1473280035832	c	67
100501	1096699	I was a bit rusty but I didn't want to miss the elections back home.	I was a bit rusty but I didn't want to miss the elections back home.	52163191	1473280035928	1473280036016	t	84
100501	1096699	I was a bit rusty but I didn't want to miss the elections back home.	I was a bit rusty but I didn't want to miss the elections back home.	52163224	1473280035984	1473280036087	i	73
100501	1096699	I was a bit rusty but I didn't want to miss the elections back home.	I was a bit rusty but I didn't want to miss the elections back home.	52163229	1473280036064	1473280036232	o	79
100501	1096699	I was a bit rusty but I didn't want to miss the elections back home.	I was a bit rusty but I didn't want to miss the elections back home.	52163231	1473280036184	1473280036344	n	78
100501	1096699	I was a bit rusty but I didn't want to miss the elections back home.	I was a bit rusty but I didn't want to miss the elections back home.	52163238	1473280036280	1473280036414	s	83
100501	1096699	I was a bit rusty but I didn't want to miss the elections back home.	I was a bit rusty but I didn't want to miss the elections back home.	52163244	1473280036384	1473280036504	 	32
100501	1096699	I was a bit rusty but I didn't want to miss the elections back home.	I was a bit rusty but I didn't want to miss the elections back home.	52163249	1473280036552	1473280036648	b	66
100501	1096699	I was a bit rusty but I didn't want to miss the elections back home.	I was a bit rusty but I didn't want to miss the elections back home.	52163269	1473280036672	1473280036768	a	65
100501	1096699	I was a bit rusty but I didn't want to miss the elections back home.	I was a bit rusty but I didn't want to miss the elections back home.	52163273	1473280036824	1473280036968	c	67
100501	1096699	I was a bit rusty but I didn't want to miss the elections back home.	I was a bit rusty but I didn't want to miss the elections back home.	52163277	1473280036920	1473280037016	k	75
100501	1096699	I was a bit rusty but I didn't want to miss the elections back home.	I was a bit rusty but I didn't want to miss the elections back home.	52163280	1473280037040	1473280037136	 	32
100501	1096699	I was a bit rusty but I didn't want to miss the elections back home.	I was a bit rusty but I didn't want to miss the elections back home.	52163283	1473280037216	1473280037288	t	84
100501	1096699	I was a bit rusty but I didn't want to miss the elections back home.	I was a bit rusty but I didn't want to miss the elections back home.	52163362	1473280037640	1473280037720	h	72
100501	1096699	I was a bit rusty but I didn't want to miss the elections back home.	I was a bit rusty but I didn't want to miss the elections back home.	52163365	1473280037928	1473280037992	BKSP	8
100501	1096699	I was a bit rusty but I didn't want to miss the elections back home.	I was a bit rusty but I didn't want to miss the elections back home.	52163370	1473280038072	1473280038128	BKSP	8
100501	1096699	I was a bit rusty but I didn't want to miss the elections back home.	I was a bit rusty but I didn't want to miss the elections back home.	52163372	1473280038280	1473280038304	h	72
100501	1096699	I was a bit rusty but I didn't want to miss the elections back home.	I was a bit rusty but I didn't want to miss the elections back home.	52163374	1473280038328	1473280038608	o	79
100501	1096699	I was a bit rusty but I didn't want to miss the elections back home.	I was a bit rusty but I didn't want to miss the elections back home.	52163376	1473280038576	1473280038738	m	77
100501	1096699	I was a bit rusty but I didn't want to miss the elections back home.	I was a bit rusty but I didn't want to miss the elections back home.	52163378	1473280038704	1473280038784	e	69
100501	1096699	I was a bit rusty but I didn't want to miss the elections back home.	I was a bit rusty but I didn't want to miss the elections back home.	52163383	1473280038856	1473280038960	.	190
100501	1096719	Once state owned, Telecom is now half owned by two American companies.	Once state owned, Telecom is now half owned by two American companies.	52163712	1473280045624	1473280045760	SHIFT	16
100501	1096719	Once state owned, Telecom is now half owned by two American companies.	Once state owned, Telecom is now half owned by two American companies.	52163714	1473280045680	1473280045808	O	79
100501	1096719	Once state owned, Telecom is now half owned by two American companies.	Once state owned, Telecom is now half owned by two American companies.	52163716	1473280045784	1473280045896	n	78
100501	1096719	Once state owned, Telecom is now half owned by two American companies.	Once state owned, Telecom is now half owned by two American companies.	52163719	1473280045936	1473280046032	c	67
100501	1096719	Once state owned, Telecom is now half owned by two American companies.	Once state owned, Telecom is now half owned by two American companies.	52163722	1473280046144	1473280046209	e	69
100501	1096719	Once state owned, Telecom is now half owned by two American companies.	Once state owned, Telecom is now half owned by two American companies.	52163726	1473280046231	1473280046303	 	32
100501	1096719	Once state owned, Telecom is now half owned by two American companies.	Once state owned, Telecom is now half owned by two American companies.	52163751	1473280046432	1473280046520	s	83
100501	1096719	Once state owned, Telecom is now half owned by two American companies.	Once state owned, Telecom is now half owned by two American companies.	52163753	1473280046615	1473280046672	t	84
100501	1096719	Once state owned, Telecom is now half owned by two American companies.	Once state owned, Telecom is now half owned by two American companies.	52163757	1473280046688	1473280046820	a	65
100501	1096719	Once state owned, Telecom is now half owned by two American companies.	Once state owned, Telecom is now half owned by two American companies.	52163762	1473280046784	1473280046888	t	84
100501	1096719	Once state owned, Telecom is now half owned by two American companies.	Once state owned, Telecom is now half owned by two American companies.	52163766	1473280046960	1473280047016	e	69
100501	1096719	Once state owned, Telecom is now half owned by two American companies.	Once state owned, Telecom is now half owned by two American companies.	52163821	1473280047200	1473280047272	 	32
100501	1096719	Once state owned, Telecom is now half owned by two American companies.	Once state owned, Telecom is now half owned by two American companies.	52163824	1473280047408	1473280047520	o	79
100501	1096719	Once state owned, Telecom is now half owned by two American companies.	Once state owned, Telecom is now half owned by two American companies.	52163826	1473280047560	1473280047647	w	87
100501	1096719	Once state owned, Telecom is now half owned by two American companies.	Once state owned, Telecom is now half owned by two American companies.	52163828	1473280047680	1473280047784	n	78
100501	1096719	Once state owned, Telecom is now half owned by two American companies.	Once state owned, Telecom is now half owned by two American companies.	52163830	1473280047912	1473280047984	e	69
100501	1096719	Once state owned, Telecom is now half owned by two American companies.	Once state owned, Telecom is now half owned by two American companies.	52163855	1473280048104	1473280048192	d	68
100501	1096719	Once state owned, Telecom is now half owned by two American companies.	Once state owned, Telecom is now half owned by two American companies.	52163858	1473280048248	1473280048344	,	188
100501	1096719	Once state owned, Telecom is now half owned by two American companies.	Once state owned, Telecom is now half owned by two American companies.	52163861	1473280048376	1473280048448	 	32
100501	1096719	Once state owned, Telecom is now half owned by two American companies.	Once state owned, Telecom is now half owned by two American companies.	52163868	1473280048536	1473280048680	SHIFT	16
100501	1096719	Once state owned, Telecom is now half owned by two American companies.	Once state owned, Telecom is now half owned by two American companies.	52163864	1473280048592	1473280048664	T	84
100501	1096719	Once state owned, Telecom is now half owned by two American companies.	Once state owned, Telecom is now half owned by two American companies.	52163872	1473280048768	1473280048864	e	69
100501	1096719	Once state owned, Telecom is now half owned by two American companies.	Once state owned, Telecom is now half owned by two American companies.	52163891	1473280048896	1473280049019	l	76
100501	1096719	Once state owned, Telecom is now half owned by two American companies.	Once state owned, Telecom is now half owned by two American companies.	52163894	1473280048984	1473280049080	e	69
100501	1096719	Once state owned, Telecom is now half owned by two American companies.	Once state owned, Telecom is now half owned by two American companies.	52163896	1473280049264	1473280049376	c	67
100501	1096719	Once state owned, Telecom is now half owned by two American companies.	Once state owned, Telecom is now half owned by two American companies.	52163898	1473280049360	1473280049480	o	79
100501	1096719	Once state owned, Telecom is now half owned by two American companies.	Once state owned, Telecom is now half owned by two American companies.	52163900	1473280049504	1473280049560	m	77
100501	1096719	Once state owned, Telecom is now half owned by two American companies.	Once state owned, Telecom is now half owned by two American companies.	52163918	1473280049576	1473280049656	 	32
100501	1096719	Once state owned, Telecom is now half owned by two American companies.	Once state owned, Telecom is now half owned by two American companies.	52163921	1473280049704	1473280049824	i	73
100501	1096719	Once state owned, Telecom is now half owned by two American companies.	Once state owned, Telecom is now half owned by two American companies.	52163926	1473280049784	1473280049904	s	83
100501	1096719	Once state owned, Telecom is now half owned by two American companies.	Once state owned, Telecom is now half owned by two American companies.	52163932	1473280049848	1473280049936	 	32
100501	1096719	Once state owned, Telecom is now half owned by two American companies.	Once state owned, Telecom is now half owned by two American companies.	52163935	1473280050008	1473280050100	n	78
100501	1096719	Once state owned, Telecom is now half owned by two American companies.	Once state owned, Telecom is now half owned by two American companies.	52163994	1473280050072	1473280050248	o	79
100501	1096719	Once state owned, Telecom is now half owned by two American companies.	Once state owned, Telecom is now half owned by two American companies.	52163998	1473280050321	1473280050416	e	69
100501	1096719	Once state owned, Telecom is now half owned by two American companies.	Once state owned, Telecom is now half owned by two American companies.	52164001	1473280050775	1473280050872	BKSP	8
100501	1096719	Once state owned, Telecom is now half owned by two American companies.	Once state owned, Telecom is now half owned by two American companies.	52164005	1473280050920	1473280050976	w	87
100501	1096719	Once state owned, Telecom is now half owned by two American companies.	Once state owned, Telecom is now half owned by two American companies.	52164006	1473280051431	1473280051527	 	32
100501	1096719	Once state owned, Telecom is now half owned by two American companies.	Once state owned, Telecom is now half owned by two American companies.	52164007	1473280051688	1473280051775	h	72
100501	1096719	Once state owned, Telecom is now half owned by two American companies.	Once state owned, Telecom is now half owned by two American companies.	52164035	1473280051759	1473280051864	a	65
100501	1096719	Once state owned, Telecom is now half owned by two American companies.	Once state owned, Telecom is now half owned by two American companies.	52164040	1473280051896	1473280051992	l	76
100501	1096719	Once state owned, Telecom is now half owned by two American companies.	Once state owned, Telecom is now half owned by two American companies.	52164046	1473280052080	1473280052168	f	70
100501	1096719	Once state owned, Telecom is now half owned by two American companies.	Once state owned, Telecom is now half owned by two American companies.	52164048	1473280052208	1473280052288	 	32
100501	1096719	Once state owned, Telecom is now half owned by two American companies.	Once state owned, Telecom is now half owned by two American companies.	52164050	1473280052408	1473280052496	o	79
100501	1096719	Once state owned, Telecom is now half owned by two American companies.	Once state owned, Telecom is now half owned by two American companies.	52164051	1473280052520	1473280052600	w	87
100501	1096719	Once state owned, Telecom is now half owned by two American companies.	Once state owned, Telecom is now half owned by two American companies.	52164077	1473280052656	1473280052744	n	78
100501	1096719	Once state owned, Telecom is now half owned by two American companies.	Once state owned, Telecom is now half owned by two American companies.	52164079	1473280052936	1473280053015	e	69
100501	1096719	Once state owned, Telecom is now half owned by two American companies.	Once state owned, Telecom is now half owned by two American companies.	52164085	1473280053120	1473280053227	d	68
100501	1096719	Once state owned, Telecom is now half owned by two American companies.	Once state owned, Telecom is now half owned by two American companies.	52164088	1473280053200	1473280053272	 	32
100501	1096719	Once state owned, Telecom is now half owned by two American companies.	Once state owned, Telecom is now half owned by two American companies.	52164091	1473280053368	1473280053459	b	66
100501	1096719	Once state owned, Telecom is now half owned by two American companies.	Once state owned, Telecom is now half owned by two American companies.	52164125	1473280053432	1473280053544	y	89
100501	1096719	Once state owned, Telecom is now half owned by two American companies.	Once state owned, Telecom is now half owned by two American companies.	52164128	1473280053560	1473280053648	 	32
100501	1096719	Once state owned, Telecom is now half owned by two American companies.	Once state owned, Telecom is now half owned by two American companies.	52164130	1473280053848	1473280053912	t	84
100501	1096719	Once state owned, Telecom is now half owned by two American companies.	Once state owned, Telecom is now half owned by two American companies.	52164132	1473280053944	1473280054064	o	79
100501	1096719	Once state owned, Telecom is now half owned by two American companies.	Once state owned, Telecom is now half owned by two American companies.	52164133	1473280054032	1473280054112	w	87
100501	1096719	Once state owned, Telecom is now half owned by two American companies.	Once state owned, Telecom is now half owned by two American companies.	52164136	1473280054136	1473280054224	 	32
100501	1096719	Once state owned, Telecom is now half owned by two American companies.	Once state owned, Telecom is now half owned by two American companies.	52164220	1473280054328	1473280054472	SHIFT	16
100501	1096719	Once state owned, Telecom is now half owned by two American companies.	Once state owned, Telecom is now half owned by two American companies.	52164223	1473280054400	1473280054488	A	65
100501	1096719	Once state owned, Telecom is now half owned by two American companies.	Once state owned, Telecom is now half owned by two American companies.	52164227	1473280054512	1473280054607	m	77
100501	1096719	Once state owned, Telecom is now half owned by two American companies.	Once state owned, Telecom is now half owned by two American companies.	52164232	1473280054664	1473280054720	e	69
100501	1096719	Once state owned, Telecom is now half owned by two American companies.	Once state owned, Telecom is now half owned by two American companies.	52164237	1473280054943	1473280055000	BKSP	8
100501	1096719	Once state owned, Telecom is now half owned by two American companies.	Once state owned, Telecom is now half owned by two American companies.	52164239	1473280055088	1473280055152	BKSP	8
100501	1096719	Once state owned, Telecom is now half owned by two American companies.	Once state owned, Telecom is now half owned by two American companies.	52164243	1473280055240	1473280055296	BKSP	8
100501	1096719	Once state owned, Telecom is now half owned by two American companies.	Once state owned, Telecom is now half owned by two American companies.	52164248	1473280055408	1473280055449	BKSP	8
100501	1096719	Once state owned, Telecom is now half owned by two American companies.	Once state owned, Telecom is now half owned by two American companies.	52164251	1473280055560	1473280055616	BKSP	8
100501	1096719	Once state owned, Telecom is now half owned by two American companies.	Once state owned, Telecom is now half owned by two American companies.	52164256	1473280055704	1473280055776	BKSP	8
100501	1096719	Once state owned, Telecom is now half owned by two American companies.	Once state owned, Telecom is now half owned by two American companies.	52164261	1473280055808	1473280055903	w	87
100501	1096719	Once state owned, Telecom is now half owned by two American companies.	Once state owned, Telecom is now half owned by two American companies.	52164265	1473280055960	1473280056064	o	79
100501	1096719	Once state owned, Telecom is now half owned by two American companies.	Once state owned, Telecom is now half owned by two American companies.	52164310	1473280056088	1473280056160	 	32
100501	1096719	Once state owned, Telecom is now half owned by two American companies.	Once state owned, Telecom is now half owned by two American companies.	52164315	1473280056296	1473280056559	SHIFT	16
100501	1096719	Once state owned, Telecom is now half owned by two American companies.	Once state owned, Telecom is now half owned by two American companies.	52164313	1473280056368	1473280056480	A	65
100501	1096719	Once state owned, Telecom is now half owned by two American companies.	Once state owned, Telecom is now half owned by two American companies.	52164318	1473280056527	1473280056664	M	77
100501	1096719	Once state owned, Telecom is now half owned by two American companies.	Once state owned, Telecom is now half owned by two American companies.	52164321	1473280056816	1473280056968	e	69
100501	1096719	Once state owned, Telecom is now half owned by two American companies.	Once state owned, Telecom is now half owned by two American companies.	52164325	1473280057176	1473280057232	BKSP	8
100501	1096719	Once state owned, Telecom is now half owned by two American companies.	Once state owned, Telecom is now half owned by two American companies.	52164329	1473280057312	1473280057376	BKSP	8
100501	1096719	Once state owned, Telecom is now half owned by two American companies.	Once state owned, Telecom is now half owned by two American companies.	52164334	1473280057520	1473280057621	m	77
100501	1096719	Once state owned, Telecom is now half owned by two American companies.	Once state owned, Telecom is now half owned by two American companies.	52164362	1473280057633	1473280057744	e	69
100501	1096719	Once state owned, Telecom is now half owned by two American companies.	Once state owned, Telecom is now half owned by two American companies.	52164364	1473280057704	1473280057830	r	82
100501	1096719	Once state owned, Telecom is now half owned by two American companies.	Once state owned, Telecom is now half owned by two American companies.	52164366	1473280057800	1473280057912	i	73
100501	1096719	Once state owned, Telecom is now half owned by two American companies.	Once state owned, Telecom is now half owned by two American companies.	52164369	1473280058056	1473280058152	c	67
100501	1096719	Once state owned, Telecom is now half owned by two American companies.	Once state owned, Telecom is now half owned by two American companies.	52164372	1473280058352	1473280058424	a	65
100501	1096719	Once state owned, Telecom is now half owned by two American companies.	Once state owned, Telecom is now half owned by two American companies.	52164394	1473280058471	1473280058568	n	78
100501	1096719	Once state owned, Telecom is now half owned by two American companies.	Once state owned, Telecom is now half owned by two American companies.	52164396	1473280058632	1473280058728	 	32
100501	1096719	Once state owned, Telecom is now half owned by two American companies.	Once state owned, Telecom is now half owned by two American companies.	52164399	1473280058928	1473280059048	c	67
100501	1096719	Once state owned, Telecom is now half owned by two American companies.	Once state owned, Telecom is now half owned by two American companies.	52164401	1473280058959	1473280059128	o	79
100501	1096719	Once state owned, Telecom is now half owned by two American companies.	Once state owned, Telecom is now half owned by two American companies.	52164425	1473280059072	1473280059216	m	77
100501	1096719	Once state owned, Telecom is now half owned by two American companies.	Once state owned, Telecom is now half owned by two American companies.	52164427	1473280059175	1473280059264	p	80
100501	1096719	Once state owned, Telecom is now half owned by two American companies.	Once state owned, Telecom is now half owned by two American companies.	52164432	1473280059344	1473280059448	a	65
100501	1096719	Once state owned, Telecom is now half owned by two American companies.	Once state owned, Telecom is now half owned by two American companies.	52164435	1473280059496	1473280059584	n	78
100501	1096719	Once state owned, Telecom is now half owned by two American companies.	Once state owned, Telecom is now half owned by two American companies.	52164441	1473280059640	1473280059792	i	73
100501	1096719	Once state owned, Telecom is now half owned by two American companies.	Once state owned, Telecom is now half owned by two American companies.	52164492	1473280059743	1473280059904	n	78
100501	1096719	Once state owned, Telecom is now half owned by two American companies.	Once state owned, Telecom is now half owned by two American companies.	52164497	1473280060008	1473280060071	e	69
100501	1096719	Once state owned, Telecom is now half owned by two American companies.	Once state owned, Telecom is now half owned by two American companies.	52164501	1473280060360	1473280060416	BKSP	8
100501	1096719	Once state owned, Telecom is now half owned by two American companies.	Once state owned, Telecom is now half owned by two American companies.	52164505	1473280060504	1473280060584	BKSP	8
100501	1096719	Once state owned, Telecom is now half owned by two American companies.	Once state owned, Telecom is now half owned by two American companies.	52164509	1473280060528	1473280060632	e	69
100501	1096719	Once state owned, Telecom is now half owned by two American companies.	Once state owned, Telecom is now half owned by two American companies.	52164513	1473280060743	1473280060856	s	83
100501	1096719	Once state owned, Telecom is now half owned by two American companies.	Once state owned, Telecom is now half owned by two American companies.	52164517	1473280060888	1473280060976	.	190
