PARTICIPANT_ID	TEST_SECTION_ID	SENTENCE	USER_INPUT	KEYSTROKE_ID	PRESS_TIME	RELEASE_TIME	LETTER	KEYCODE
100050	1091685	We sold the UK business to AEP.	we sold the uk business to AEP.	51924896	1473275838040	1473275838162	w	87
100050	1091685	We sold the UK business to AEP.	we sold the uk business to AEP.	51924898	1473275838109	1473275838240	e	69
100050	1091685	We sold the UK business to AEP.	we sold the uk business to AEP.	51924900	1473275838589	1473275838689	 	32
100050	1091685	We sold the UK business to AEP.	we sold the uk business to AEP.	51924902	1473275838705	1473275838804	s	83
100050	1091685	We sold the UK business to AEP.	we sold the uk business to AEP.	51924903	1473275838866	1473275838942	o	79
100050	1091685	We sold the UK business to AEP.	we sold the uk business to AEP.	51924923	1473275839093	1473275839158	l	76
100050	1091685	We sold the UK business to AEP.	we sold the uk business to AEP.	51924929	1473275839224	1473275839318	d	68
100050	1091685	We sold the UK business to AEP.	we sold the uk business to AEP.	51924935	1473275839351	1473275839425	 	32
100050	1091685	We sold the UK business to AEP.	we sold the uk business to AEP.	51925010	1473275839456	1473275839538	t	84
100050	1091685	We sold the UK business to AEP.	we sold the uk business to AEP.	51924939	1473275839477	1473275839527	r	82
100050	1091685	We sold the UK business to AEP.	we sold the uk business to AEP.	51925011	1473275839569	1473275839624	h	72
100050	1091685	We sold the UK business to AEP.	we sold the uk business to AEP.	51925013	1473275839692	1473275839790	e	69
100050	1091685	We sold the UK business to AEP.	we sold the uk business to AEP.	51925016	1473275840088	1473275840157	BKSP	8
100050	1091685	We sold the UK business to AEP.	we sold the uk business to AEP.	51925020	1473275840249	1473275840317	BKSP	8
100050	1091685	We sold the UK business to AEP.	we sold the uk business to AEP.	51925026	1473275840400	1473275840473	BKSP	8
100050	1091685	We sold the UK business to AEP.	we sold the uk business to AEP.	51925030	1473275840943	1473275841005	h	72
100050	1091685	We sold the UK business to AEP.	we sold the uk business to AEP.	51925036	1473275841024	1473275841121	e	69
100050	1091685	We sold the UK business to AEP.	we sold the uk business to AEP.	51925038	1473275841220	1473275841320	 	32
100050	1091685	We sold the UK business to AEP.	we sold the uk business to AEP.	51925109	1473275841522	1473275841590	u	85
100050	1091685	We sold the UK business to AEP.	we sold the uk business to AEP.	51925113	1473275841802	1473275841873	k	75
100050	1091685	We sold the UK business to AEP.	we sold the uk business to AEP.	51925116	1473275842262	1473275842371	 	32
100050	1091685	We sold the UK business to AEP.	we sold the uk business to AEP.	51925118	1473275842620	1473275842704	b	66
100050	1091685	We sold the UK business to AEP.	we sold the uk business to AEP.	51925122	1473275842900	1473275842971	u	85
100050	1091685	We sold the UK business to AEP.	we sold the uk business to AEP.	51925206	1473275843633	1473275843735	s	83
100050	1091685	We sold the UK business to AEP.	we sold the uk business to AEP.	51925210	1473275843850	1473275843920	i	73
100050	1091685	We sold the UK business to AEP.	we sold the uk business to AEP.	51925212	1473275844315	1473275844381	n	78
100050	1091685	We sold the UK business to AEP.	we sold the uk business to AEP.	51925215	1473275844437	1473275844577	e	69
100050	1091685	We sold the UK business to AEP.	we sold the uk business to AEP.	51925255	1473275844568	1473275844614	s	83
100050	1091685	We sold the UK business to AEP.	we sold the uk business to AEP.	51925259	1473275844684	1473275844788	s	83
100050	1091685	We sold the UK business to AEP.	we sold the uk business to AEP.	51925260	1473275844901	1473275845001	 	32
100050	1091685	We sold the UK business to AEP.	we sold the uk business to AEP.	51925261	1473275845185	1473275845300	t	84
100050	1091685	We sold the UK business to AEP.	we sold the uk business to AEP.	51925262	1473275845370	1473275845462	o	79
100050	1091685	We sold the UK business to AEP.	we sold the uk business to AEP.	51925263	1473275845716	1473275845801	 	32
100050	1091685	We sold the UK business to AEP.	we sold the uk business to AEP.	51925452	1473275846302	1473275847613	SHIFT	16
100050	1091685	We sold the UK business to AEP.	we sold the uk business to AEP.	51925445	1473275846505	1473275846642	A	65
100050	1091685	We sold the UK business to AEP.	we sold the uk business to AEP.	51925447	1473275846942	1473275847059	E	69
100050	1091685	We sold the UK business to AEP.	we sold the uk business to AEP.	51925449	1473275847310	1473275847417	P	80
100050	1091685	We sold the UK business to AEP.	we sold the uk business to AEP.	51925455	1473275847863	1473275847970	.	190
100050	1091707	Soldiers would be in their barracks throughout the weekend.	Soldiers would be in their barracks throughout the weekend.	51925894	1473275856373	1473275856833	SHIFT	16
100050	1091707	Soldiers would be in their barracks throughout the weekend.	Soldiers would be in their barracks throughout the weekend.	51925896	1473275856728	1473275856849	S	83
100050	1091707	Soldiers would be in their barracks throughout the weekend.	Soldiers would be in their barracks throughout the weekend.	51925898	1473275856896	1473275856968	o	79
100050	1091707	Soldiers would be in their barracks throughout the weekend.	Soldiers would be in their barracks throughout the weekend.	51925900	1473275857082	1473275857167	l	76
100050	1091707	Soldiers would be in their barracks throughout the weekend.	Soldiers would be in their barracks throughout the weekend.	51925903	1473275857199	1473275857306	d	68
100050	1091707	Soldiers would be in their barracks throughout the weekend.	Soldiers would be in their barracks throughout the weekend.	51925907	1473275857962	1473275858022	i	73
100050	1091707	Soldiers would be in their barracks throughout the weekend.	Soldiers would be in their barracks throughout the weekend.	51925961	1473275858124	1473275858308	e	69
100050	1091707	Soldiers would be in their barracks throughout the weekend.	Soldiers would be in their barracks throughout the weekend.	51925965	1473275858272	1473275858419	r	82
100050	1091707	Soldiers would be in their barracks throughout the weekend.	Soldiers would be in their barracks throughout the weekend.	51925970	1473275858619	1473275858741	s	83
100050	1091707	Soldiers would be in their barracks throughout the weekend.	Soldiers would be in their barracks throughout the weekend.	51925972	1473275858840	1473275858938	 	32
100050	1091707	Soldiers would be in their barracks throughout the weekend.	Soldiers would be in their barracks throughout the weekend.	51925976	1473275858969	1473275859057	w	87
100050	1091707	Soldiers would be in their barracks throughout the weekend.	Soldiers would be in their barracks throughout the weekend.	51926002	1473275859094	1473275859203	o	79
100050	1091707	Soldiers would be in their barracks throughout the weekend.	Soldiers would be in their barracks throughout the weekend.	51926003	1473275859261	1473275859342	u	85
100050	1091707	Soldiers would be in their barracks throughout the weekend.	Soldiers would be in their barracks throughout the weekend.	51926006	1473275859484	1473275859558	l	76
100050	1091707	Soldiers would be in their barracks throughout the weekend.	Soldiers would be in their barracks throughout the weekend.	51926008	1473275859589	1473275859686	d	68
100050	1091707	Soldiers would be in their barracks throughout the weekend.	Soldiers would be in their barracks throughout the weekend.	51926010	1473275859758	1473275859842	 	32
100050	1091707	Soldiers would be in their barracks throughout the weekend.	Soldiers would be in their barracks throughout the weekend.	51926040	1473275859960	1473275860022	b	66
100050	1091707	Soldiers would be in their barracks throughout the weekend.	Soldiers would be in their barracks throughout the weekend.	51926042	1473275860074	1473275860174	e	69
100050	1091707	Soldiers would be in their barracks throughout the weekend.	Soldiers would be in their barracks throughout the weekend.	51926044	1473275860205	1473275860303	 	32
100050	1091707	Soldiers would be in their barracks throughout the weekend.	Soldiers would be in their barracks throughout the weekend.	51926047	1473275860392	1473275860484	i	73
100050	1091707	Soldiers would be in their barracks throughout the weekend.	Soldiers would be in their barracks throughout the weekend.	51926049	1473275860559	1473275860643	n	78
100050	1091707	Soldiers would be in their barracks throughout the weekend.	Soldiers would be in their barracks throughout the weekend.	51926097	1473275861059	1473275861159	 	32
100050	1091707	Soldiers would be in their barracks throughout the weekend.	Soldiers would be in their barracks throughout the weekend.	51926099	1473275861190	1473275861275	t	84
100050	1091707	Soldiers would be in their barracks throughout the weekend.	Soldiers would be in their barracks throughout the weekend.	51926104	1473275861290	1473275861370	h	72
100050	1091707	Soldiers would be in their barracks throughout the weekend.	Soldiers would be in their barracks throughout the weekend.	51926109	1473275861422	1473275861544	e	69
100050	1091707	Soldiers would be in their barracks throughout the weekend.	Soldiers would be in their barracks throughout the weekend.	51926113	1473275861660	1473275861712	i	73
100050	1091707	Soldiers would be in their barracks throughout the weekend.	Soldiers would be in their barracks throughout the weekend.	51926170	1473275861844	1473275861959	r	82
100050	1091707	Soldiers would be in their barracks throughout the weekend.	Soldiers would be in their barracks throughout the weekend.	51926173	1473275862324	1473275862417	 	32
100050	1091707	Soldiers would be in their barracks throughout the weekend.	Soldiers would be in their barracks throughout the weekend.	51926178	1473275862612	1473275862685	b	66
100050	1091707	Soldiers would be in their barracks throughout the weekend.	Soldiers would be in their barracks throughout the weekend.	51926180	1473275862852	1473275862969	a	65
100050	1091707	Soldiers would be in their barracks throughout the weekend.	Soldiers would be in their barracks throughout the weekend.	51926185	1473275863256	1473275863334	r	82
100050	1091707	Soldiers would be in their barracks throughout the weekend.	Soldiers would be in their barracks throughout the weekend.	51926229	1473275863405	1473275863516	r	82
100050	1091707	Soldiers would be in their barracks throughout the weekend.	Soldiers would be in their barracks throughout the weekend.	51926232	1473275863620	1473275863716	a	65
100050	1091707	Soldiers would be in their barracks throughout the weekend.	Soldiers would be in their barracks throughout the weekend.	51926236	1473275863834	1473275863932	c	67
100050	1091707	Soldiers would be in their barracks throughout the weekend.	Soldiers would be in their barracks throughout the weekend.	51926241	1473275863985	1473275864058	k	75
100050	1091707	Soldiers would be in their barracks throughout the weekend.	Soldiers would be in their barracks throughout the weekend.	51926247	1473275864221	1473275864317	s	83
100050	1091707	Soldiers would be in their barracks throughout the weekend.	Soldiers would be in their barracks throughout the weekend.	51926305	1473275864459	1473275864558	 	32
100050	1091707	Soldiers would be in their barracks throughout the weekend.	Soldiers would be in their barracks throughout the weekend.	51926307	1473275864589	1473275864689	t	84
100050	1091707	Soldiers would be in their barracks throughout the weekend.	Soldiers would be in their barracks throughout the weekend.	51926309	1473275864721	1473275864791	h	72
100050	1091707	Soldiers would be in their barracks throughout the weekend.	Soldiers would be in their barracks throughout the weekend.	51926312	1473275865516	1473275865613	r	82
100050	1091707	Soldiers would be in their barracks throughout the weekend.	Soldiers would be in their barracks throughout the weekend.	51926316	1473275865658	1473275865789	o	79
100050	1091707	Soldiers would be in their barracks throughout the weekend.	Soldiers would be in their barracks throughout the weekend.	51926358	1473275865853	1473275865932	u	85
100050	1091707	Soldiers would be in their barracks throughout the weekend.	Soldiers would be in their barracks throughout the weekend.	51926361	1473275866074	1473275866158	g	71
100050	1091707	Soldiers would be in their barracks throughout the weekend.	Soldiers would be in their barracks throughout the weekend.	51926364	1473275866236	1473275866315	h	72
100050	1091707	Soldiers would be in their barracks throughout the weekend.	Soldiers would be in their barracks throughout the weekend.	51926367	1473275866469	1473275866581	o	79
100050	1091707	Soldiers would be in their barracks throughout the weekend.	Soldiers would be in their barracks throughout the weekend.	51926371	1473275866628	1473275866713	u	85
100050	1091707	Soldiers would be in their barracks throughout the weekend.	Soldiers would be in their barracks throughout the weekend.	51926385	1473275866767	1473275866873	t	84
100050	1091707	Soldiers would be in their barracks throughout the weekend.	Soldiers would be in their barracks throughout the weekend.	51926390	1473275866920	1473275867001	 	32
100050	1091707	Soldiers would be in their barracks throughout the weekend.	Soldiers would be in their barracks throughout the weekend.	51926395	1473275867032	1473275867129	t	84
100050	1091707	Soldiers would be in their barracks throughout the weekend.	Soldiers would be in their barracks throughout the weekend.	51926400	1473275867144	1473275867214	h	72
100050	1091707	Soldiers would be in their barracks throughout the weekend.	Soldiers would be in their barracks throughout the weekend.	51926405	1473275867245	1473275867346	e	69
100050	1091707	Soldiers would be in their barracks throughout the weekend.	Soldiers would be in their barracks throughout the weekend.	51926469	1473275867712	1473275867797	 	32
100050	1091707	Soldiers would be in their barracks throughout the weekend.	Soldiers would be in their barracks throughout the weekend.	51926475	1473275867896	1473275867993	w	87
100050	1091707	Soldiers would be in their barracks throughout the weekend.	Soldiers would be in their barracks throughout the weekend.	51926478	1473275868360	1473275868446	e	69
100050	1091707	Soldiers would be in their barracks throughout the weekend.	Soldiers would be in their barracks throughout the weekend.	51926484	1473275868517	1473275868629	e	69
100050	1091707	Soldiers would be in their barracks throughout the weekend.	Soldiers would be in their barracks throughout the weekend.	51926493	1473275868713	1473275868782	k	75
100050	1091707	Soldiers would be in their barracks throughout the weekend.	Soldiers would be in their barracks throughout the weekend.	51926635	1473275869161	1473275869261	e	69
100050	1091707	Soldiers would be in their barracks throughout the weekend.	Soldiers would be in their barracks throughout the weekend.	51926637	1473275869302	1473275869383	n	78
100050	1091707	Soldiers would be in their barracks throughout the weekend.	Soldiers would be in their barracks throughout the weekend.	51926642	1473275869398	1473275869501	d	68
100050	1091707	Soldiers would be in their barracks throughout the weekend.	Soldiers would be in their barracks throughout the weekend.	51926649	1473275870130	1473275870200	.	190
100050	1091731	I'm in a meeting until noon.	I;m in a meeting until noon.	51927027	1473275877329	1473275877551	SHIFT	16
100050	1091731	I'm in a meeting until noon.	I;m in a meeting until noon.	51927022	1473275877449	1473275877532	I	73
100050	1091731	I'm in a meeting until noon.	I;m in a meeting until noon.	51927033	1473275877771	1473275877882	;	186
100050	1091731	I'm in a meeting until noon.	I;m in a meeting until noon.	51927039	1473275878015	1473275878087	m	77
100050	1091731	I'm in a meeting until noon.	I;m in a meeting until noon.	51927044	1473275878185	1473275878254	 	32
100050	1091731	I'm in a meeting until noon.	I;m in a meeting until noon.	51927049	1473275878342	1473275878437	i	73
100050	1091731	I'm in a meeting until noon.	I;m in a meeting until noon.	51927076	1473275878479	1473275878598	n	78
100050	1091731	I'm in a meeting until noon.	I;m in a meeting until noon.	51927080	1473275878779	1473275878863	 	32
100050	1091731	I'm in a meeting until noon.	I;m in a meeting until noon.	51927083	1473275878953	1473275879019	a	65
100050	1091731	I'm in a meeting until noon.	I;m in a meeting until noon.	51927087	1473275879083	1473275879184	 	32
100050	1091731	I'm in a meeting until noon.	I;m in a meeting until noon.	51927090	1473275879300	1473275879370	m	77
100050	1091731	I'm in a meeting until noon.	I;m in a meeting until noon.	51927138	1473275879402	1473275879494	e	69
100050	1091731	I'm in a meeting until noon.	I;m in a meeting until noon.	51927142	1473275879594	1473275879658	e	69
100050	1091731	I'm in a meeting until noon.	I;m in a meeting until noon.	51927145	1473275879958	1473275880052	t	84
100050	1091731	I'm in a meeting until noon.	I;m in a meeting until noon.	51927147	1473275880189	1473275880274	i	73
100050	1091731	I'm in a meeting until noon.	I;m in a meeting until noon.	51927150	1473275880389	1473275880458	n	78
100050	1091731	I'm in a meeting until noon.	I;m in a meeting until noon.	51927185	1473275880482	1473275880572	g	71
100050	1091731	I'm in a meeting until noon.	I;m in a meeting until noon.	51927190	1473275880616	1473275880700	 	32
100050	1091731	I'm in a meeting until noon.	I;m in a meeting until noon.	51927193	1473275880964	1473275881034	u	85
100050	1091731	I'm in a meeting until noon.	I;m in a meeting until noon.	51927197	1473275881167	1473275881268	n	78
100050	1091731	I'm in a meeting until noon.	I;m in a meeting until noon.	51927200	1473275881383	1473275881468	t	84
100050	1091731	I'm in a meeting until noon.	I;m in a meeting until noon.	51927303	1473275881511	1473275881584	i	73
100050	1091731	I'm in a meeting until noon.	I;m in a meeting until noon.	51927307	1473275881718	1473275881785	l	76
100050	1091731	I'm in a meeting until noon.	I;m in a meeting until noon.	51927311	1473275882929	1473275883014	 	32
100050	1091731	I'm in a meeting until noon.	I;m in a meeting until noon.	51927314	1473275883117	1473275883183	n	78
100050	1091731	I'm in a meeting until noon.	I;m in a meeting until noon.	51927317	1473275883285	1473275883364	o	79
100050	1091731	I'm in a meeting until noon.	I;m in a meeting until noon.	51927364	1473275883432	1473275883525	o	79
100050	1091731	I'm in a meeting until noon.	I;m in a meeting until noon.	51927365	1473275883592	1473275883664	n	78
100050	1091731	I'm in a meeting until noon.	I;m in a meeting until noon.	51927368	1473275883814	1473275883881	.	190
100050	1091745	He said he would resist all the pressure of time deadlines.	he said he would resist all the pressure of time deadlines.	51927868	1473275892011	1473275892073	h	72
100050	1091745	He said he would resist all the pressure of time deadlines.	he said he would resist all the pressure of time deadlines.	51927872	1473275892120	1473275892207	e	69
100050	1091745	He said he would resist all the pressure of time deadlines.	he said he would resist all the pressure of time deadlines.	51927879	1473275892284	1473275892368	 	32
100050	1091745	He said he would resist all the pressure of time deadlines.	he said he would resist all the pressure of time deadlines.	51927884	1473275892519	1473275892707	s	83
100050	1091745	He said he would resist all the pressure of time deadlines.	he said he would resist all the pressure of time deadlines.	51927916	1473275892668	1473275892791	a	65
100050	1091745	He said he would resist all the pressure of time deadlines.	he said he would resist all the pressure of time deadlines.	51927918	1473275892838	1473275892905	i	73
100050	1091745	He said he would resist all the pressure of time deadlines.	he said he would resist all the pressure of time deadlines.	51927922	1473275892958	1473275893056	d	68
100050	1091745	He said he would resist all the pressure of time deadlines.	he said he would resist all the pressure of time deadlines.	51927925	1473275893109	1473275893204	 	32
100050	1091745	He said he would resist all the pressure of time deadlines.	he said he would resist all the pressure of time deadlines.	51927929	1473275893305	1473275893372	h	72
100050	1091745	He said he would resist all the pressure of time deadlines.	he said he would resist all the pressure of time deadlines.	51927933	1473275893419	1473275893519	e	69
100050	1091745	He said he would resist all the pressure of time deadlines.	he said he would resist all the pressure of time deadlines.	51927952	1473275893574	1473275893667	 	32
100050	1091745	He said he would resist all the pressure of time deadlines.	he said he would resist all the pressure of time deadlines.	51927957	1473275893730	1473275893806	w	87
100050	1091745	He said he would resist all the pressure of time deadlines.	he said he would resist all the pressure of time deadlines.	51927960	1473275893837	1473275893936	o	79
100050	1091745	He said he would resist all the pressure of time deadlines.	he said he would resist all the pressure of time deadlines.	51927963	1473275893975	1473275894058	u	85
100050	1091745	He said he would resist all the pressure of time deadlines.	he said he would resist all the pressure of time deadlines.	51927969	1473275894199	1473275894274	l	76
100050	1091745	He said he would resist all the pressure of time deadlines.	he said he would resist all the pressure of time deadlines.	51928066	1473275894321	1473275894403	d	68
100050	1091745	He said he would resist all the pressure of time deadlines.	he said he would resist all the pressure of time deadlines.	51928071	1473275895200	1473275895289	 	32
100050	1091745	He said he would resist all the pressure of time deadlines.	he said he would resist all the pressure of time deadlines.	51928076	1473275895389	1473275895480	r	82
100050	1091745	He said he would resist all the pressure of time deadlines.	he said he would resist all the pressure of time deadlines.	51928081	1473275895716	1473275895831	e	69
100050	1091745	He said he would resist all the pressure of time deadlines.	he said he would resist all the pressure of time deadlines.	51928088	1473275895986	1473275896086	s	83
100050	1091745	He said he would resist all the pressure of time deadlines.	he said he would resist all the pressure of time deadlines.	51928154	1473275896418	1473275896486	i	73
100050	1091745	He said he would resist all the pressure of time deadlines.	he said he would resist all the pressure of time deadlines.	51928158	1473275896549	1473275896663	s	83
100050	1091745	He said he would resist all the pressure of time deadlines.	he said he would resist all the pressure of time deadlines.	51928160	1473275896748	1473275896849	t	84
100050	1091745	He said he would resist all the pressure of time deadlines.	he said he would resist all the pressure of time deadlines.	51928164	1473275897018	1473275897102	 	32
100050	1091745	He said he would resist all the pressure of time deadlines.	he said he would resist all the pressure of time deadlines.	51928170	1473275897165	1473275897252	a	65
100050	1091745	He said he would resist all the pressure of time deadlines.	he said he would resist all the pressure of time deadlines.	51928224	1473275897287	1473275897353	l	76
100050	1091745	He said he would resist all the pressure of time deadlines.	he said he would resist all the pressure of time deadlines.	51928226	1473275897450	1473275897533	l	76
100050	1091745	He said he would resist all the pressure of time deadlines.	he said he would resist all the pressure of time deadlines.	51928228	1473275897782	1473275897867	 	32
100050	1091745	He said he would resist all the pressure of time deadlines.	he said he would resist all the pressure of time deadlines.	51928232	1473275897903	1473275898023	t	84
100050	1091745	He said he would resist all the pressure of time deadlines.	he said he would resist all the pressure of time deadlines.	51928236	1473275898023	1473275898091	h	72
100050	1091745	He said he would resist all the pressure of time deadlines.	he said he would resist all the pressure of time deadlines.	51928273	1473275898180	1473275898266	e	69
100050	1091745	He said he would resist all the pressure of time deadlines.	he said he would resist all the pressure of time deadlines.	51928274	1473275898348	1473275898433	 	32
100050	1091745	He said he would resist all the pressure of time deadlines.	he said he would resist all the pressure of time deadlines.	51928278	1473275898601	1473275898667	p	80
100050	1091745	He said he would resist all the pressure of time deadlines.	he said he would resist all the pressure of time deadlines.	51928284	1473275898717	1473275898867	r	82
100050	1091745	He said he would resist all the pressure of time deadlines.	he said he would resist all the pressure of time deadlines.	51928337	1473275898803	1473275898919	e	69
100050	1091745	He said he would resist all the pressure of time deadlines.	he said he would resist all the pressure of time deadlines.	51928338	1473275899050	1473275899133	s	83
100050	1091745	He said he would resist all the pressure of time deadlines.	he said he would resist all the pressure of time deadlines.	51928340	1473275899217	1473275899308	s	83
100050	1091745	He said he would resist all the pressure of time deadlines.	he said he would resist all the pressure of time deadlines.	51928343	1473275899355	1473275899433	u	85
100050	1091745	He said he would resist all the pressure of time deadlines.	he said he would resist all the pressure of time deadlines.	51928344	1473275899524	1473275899645	r	82
100050	1091745	He said he would resist all the pressure of time deadlines.	he said he would resist all the pressure of time deadlines.	51928348	1473275899978	1473275900064	e	69
100050	1091745	He said he would resist all the pressure of time deadlines.	he said he would resist all the pressure of time deadlines.	51928415	1473275900243	1473275900328	 	32
100050	1091745	He said he would resist all the pressure of time deadlines.	he said he would resist all the pressure of time deadlines.	51928417	1473275900460	1473275900530	o	79
100050	1091745	He said he would resist all the pressure of time deadlines.	he said he would resist all the pressure of time deadlines.	51928420	1473275900593	1473275900682	f	70
100050	1091745	He said he would resist all the pressure of time deadlines.	he said he would resist all the pressure of time deadlines.	51928425	1473275900832	1473275900929	 	32
100050	1091745	He said he would resist all the pressure of time deadlines.	he said he would resist all the pressure of time deadlines.	51928429	1473275901157	1473275901258	t	84
100050	1091745	He said he would resist all the pressure of time deadlines.	he said he would resist all the pressure of time deadlines.	51928448	1473275901315	1473275901396	i	73
100050	1091745	He said he would resist all the pressure of time deadlines.	he said he would resist all the pressure of time deadlines.	51928451	1473275901525	1473275901597	m	77
100050	1091745	He said he would resist all the pressure of time deadlines.	he said he would resist all the pressure of time deadlines.	51928455	1473275901648	1473275901741	e	69
100050	1091745	He said he would resist all the pressure of time deadlines.	he said he would resist all the pressure of time deadlines.	51928458	1473275901760	1473275901830	 	32
100050	1091745	He said he would resist all the pressure of time deadlines.	he said he would resist all the pressure of time deadlines.	51928462	1473275901910	1473275901997	d	68
100050	1091745	He said he would resist all the pressure of time deadlines.	he said he would resist all the pressure of time deadlines.	51928505	1473275902095	1473275902210	e	69
100050	1091745	He said he would resist all the pressure of time deadlines.	he said he would resist all the pressure of time deadlines.	51928512	1473275902225	1473275902354	a	65
100050	1091745	He said he would resist all the pressure of time deadlines.	he said he would resist all the pressure of time deadlines.	51928519	1473275902420	1473275902512	d	68
100050	1091745	He said he would resist all the pressure of time deadlines.	he said he would resist all the pressure of time deadlines.	51928525	1473275902689	1473275902783	l	76
100050	1091745	He said he would resist all the pressure of time deadlines.	he said he would resist all the pressure of time deadlines.	51928528	1473275902889	1473275902974	i	73
100050	1091745	He said he would resist all the pressure of time deadlines.	he said he would resist all the pressure of time deadlines.	51928688	1473275903105	1473275903179	n	78
100050	1091745	He said he would resist all the pressure of time deadlines.	he said he would resist all the pressure of time deadlines.	51928692	1473275903195	1473275903314	e	69
100050	1091745	He said he would resist all the pressure of time deadlines.	he said he would resist all the pressure of time deadlines.	51928696	1473275903358	1473275903474	s	83
100050	1091745	He said he would resist all the pressure of time deadlines.	he said he would resist all the pressure of time deadlines.	51928700	1473275903589	1473275903658	.	190
100050	1091769	You have 15 active players.	you have 15 active players.	51928959	1473275909169	1473275909256	y	89
100050	1091769	You have 15 active players.	you have 15 active players.	51928962	1473275909272	1473275909333	o	79
100050	1091769	You have 15 active players.	you have 15 active players.	51928968	1473275909364	1473275909455	u	85
100050	1091769	You have 15 active players.	you have 15 active players.	51928974	1473275909512	1473275909590	 	32
100050	1091769	You have 15 active players.	you have 15 active players.	51928980	1473275909717	1473275909773	h	72
100050	1091769	You have 15 active players.	you have 15 active players.	51929028	1473275909833	1473275909922	a	65
100050	1091769	You have 15 active players.	you have 15 active players.	51929033	1473275909922	1473275909989	v	86
100050	1091769	You have 15 active players.	you have 15 active players.	51929037	1473275910038	1473275910122	e	69
100050	1091769	You have 15 active players.	you have 15 active players.	51929040	1473275910169	1473275910255	 	32
100050	1091769	You have 15 active players.	you have 15 active players.	51929043	1473275910523	1473275910655	1	49
100050	1091769	You have 15 active players.	you have 15 active players.	51929128	1473275910848	1473275910926	5	53
100050	1091769	You have 15 active players.	you have 15 active players.	51929134	1473275911034	1473275911126	 	32
100050	1091769	You have 15 active players.	you have 15 active players.	51929140	1473275911292	1473275911401	a	65
100050	1091769	You have 15 active players.	you have 15 active players.	51929143	1473275911758	1473275911849	c	67
100050	1091769	You have 15 active players.	you have 15 active players.	51929147	1473275911991	1473275912070	t	84
100050	1091769	You have 15 active players.	you have 15 active players.	51929172	1473275912144	1473275912221	i	73
100050	1091769	You have 15 active players.	you have 15 active players.	51929176	1473275912341	1473275912469	v	86
100050	1091769	You have 15 active players.	you have 15 active players.	51929179	1473275912429	1473275912529	e	69
100050	1091769	You have 15 active players.	you have 15 active players.	51929184	1473275912560	1473275912645	 	32
100050	1091769	You have 15 active players.	you have 15 active players.	51929186	1473275912771	1473275912884	p	219
100050	1091769	You have 15 active players.	you have 15 active players.	51929334	1473275912862	1473275912945	l	76
100050	1091769	You have 15 active players.	you have 15 active players.	51929340	1473275913577	1473275913661	BKSP	8
100050	1091769	You have 15 active players.	you have 15 active players.	51929347	1473275913746	1473275913806	BKSP	8
100050	1091769	You have 15 active players.	you have 15 active players.	51929351	1473275913896	1473275913968	BKSP	8
100050	1091769	You have 15 active players.	you have 15 active players.	51929355	1473275914412	1473275914565	p	80
100050	1091769	You have 15 active players.	you have 15 active players.	51929358	1473275914531	1473275914624	l	76
100050	1091769	You have 15 active players.	you have 15 active players.	51929361	1473275914627	1473275914780	a	65
100050	1091769	You have 15 active players.	you have 15 active players.	51929364	1473275914795	1473275914883	c	67
100050	1091769	You have 15 active players.	you have 15 active players.	51929367	1473275915133	1473275915216	BKSP	8
100050	1091769	You have 15 active players.	you have 15 active players.	51929371	1473275915397	1473275915482	y	89
100050	1091769	You have 15 active players.	you have 15 active players.	51929375	1473275915510	1473275915661	e	69
100050	1091769	You have 15 active players.	you have 15 active players.	51929379	1473275915599	1473275915734	r	82
100050	1091769	You have 15 active players.	you have 15 active players.	51929384	1473275915812	1473275915934	s	83
100050	1091769	You have 15 active players.	you have 15 active players.	51929388	1473275915981	1473275916035	.	188
100050	1091769	You have 15 active players.	you have 15 active players.	51929445	1473275916435	1473275916516	BKSP	8
100050	1091769	You have 15 active players.	you have 15 active players.	51929451	1473275916597	1473275916667	BKSP	8
100050	1091769	You have 15 active players.	you have 15 active players.	51929457	1473275917215	1473275917282	.	190
100050	1091783	Pressure to finish my review!	Pressure to finish my review!	51929720	1473275921106	1473275921294	SHIFT	16
100050	1091783	Pressure to finish my review!	Pressure to finish my review!	51929725	1473275921237	1473275921313	P	80
100050	1091783	Pressure to finish my review!	Pressure to finish my review!	51929730	1473275921414	1473275921579	r	82
100050	1091783	Pressure to finish my review!	Pressure to finish my review!	51929735	1473275921511	1473275921659	e	69
100050	1091783	Pressure to finish my review!	Pressure to finish my review!	51929738	1473275921722	1473275921826	s	83
100050	1091783	Pressure to finish my review!	Pressure to finish my review!	51929743	1473275921899	1473275922008	s	83
100050	1091783	Pressure to finish my review!	Pressure to finish my review!	51929785	1473275922062	1473275922129	u	85
100050	1091783	Pressure to finish my review!	Pressure to finish my review!	51929789	1473275922264	1473275922444	r	82
100050	1091783	Pressure to finish my review!	Pressure to finish my review!	51929792	1473275922384	1473275922509	e	69
100050	1091783	Pressure to finish my review!	Pressure to finish my review!	51929796	1473275922662	1473275922762	 	32
100050	1091783	Pressure to finish my review!	Pressure to finish my review!	51929799	1473275922825	1473275922914	t	84
100050	1091783	Pressure to finish my review!	Pressure to finish my review!	51929838	1473275922934	1473275922995	o	79
100050	1091783	Pressure to finish my review!	Pressure to finish my review!	51929843	1473275923162	1473275923262	 	32
100050	1091783	Pressure to finish my review!	Pressure to finish my review!	51929847	1473275923325	1473275923400	f	70
100050	1091783	Pressure to finish my review!	Pressure to finish my review!	51929851	1473275923462	1473275923528	i	73
100050	1091783	Pressure to finish my review!	Pressure to finish my review!	51929853	1473275923641	1473275923742	n	78
100050	1091783	Pressure to finish my review!	Pressure to finish my review!	51929888	1473275923818	1473275923899	i	73
100050	1091783	Pressure to finish my review!	Pressure to finish my review!	51929890	1473275923930	1473275924025	s	83
100050	1091783	Pressure to finish my review!	Pressure to finish my review!	51929893	1473275924025	1473275924109	h	72
100050	1091783	Pressure to finish my review!	Pressure to finish my review!	51929897	1473275924239	1473275924341	 	32
100050	1091783	Pressure to finish my review!	Pressure to finish my review!	51929901	1473275924432	1473275924512	m	77
100050	1091783	Pressure to finish my review!	Pressure to finish my review!	51929931	1473275924555	1473275924626	y	89
100050	1091783	Pressure to finish my review!	Pressure to finish my review!	51929935	1473275924688	1473275924780	 	32
100050	1091783	Pressure to finish my review!	Pressure to finish my review!	51929939	1473275924963	1473275925125	r	82
100050	1091783	Pressure to finish my review!	Pressure to finish my review!	51929943	1473275925057	1473275925194	e	69
100050	1091783	Pressure to finish my review!	Pressure to finish my review!	51929947	1473275925618	1473275925705	v	86
100050	1091783	Pressure to finish my review!	Pressure to finish my review!	51930099	1473275926855	1473275926933	i	73
100050	1091783	Pressure to finish my review!	Pressure to finish my review!	51930101	1473275926964	1473275927072	e	69
100050	1091783	Pressure to finish my review!	Pressure to finish my review!	51930107	1473275927248	1473275927353	w	87
100050	1091783	Pressure to finish my review!	Pressure to finish my review!	51930121	1473275927945	1473275928375	SHIFT	16
100050	1091783	Pressure to finish my review!	Pressure to finish my review!	51930112	1473275928260	1473275928360	!	49
100050	1091800	I'll give it to you tomorrow.	I'll give it to you tomorrow.	51930393	1473275931467	1473275931686	SHIFT	16
100050	1091800	I'll give it to you tomorrow.	I'll give it to you tomorrow.	51930398	1473275931606	1473275931686	I	73
100050	1091800	I'll give it to you tomorrow.	I'll give it to you tomorrow.	51930405	1473275932106	1473275932185	'	192
100050	1091800	I'll give it to you tomorrow.	I'll give it to you tomorrow.	51930410	1473275932421	1473275932487	l	76
100050	1091800	I'll give it to you tomorrow.	I'll give it to you tomorrow.	51930417	1473275932559	1473275932643	l	76
100050	1091800	I'll give it to you tomorrow.	I'll give it to you tomorrow.	51930422	1473275932767	1473275932851	 	32
100050	1091800	I'll give it to you tomorrow.	I'll give it to you tomorrow.	51930462	1473275932919	1473275933002	g	71
100050	1091800	I'll give it to you tomorrow.	I'll give it to you tomorrow.	51930467	1473275933049	1473275933103	i	73
100050	1091800	I'll give it to you tomorrow.	I'll give it to you tomorrow.	51930471	1473275933332	1473275933474	v	86
100050	1091800	I'll give it to you tomorrow.	I'll give it to you tomorrow.	51930476	1473275933417	1473275933531	e	69
100050	1091800	I'll give it to you tomorrow.	I'll give it to you tomorrow.	51930479	1473275933732	1473275933847	 	32
100050	1091800	I'll give it to you tomorrow.	I'll give it to you tomorrow.	51930528	1473275934318	1473275934383	i	73
100050	1091800	I'll give it to you tomorrow.	I'll give it to you tomorrow.	51930532	1473275934414	1473275934515	t	84
100050	1091800	I'll give it to you tomorrow.	I'll give it to you tomorrow.	51930539	1473275934583	1473275934683	 	32
100050	1091800	I'll give it to you tomorrow.	I'll give it to you tomorrow.	51930545	1473275934914	1473275935008	t	84
100050	1091800	I'll give it to you tomorrow.	I'll give it to you tomorrow.	51930552	1473275935052	1473275935131	o	79
100050	1091800	I'll give it to you tomorrow.	I'll give it to you tomorrow.	51930578	1473275935298	1473275935398	 	32
100050	1091800	I'll give it to you tomorrow.	I'll give it to you tomorrow.	51930580	1473275935429	1473275935565	y	89
100050	1091800	I'll give it to you tomorrow.	I'll give it to you tomorrow.	51930583	1473275935561	1473275935632	o	79
100050	1091800	I'll give it to you tomorrow.	I'll give it to you tomorrow.	51930586	1473275935679	1473275935780	u	85
100050	1091800	I'll give it to you tomorrow.	I'll give it to you tomorrow.	51930591	1473275935846	1473275935947	 	32
100050	1091800	I'll give it to you tomorrow.	I'll give it to you tomorrow.	51930686	1473275936299	1473275936398	t	84
100050	1091800	I'll give it to you tomorrow.	I'll give it to you tomorrow.	51930691	1473275936414	1473275936495	o	79
100050	1091800	I'll give it to you tomorrow.	I'll give it to you tomorrow.	51930699	1473275936646	1473275936715	m	77
100050	1091800	I'll give it to you tomorrow.	I'll give it to you tomorrow.	51930704	1473275937780	1473275937848	o	79
100050	1091800	I'll give it to you tomorrow.	I'll give it to you tomorrow.	51930708	1473275937936	1473275938016	t	84
100050	1091800	I'll give it to you tomorrow.	I'll give it to you tomorrow.	51930798	1473275938100	1473275938202	t	84
100050	1091800	I'll give it to you tomorrow.	I'll give it to you tomorrow.	51930801	1473275938280	1473275938346	o	79
100050	1091800	I'll give it to you tomorrow.	I'll give it to you tomorrow.	51930804	1473275938579	1473275938661	BKSP	8
100050	1091800	I'll give it to you tomorrow.	I'll give it to you tomorrow.	51930812	1473275938749	1473275938807	BKSP	8
100050	1091800	I'll give it to you tomorrow.	I'll give it to you tomorrow.	51930818	1473275938901	1473275938963	BKSP	8
100050	1091800	I'll give it to you tomorrow.	I'll give it to you tomorrow.	51930825	1473275939003	1473275939112	r	82
100050	1091800	I'll give it to you tomorrow.	I'll give it to you tomorrow.	51930829	1473275939633	1473275939751	r	82
100050	1091800	I'll give it to you tomorrow.	I'll give it to you tomorrow.	51930833	1473275939867	1473275939944	o	79
100050	1091800	I'll give it to you tomorrow.	I'll give it to you tomorrow.	51930876	1473275939965	1473275940064	w	87
100050	1091800	I'll give it to you tomorrow.	I'll give it to you tomorrow.	51930879	1473275940764	1473275940840	.	190
100050	1091819	My husband and I are on a waiting list to give blood.	My husband and I are on a waiting list to give blood.	51931389	1473275946800	1473275947920	SHIFT	16
100050	1091819	My husband and I are on a waiting list to give blood.	My husband and I are on a waiting list to give blood.	51931388	1473275947788	1473275947869	M	77
100050	1091819	My husband and I are on a waiting list to give blood.	My husband and I are on a waiting list to give blood.	51931390	1473275948052	1473275948120	y	89
100050	1091819	My husband and I are on a waiting list to give blood.	My husband and I are on a waiting list to give blood.	51931391	1473275948240	1473275948340	 	32
100050	1091819	My husband and I are on a waiting list to give blood.	My husband and I are on a waiting list to give blood.	51931392	1473275948458	1473275948527	h	72
100050	1091819	My husband and I are on a waiting list to give blood.	My husband and I are on a waiting list to give blood.	51931395	1473275948635	1473275948702	u	85
100050	1091819	My husband and I are on a waiting list to give blood.	My husband and I are on a waiting list to give blood.	51931429	1473275948766	1473275948867	s	83
100050	1091819	My husband and I are on a waiting list to give blood.	My husband and I are on a waiting list to give blood.	51931433	1473275949097	1473275949170	b	66
100050	1091819	My husband and I are on a waiting list to give blood.	My husband and I are on a waiting list to give blood.	51931442	1473275949233	1473275949335	a	65
100050	1091819	My husband and I are on a waiting list to give blood.	My husband and I are on a waiting list to give blood.	51931449	1473275949336	1473275949403	n	78
100050	1091819	My husband and I are on a waiting list to give blood.	My husband and I are on a waiting list to give blood.	51931456	1473275949460	1473275949545	d	68
100050	1091819	My husband and I are on a waiting list to give blood.	My husband and I are on a waiting list to give blood.	51931478	1473275949561	1473275949652	 	32
100050	1091819	My husband and I are on a waiting list to give blood.	My husband and I are on a waiting list to give blood.	51931482	1473275949684	1473275949783	a	65
100050	1091819	My husband and I are on a waiting list to give blood.	My husband and I are on a waiting list to give blood.	51931486	1473275949783	1473275949852	n	78
100050	1091819	My husband and I are on a waiting list to give blood.	My husband and I are on a waiting list to give blood.	51931488	1473275949952	1473275950045	d	68
100050	1091819	My husband and I are on a waiting list to give blood.	My husband and I are on a waiting list to give blood.	51931491	1473275950095	1473275950200	 	32
100050	1091819	My husband and I are on a waiting list to give blood.	My husband and I are on a waiting list to give blood.	51931572	1473275950352	1473275950717	SHIFT	16
100050	1091819	My husband and I are on a waiting list to give blood.	My husband and I are on a waiting list to give blood.	51931578	1473275950810	1473275951222	SHIFT	16
100050	1091819	My husband and I are on a waiting list to give blood.	My husband and I are on a waiting list to give blood.	51931575	1473275951059	1473275951117	I	73
100050	1091819	My husband and I are on a waiting list to give blood.	My husband and I are on a waiting list to give blood.	51931582	1473275951375	1473275951460	 	32
100050	1091819	My husband and I are on a waiting list to give blood.	My husband and I are on a waiting list to give blood.	51931587	1473275951507	1473275951691	a	65
100050	1091819	My husband and I are on a waiting list to give blood.	My husband and I are on a waiting list to give blood.	51931590	1473275951691	1473275951896	r	82
100050	1091819	My husband and I are on a waiting list to give blood.	My husband and I are on a waiting list to give blood.	51931646	1473275951838	1473275951960	e	69
100050	1091819	My husband and I are on a waiting list to give blood.	My husband and I are on a waiting list to give blood.	51931650	1473275952038	1473275952148	 	32
100050	1091819	My husband and I are on a waiting list to give blood.	My husband and I are on a waiting list to give blood.	51931656	1473275952266	1473275952349	o	79
100050	1091819	My husband and I are on a waiting list to give blood.	My husband and I are on a waiting list to give blood.	51931661	1473275952444	1473275952515	n	78
100050	1091819	My husband and I are on a waiting list to give blood.	My husband and I are on a waiting list to give blood.	51931667	1473275952633	1473275952731	 	32
100050	1091819	My husband and I are on a waiting list to give blood.	My husband and I are on a waiting list to give blood.	51931673	1473275952768	1473275952848	a	65
100050	1091819	My husband and I are on a waiting list to give blood.	My husband and I are on a waiting list to give blood.	51931741	1473275952883	1473275952971	 	32
100050	1091819	My husband and I are on a waiting list to give blood.	My husband and I are on a waiting list to give blood.	51931744	1473275953175	1473275953348	w	87
100050	1091819	My husband and I are on a waiting list to give blood.	My husband and I are on a waiting list to give blood.	51931749	1473275953309	1473275953481	a	65
100050	1091819	My husband and I are on a waiting list to give blood.	My husband and I are on a waiting list to give blood.	51931758	1473275953582	1473275953665	i	73
100050	1091819	My husband and I are on a waiting list to give blood.	My husband and I are on a waiting list to give blood.	51931764	1473275953778	1473275953863	t	84
100050	1091819	My husband and I are on a waiting list to give blood.	My husband and I are on a waiting list to give blood.	51931795	1473275953898	1473275953982	i	73
100050	1091819	My husband and I are on a waiting list to give blood.	My husband and I are on a waiting list to give blood.	51931801	1473275954069	1473275954152	n	78
100050	1091819	My husband and I are on a waiting list to give blood.	My husband and I are on a waiting list to give blood.	51931811	1473275954166	1473275954247	g	71
100050	1091819	My husband and I are on a waiting list to give blood.	My husband and I are on a waiting list to give blood.	51931818	1473275954263	1473275954347	 	32
100050	1091819	My husband and I are on a waiting list to give blood.	My husband and I are on a waiting list to give blood.	51931823	1473275954426	1473275954526	l	76
100050	1091819	My husband and I are on a waiting list to give blood.	My husband and I are on a waiting list to give blood.	51931862	1473275954610	1473275954689	i	73
100050	1091819	My husband and I are on a waiting list to give blood.	My husband and I are on a waiting list to give blood.	51931865	1473275954726	1473275954826	s	83
100050	1091819	My husband and I are on a waiting list to give blood.	My husband and I are on a waiting list to give blood.	51931870	1473275954910	1473275954995	t	84
100050	1091819	My husband and I are on a waiting list to give blood.	My husband and I are on a waiting list to give blood.	51931875	1473275955026	1473275955126	 	32
100050	1091819	My husband and I are on a waiting list to give blood.	My husband and I are on a waiting list to give blood.	51931879	1473275955226	1473275955328	t	84
100050	1091819	My husband and I are on a waiting list to give blood.	My husband and I are on a waiting list to give blood.	51931951	1473275955372	1473275955430	o	79
100050	1091819	My husband and I are on a waiting list to give blood.	My husband and I are on a waiting list to give blood.	51931959	1473275955828	1473275955933	 	32
100050	1091819	My husband and I are on a waiting list to give blood.	My husband and I are on a waiting list to give blood.	51931965	1473275955946	1473275956028	g	71
100050	1091819	My husband and I are on a waiting list to give blood.	My husband and I are on a waiting list to give blood.	51931970	1473275956059	1473275956130	i	73
100050	1091819	My husband and I are on a waiting list to give blood.	My husband and I are on a waiting list to give blood.	51931976	1473275956285	1473275956480	v	86
100050	1091819	My husband and I are on a waiting list to give blood.	My husband and I are on a waiting list to give blood.	51932017	1473275956423	1473275956539	e	69
100050	1091819	My husband and I are on a waiting list to give blood.	My husband and I are on a waiting list to give blood.	51932019	1473275956612	1473275956728	 	32
100050	1091819	My husband and I are on a waiting list to give blood.	My husband and I are on a waiting list to give blood.	51932024	1473275957035	1473275957121	b	66
100050	1091819	My husband and I are on a waiting list to give blood.	My husband and I are on a waiting list to give blood.	51932029	1473275957153	1473275957221	l	76
100050	1091819	My husband and I are on a waiting list to give blood.	My husband and I are on a waiting list to give blood.	51932039	1473275957345	1473275957418	o	79
100050	1091819	My husband and I are on a waiting list to give blood.	My husband and I are on a waiting list to give blood.	51932046	1473275957500	1473275957561	o	79
100050	1091819	My husband and I are on a waiting list to give blood.	My husband and I are on a waiting list to give blood.	51932127	1473275957623	1473275957739	d	68
100050	1091819	My husband and I are on a waiting list to give blood.	My husband and I are on a waiting list to give blood.	51932132	1473275958633	1473275958720	.	190
100050	1091846	Montpellier won the Cup at their first attempt.	Montpellier won the Cup at their first attempt.	51932342	1473275961399	1473275961773	SHIFT	16
100050	1091846	Montpellier won the Cup at their first attempt.	Montpellier won the Cup at their first attempt.	51932341	1473275961658	1473275961753	M	77
100050	1091846	Montpellier won the Cup at their first attempt.	Montpellier won the Cup at their first attempt.	51932343	1473275961873	1473275961957	o	79
100050	1091846	Montpellier won the Cup at their first attempt.	Montpellier won the Cup at their first attempt.	51932344	1473275962072	1473275962157	n	78
100050	1091846	Montpellier won the Cup at their first attempt.	Montpellier won the Cup at their first attempt.	51932347	1473275962661	1473275962772	t	84
100050	1091846	Montpellier won the Cup at their first attempt.	Montpellier won the Cup at their first attempt.	51932351	1473275963122	1473275963225	p	80
100050	1091846	Montpellier won the Cup at their first attempt.	Montpellier won the Cup at their first attempt.	51932407	1473275963391	1473275963523	e	69
100050	1091846	Montpellier won the Cup at their first attempt.	Montpellier won the Cup at their first attempt.	51932411	1473275963862	1473275963937	l	76
100050	1091846	Montpellier won the Cup at their first attempt.	Montpellier won the Cup at their first attempt.	51932413	1473275964025	1473275964104	l	76
100050	1091846	Montpellier won the Cup at their first attempt.	Montpellier won the Cup at their first attempt.	51932416	1473275964155	1473275964320	e	69
100050	1091846	Montpellier won the Cup at their first attempt.	Montpellier won the Cup at their first attempt.	51932580	1473275964255	1473275964371	r	82
100050	1091846	Montpellier won the Cup at their first attempt.	Montpellier won the Cup at their first attempt.	51932584	1473275964696	1473275964771	BKSP	8
100050	1091846	Montpellier won the Cup at their first attempt.	Montpellier won the Cup at their first attempt.	51932595	1473275964871	1473275964969	BKSP	8
100050	1091846	Montpellier won the Cup at their first attempt.	Montpellier won the Cup at their first attempt.	51932601	1473275965913	1473275965983	i	73
100050	1091846	Montpellier won the Cup at their first attempt.	Montpellier won the Cup at their first attempt.	51932606	1473275966030	1473275966185	e	69
100050	1091846	Montpellier won the Cup at their first attempt.	Montpellier won the Cup at their first attempt.	51932612	1473275966278	1473275966383	r	82
100050	1091846	Montpellier won the Cup at their first attempt.	Montpellier won the Cup at their first attempt.	51932617	1473275966771	1473275966852	 	32
100050	1091846	Montpellier won the Cup at their first attempt.	Montpellier won the Cup at their first attempt.	51932621	1473275966852	1473275966951	w	87
100050	1091846	Montpellier won the Cup at their first attempt.	Montpellier won the Cup at their first attempt.	51932641	1473275966983	1473275967052	o	79
100050	1091846	Montpellier won the Cup at their first attempt.	Montpellier won the Cup at their first attempt.	51932644	1473275967156	1473275967235	n	78
100050	1091846	Montpellier won the Cup at their first attempt.	Montpellier won the Cup at their first attempt.	51932648	1473275967346	1473275967434	 	32
100050	1091846	Montpellier won the Cup at their first attempt.	Montpellier won the Cup at their first attempt.	51932652	1473275967450	1473275967566	t	84
100050	1091846	Montpellier won the Cup at their first attempt.	Montpellier won the Cup at their first attempt.	51932655	1473275967566	1473275967650	h	72
100050	1091846	Montpellier won the Cup at their first attempt.	Montpellier won the Cup at their first attempt.	51932748	1473275967701	1473275967787	e	69
100050	1091846	Montpellier won the Cup at their first attempt.	Montpellier won the Cup at their first attempt.	51932753	1473275967916	1473275968000	 	32
100050	1091846	Montpellier won the Cup at their first attempt.	Montpellier won the Cup at their first attempt.	51932761	1473275968063	1473275968504	SHIFT	16
100050	1091846	Montpellier won the Cup at their first attempt.	Montpellier won the Cup at their first attempt.	51932758	1473275968248	1473275968346	C	67
100050	1091846	Montpellier won the Cup at their first attempt.	Montpellier won the Cup at their first attempt.	51932765	1473275968600	1473275968704	u	85
100050	1091846	Montpellier won the Cup at their first attempt.	Montpellier won the Cup at their first attempt.	51932770	1473275968878	1473275968966	p	80
100050	1091846	Montpellier won the Cup at their first attempt.	Montpellier won the Cup at their first attempt.	51932870	1473275969645	1473275969746	 	32
100050	1091846	Montpellier won the Cup at their first attempt.	Montpellier won the Cup at their first attempt.	51932876	1473275969961	1473275970063	a	65
100050	1091846	Montpellier won the Cup at their first attempt.	Montpellier won the Cup at their first attempt.	51932882	1473275970193	1473275970297	t	84
100050	1091846	Montpellier won the Cup at their first attempt.	Montpellier won the Cup at their first attempt.	51932886	1473275970394	1473275970498	 	32
100050	1091846	Montpellier won the Cup at their first attempt.	Montpellier won the Cup at their first attempt.	51932887	1473275970517	1473275970631	t	84
100050	1091846	Montpellier won the Cup at their first attempt.	Montpellier won the Cup at their first attempt.	51932955	1473275970712	1473275970773	g	72
100050	1091846	Montpellier won the Cup at their first attempt.	Montpellier won the Cup at their first attempt.	51932957	1473275970915	1473275971050	e	69
100050	1091846	Montpellier won the Cup at their first attempt.	Montpellier won the Cup at their first attempt.	51932960	1473275971231	1473275971298	BKSP	8
100050	1091846	Montpellier won the Cup at their first attempt.	Montpellier won the Cup at their first attempt.	51932963	1473275971395	1473275971448	BKSP	8
100050	1091846	Montpellier won the Cup at their first attempt.	Montpellier won the Cup at their first attempt.	51932968	1473275971632	1473275971748	e	69
100050	1091846	Montpellier won the Cup at their first attempt.	Montpellier won the Cup at their first attempt.	51932971	1473275971933	1473275972048	i	73
100050	1091846	Montpellier won the Cup at their first attempt.	Montpellier won the Cup at their first attempt.	51933073	1473275972100	1473275972221	r	82
100050	1091846	Montpellier won the Cup at their first attempt.	Montpellier won the Cup at their first attempt.	51933078	1473275972429	1473275972505	 	32
100050	1091846	Montpellier won the Cup at their first attempt.	Montpellier won the Cup at their first attempt.	51933082	1473275973480	1473275973577	f	70
100050	1091846	Montpellier won the Cup at their first attempt.	Montpellier won the Cup at their first attempt.	51933084	1473275973826	1473275973897	i	73
100050	1091846	Montpellier won the Cup at their first attempt.	Montpellier won the Cup at their first attempt.	51933086	1473275973929	1473275974026	r	82
100050	1091846	Montpellier won the Cup at their first attempt.	Montpellier won the Cup at their first attempt.	51933144	1473275974088	1473275974204	s	83
100050	1091846	Montpellier won the Cup at their first attempt.	Montpellier won the Cup at their first attempt.	51933150	1473275974275	1473275974378	t	84
100050	1091846	Montpellier won the Cup at their first attempt.	Montpellier won the Cup at their first attempt.	51933154	1473275974438	1473275974528	 	32
100050	1091846	Montpellier won the Cup at their first attempt.	Montpellier won the Cup at their first attempt.	51933159	1473275974590	1473275974706	a	65
100050	1091846	Montpellier won the Cup at their first attempt.	Montpellier won the Cup at their first attempt.	51933163	1473275974864	1473275974927	t	84
100050	1091846	Montpellier won the Cup at their first attempt.	Montpellier won the Cup at their first attempt.	51933288	1473275975040	1473275975141	t	84
100050	1091846	Montpellier won the Cup at their first attempt.	Montpellier won the Cup at their first attempt.	51933291	1473275975526	1473275975620	e	69
100050	1091846	Montpellier won the Cup at their first attempt.	Montpellier won the Cup at their first attempt.	51933293	1473275975789	1473275975882	m	77
100050	1091846	Montpellier won the Cup at their first attempt.	Montpellier won the Cup at their first attempt.	51933301	1473275976015	1473275976084	p	80
100050	1091846	Montpellier won the Cup at their first attempt.	Montpellier won the Cup at their first attempt.	51933309	1473275976960	1473275977041	t	84
100050	1091846	Montpellier won the Cup at their first attempt.	Montpellier won the Cup at their first attempt.	51933353	1473275977233	1473275977309	.	190
100050	1091871	OK I thought it was in Washington state.	OK I thought it was in Washington state.	51933598	1473275981022	1473275981875	SHIFT	16
100050	1091871	OK I thought it was in Washington state.	OK I thought it was in Washington state.	51933591	1473275981433	1473275981647	O	79
100050	1091871	OK I thought it was in Washington state.	OK I thought it was in Washington state.	51933595	1473275981601	1473275981703	K	75
100050	1091871	OK I thought it was in Washington state.	OK I thought it was in Washington state.	51933603	1473275982121	1473275982202	 	32
100050	1091871	OK I thought it was in Washington state.	OK I thought it was in Washington state.	51933615	1473275982259	1473275982598	SHIFT	16
100050	1091871	OK I thought it was in Washington state.	OK I thought it was in Washington state.	51933608	1473275982410	1473275982470	I	73
100050	1091871	OK I thought it was in Washington state.	OK I thought it was in Washington state.	51933622	1473275982757	1473275982852	 	32
100050	1091871	OK I thought it was in Washington state.	OK I thought it was in Washington state.	51933668	1473275983341	1473275983434	t	84
100050	1091871	OK I thought it was in Washington state.	OK I thought it was in Washington state.	51933675	1473275983452	1473275983519	h	72
100050	1091871	OK I thought it was in Washington state.	OK I thought it was in Washington state.	51933685	1473275983599	1473275983758	o	79
100050	1091871	OK I thought it was in Washington state.	OK I thought it was in Washington state.	51933690	1473275983716	1473275983795	u	85
100050	1091871	OK I thought it was in Washington state.	OK I thought it was in Washington state.	51933750	1473275983793	1473275983869	g	71
100050	1091871	OK I thought it was in Washington state.	OK I thought it was in Washington state.	51933753	1473275983938	1473275984017	h	72
100050	1091871	OK I thought it was in Washington state.	OK I thought it was in Washington state.	51933756	1473275984074	1473275984162	t	84
100050	1091871	OK I thought it was in Washington state.	OK I thought it was in Washington state.	51933759	1473275984410	1473275984512	 	32
100050	1091871	OK I thought it was in Washington state.	OK I thought it was in Washington state.	51933762	1473275984643	1473275984717	i	73
100050	1091871	OK I thought it was in Washington state.	OK I thought it was in Washington state.	51933766	1473275984779	1473275984881	t	84
100050	1091871	OK I thought it was in Washington state.	OK I thought it was in Washington state.	51933821	1473275984965	1473275985066	 	32
100050	1091871	OK I thought it was in Washington state.	OK I thought it was in Washington state.	51933825	1473275985497	1473275985652	w	87
100050	1091871	OK I thought it was in Washington state.	OK I thought it was in Washington state.	51933829	1473275985629	1473275985818	a	65
100050	1091871	OK I thought it was in Washington state.	OK I thought it was in Washington state.	51933833	1473275985767	1473275985882	s	83
100050	1091871	OK I thought it was in Washington state.	OK I thought it was in Washington state.	51933841	1473275985948	1473275986052	 	32
100050	1091871	OK I thought it was in Washington state.	OK I thought it was in Washington state.	51933935	1473275986147	1473275986232	i	73
100050	1091871	OK I thought it was in Washington state.	OK I thought it was in Washington state.	51933940	1473275986314	1473275986399	n	78
100050	1091871	OK I thought it was in Washington state.	OK I thought it was in Washington state.	51933944	1473275986547	1473275986652	 	32
100050	1091871	OK I thought it was in Washington state.	OK I thought it was in Washington state.	51933948	1473275986699	1473275986830	w	87
100050	1091871	OK I thought it was in Washington state.	OK I thought it was in Washington state.	51933951	1473275987028	1473275987114	BKSP	8
100050	1091871	OK I thought it was in Washington state.	OK I thought it was in Washington state.	51934011	1473275987114	1473275987461	SHIFT	16
100050	1091871	OK I thought it was in Washington state.	OK I thought it was in Washington state.	51933952	1473275987253	1473275987369	W	87
100050	1091871	OK I thought it was in Washington state.	OK I thought it was in Washington state.	51934013	1473275987814	1473275987928	a	65
100050	1091871	OK I thought it was in Washington state.	OK I thought it was in Washington state.	51934015	1473275987997	1473275988106	s	83
100050	1091871	OK I thought it was in Washington state.	OK I thought it was in Washington state.	51934019	1473275988137	1473275988248	h	72
100050	1091871	OK I thought it was in Washington state.	OK I thought it was in Washington state.	51934022	1473275988354	1473275988451	i	73
100050	1091871	OK I thought it was in Washington state.	OK I thought it was in Washington state.	51934025	1473275988528	1473275988612	n	78
100050	1091871	OK I thought it was in Washington state.	OK I thought it was in Washington state.	51934090	1473275988659	1473275988754	g	71
100050	1091871	OK I thought it was in Washington state.	OK I thought it was in Washington state.	51934093	1473275989132	1473275989230	t	84
100050	1091871	OK I thought it was in Washington state.	OK I thought it was in Washington state.	51934097	1473275989262	1473275989364	o	79
100050	1091871	OK I thought it was in Washington state.	OK I thought it was in Washington state.	51934098	1473275989477	1473275989566	n	78
100050	1091871	OK I thought it was in Washington state.	OK I thought it was in Washington state.	51934099	1473275989696	1473275989780	 	32
100050	1091871	OK I thought it was in Washington state.	OK I thought it was in Washington state.	51934145	1473275989851	1473275989997	s	83
100050	1091871	OK I thought it was in Washington state.	OK I thought it was in Washington state.	51934146	1473275990115	1473275990253	t	84
100050	1091871	OK I thought it was in Washington state.	OK I thought it was in Washington state.	51934147	1473275990373	1473275990498	a	65
100050	1091871	OK I thought it was in Washington state.	OK I thought it was in Washington state.	51934148	1473275990611	1473275990812	t	84
100050	1091871	OK I thought it was in Washington state.	OK I thought it was in Washington state.	51934241	1473275990752	1473275990927	e	69
100050	1091871	OK I thought it was in Washington state.	OK I thought it was in Washington state.	51934245	1473275991477	1473275991560	,	188
100050	1091871	OK I thought it was in Washington state.	OK I thought it was in Washington state.	51934249	1473275992311	1473275992394	BKSP	8
100050	1091871	OK I thought it was in Washington state.	OK I thought it was in Washington state.	51934251	1473275992442	1473275992529	.	190
100050	1091890	The area has an Armenian population but falls within Azerbajian.	The area has an Armenian popilation but falls within Azerbajian.	51934708	1473275999100	1473275999437	SHIFT	16
100050	1091890	The area has an Armenian population but falls within Azerbajian.	The area has an Armenian popilation but falls within Azerbajian.	51934707	1473275999290	1473275999375	T	84
100050	1091890	The area has an Armenian population but falls within Azerbajian.	The area has an Armenian popilation but falls within Azerbajian.	51934710	1473275999506	1473275999581	h	72
100050	1091890	The area has an Armenian population but falls within Azerbajian.	The area has an Armenian popilation but falls within Azerbajian.	51934714	1473275999612	1473275999718	e	69
100050	1091890	The area has an Armenian population but falls within Azerbajian.	The area has an Armenian popilation but falls within Azerbajian.	51934719	1473275999775	1473275999859	 	32
100050	1091890	The area has an Armenian population but falls within Azerbajian.	The area has an Armenian popilation but falls within Azerbajian.	51934724	1473275999906	1473276000076	a	65
100050	1091890	The area has an Armenian population but falls within Azerbajian.	The area has an Armenian popilation but falls within Azerbajian.	51934786	1473276000073	1473276000286	r	82
100050	1091890	The area has an Armenian population but falls within Azerbajian.	The area has an Armenian popilation but falls within Azerbajian.	51934789	1473276000239	1473276000390	e	69
100050	1091890	The area has an Armenian population but falls within Azerbajian.	The area has an Armenian popilation but falls within Azerbajian.	51934793	1473276000531	1473276000618	a	65
100050	1091890	The area has an Armenian population but falls within Azerbajian.	The area has an Armenian popilation but falls within Azerbajian.	51934798	1473276000890	1473276000975	 	32
100050	1091890	The area has an Armenian population but falls within Azerbajian.	The area has an Armenian popilation but falls within Azerbajian.	51934805	1473276001080	1473276001162	h	72
100050	1091890	The area has an Armenian population but falls within Azerbajian.	The area has an Armenian popilation but falls within Azerbajian.	51934815	1473276001193	1473276001384	a	65
100050	1091890	The area has an Armenian population but falls within Azerbajian.	The area has an Armenian popilation but falls within Azerbajian.	51934917	1473276001327	1473276001469	s	83
100050	1091890	The area has an Armenian population but falls within Azerbajian.	The area has an Armenian popilation but falls within Azerbajian.	51934919	1473276001547	1473276001650	 	32
100050	1091890	The area has an Armenian population but falls within Azerbajian.	The area has an Armenian popilation but falls within Azerbajian.	51934925	1473276002005	1473276002112	a	65
100050	1091890	The area has an Armenian population but falls within Azerbajian.	The area has an Armenian popilation but falls within Azerbajian.	51934928	1473276002159	1473276002234	n	78
100050	1091890	The area has an Armenian population but falls within Azerbajian.	The area has an Armenian popilation but falls within Azerbajian.	51934932	1473276002463	1473276002534	 	32
100050	1091890	The area has an Armenian population but falls within Azerbajian.	The area has an Armenian popilation but falls within Azerbajian.	51934937	1473276002582	1473276002887	SHIFT	16
100050	1091890	The area has an Armenian population but falls within Azerbajian.	The area has an Armenian popilation but falls within Azerbajian.	51935073	1473276002765	1473276002922	A	65
100050	1091890	The area has an Armenian population but falls within Azerbajian.	The area has an Armenian popilation but falls within Azerbajian.	51935078	1473276003994	1473276004084	r	82
100050	1091890	The area has an Armenian population but falls within Azerbajian.	The area has an Armenian popilation but falls within Azerbajian.	51935086	1473276004260	1473276004332	m	77
100050	1091890	The area has an Armenian population but falls within Azerbajian.	The area has an Armenian popilation but falls within Azerbajian.	51935092	1473276004606	1473276004699	e	69
100050	1091890	The area has an Armenian population but falls within Azerbajian.	The area has an Armenian popilation but falls within Azerbajian.	51935098	1473276004846	1473276004915	n	78
100050	1091890	The area has an Armenian population but falls within Azerbajian.	The area has an Armenian popilation but falls within Azerbajian.	51935103	1473276006030	1473276006104	i	73
100050	1091890	The area has an Armenian population but falls within Azerbajian.	The area has an Armenian popilation but falls within Azerbajian.	51935173	1473276006161	1473276006262	a	65
100050	1091890	The area has an Armenian population but falls within Azerbajian.	The area has an Armenian popilation but falls within Azerbajian.	51935176	1473276006314	1473276006381	n	78
100050	1091890	The area has an Armenian population but falls within Azerbajian.	The area has an Armenian popilation but falls within Azerbajian.	51935178	1473276006530	1473276006638	 	32
100050	1091890	The area has an Armenian population but falls within Azerbajian.	The area has an Armenian popilation but falls within Azerbajian.	51935180	1473276006646	1473276006893	SHIFT	16
100050	1091890	The area has an Armenian population but falls within Azerbajian.	The area has an Armenian popilation but falls within Azerbajian.	51935183	1473276007098	1473276007238	p	80
100050	1091890	The area has an Armenian population but falls within Azerbajian.	The area has an Armenian popilation but falls within Azerbajian.	51935289	1473276007230	1473276007331	o	79
100050	1091890	The area has an Armenian population but falls within Azerbajian.	The area has an Armenian popilation but falls within Azerbajian.	51935293	1473276007763	1473276007864	p	80
100050	1091890	The area has an Armenian population but falls within Azerbajian.	The area has an Armenian popilation but falls within Azerbajian.	51935296	1473276008194	1473276008293	i	73
100050	1091890	The area has an Armenian population but falls within Azerbajian.	The area has an Armenian popilation but falls within Azerbajian.	51935301	1473276008495	1473276008578	l	76
100050	1091890	The area has an Armenian population but falls within Azerbajian.	The area has an Armenian popilation but falls within Azerbajian.	51935308	1473276008662	1473276008776	a	65
100050	1091890	The area has an Armenian population but falls within Azerbajian.	The area has an Armenian popilation but falls within Azerbajian.	51935313	1473276008880	1473276008992	t	84
100050	1091890	The area has an Armenian population but falls within Azerbajian.	The area has an Armenian popilation but falls within Azerbajian.	51935344	1473276009039	1473276009245	i	73
100050	1091890	The area has an Armenian population but falls within Azerbajian.	The area has an Armenian popilation but falls within Azerbajian.	51935347	1473276009194	1473276009327	o	79
100050	1091890	The area has an Armenian population but falls within Azerbajian.	The area has an Armenian popilation but falls within Azerbajian.	51935352	1473276009443	1473276009528	n	78
100050	1091890	The area has an Armenian population but falls within Azerbajian.	The area has an Armenian popilation but falls within Azerbajian.	51935357	1473276009647	1473276009745	 	32
100050	1091890	The area has an Armenian population but falls within Azerbajian.	The area has an Armenian popilation but falls within Azerbajian.	51935363	1473276009760	1473276009811	a	65
100050	1091890	The area has an Armenian population but falls within Azerbajian.	The area has an Armenian popilation but falls within Azerbajian.	51935488	1473276010060	1473276010147	BKSP	8
100050	1091890	The area has an Armenian population but falls within Azerbajian.	The area has an Armenian popilation but falls within Azerbajian.	51935491	1473276010376	1473276010475	b	66
100050	1091890	The area has an Armenian population but falls within Azerbajian.	The area has an Armenian popilation but falls within Azerbajian.	51935495	1473276010626	1473276010696	u	85
100050	1091890	The area has an Armenian population but falls within Azerbajian.	The area has an Armenian popilation but falls within Azerbajian.	51935499	1473276010788	1473276010890	t	84
100050	1091890	The area has an Armenian population but falls within Azerbajian.	The area has an Armenian popilation but falls within Azerbajian.	51935504	1473276012343	1473276012425	 	32
100050	1091890	The area has an Armenian population but falls within Azerbajian.	The area has an Armenian popilation but falls within Azerbajian.	51935509	1473276012924	1473276013058	f	70
100050	1091890	The area has an Armenian population but falls within Azerbajian.	The area has an Armenian popilation but falls within Azerbajian.	51935535	1473276013023	1473276013122	a	65
100050	1091890	The area has an Armenian population but falls within Azerbajian.	The area has an Armenian popilation but falls within Azerbajian.	51935536	1473276013194	1473276013273	l	76
100050	1091890	The area has an Armenian population but falls within Azerbajian.	The area has an Armenian popilation but falls within Azerbajian.	51935537	1473276013375	1473276013464	l	76
100050	1091890	The area has an Armenian population but falls within Azerbajian.	The area has an Armenian popilation but falls within Azerbajian.	51935538	1473276013500	1473276013621	s	83
100050	1091890	The area has an Armenian population but falls within Azerbajian.	The area has an Armenian popilation but falls within Azerbajian.	51935539	1473276013699	1473276013805	 	32
100050	1091890	The area has an Armenian population but falls within Azerbajian.	The area has an Armenian popilation but falls within Azerbajian.	51935540	1473276013837	1473276013921	w	87
100050	1091890	The area has an Armenian population but falls within Azerbajian.	The area has an Armenian popilation but falls within Azerbajian.	51935580	1473276013945	1473276014038	i	73
100050	1091890	The area has an Armenian population but falls within Azerbajian.	The area has an Armenian popilation but falls within Azerbajian.	51935583	1473276014262	1473276014362	t	84
100050	1091890	The area has an Armenian population but falls within Azerbajian.	The area has an Armenian popilation but falls within Azerbajian.	51935586	1473276014393	1473276014494	h	72
100050	1091890	The area has an Armenian population but falls within Azerbajian.	The area has an Armenian popilation but falls within Azerbajian.	51935589	1473276014551	1473276014653	i	73
100050	1091890	The area has an Armenian population but falls within Azerbajian.	The area has an Armenian popilation but falls within Azerbajian.	51935593	1473276014971	1473276015055	n	78
100050	1091890	The area has an Armenian population but falls within Azerbajian.	The area has an Armenian popilation but falls within Azerbajian.	51935710	1473276015619	1473276015705	 	32
100050	1091890	The area has an Armenian population but falls within Azerbajian.	The area has an Armenian popilation but falls within Azerbajian.	51935711	1473276015873	1473276016226	SHIFT	16
100050	1091890	The area has an Armenian population but falls within Azerbajian.	The area has an Armenian popilation but falls within Azerbajian.	51935713	1473276016121	1473276016242	A	65
100050	1091890	The area has an Armenian population but falls within Azerbajian.	The area has an Armenian popilation but falls within Azerbajian.	51935719	1473276016757	1473276016858	z	90
100050	1091890	The area has an Armenian population but falls within Azerbajian.	The area has an Armenian popilation but falls within Azerbajian.	51935723	1473276017037	1473276017164	e	69
100050	1091890	The area has an Armenian population but falls within Azerbajian.	The area has an Armenian popilation but falls within Azerbajian.	51935725	1473276017275	1473276017377	r	82
100050	1091890	The area has an Armenian population but falls within Azerbajian.	The area has an Armenian popilation but falls within Azerbajian.	51935890	1473276018401	1473276018485	b	66
100050	1091890	The area has an Armenian population but falls within Azerbajian.	The area has an Armenian popilation but falls within Azerbajian.	51935892	1473276019494	1473276019552	a	65
100050	1091890	The area has an Armenian population but falls within Azerbajian.	The area has an Armenian popilation but falls within Azerbajian.	51935894	1473276020514	1473276020598	j	74
100050	1091890	The area has an Armenian population but falls within Azerbajian.	The area has an Armenian popilation but falls within Azerbajian.	51935897	1473276020760	1473276020833	i	73
100050	1091890	The area has an Armenian population but falls within Azerbajian.	The area has an Armenian popilation but falls within Azerbajian.	51935898	1473276020903	1473276020983	a	65
100050	1091890	The area has an Armenian population but falls within Azerbajian.	The area has an Armenian popilation but falls within Azerbajian.	51935950	1473276021051	1473276021125	n	78
100050	1091890	The area has an Armenian population but falls within Azerbajian.	The area has an Armenian popilation but falls within Azerbajian.	51935951	1473276021466	1473276021533	.	190
100050	1091921	I am too, and we are working very hard to turn it around.	I am too, and we are working very hard to turn it around.	51936125	1473276023761	1473276024259	SHIFT	16
100050	1091921	I am too, and we are working very hard to turn it around.	I am too, and we are working very hard to turn it around.	51936128	1473276024145	1473276024261	T	84
100050	1091921	I am too, and we are working very hard to turn it around.	I am too, and we are working very hard to turn it around.	51936134	1473276025547	1473276025627	 	32
100050	1091921	I am too, and we are working very hard to turn it around.	I am too, and we are working very hard to turn it around.	51936138	1473276025646	1473276025728	a	65
100050	1091921	I am too, and we are working very hard to turn it around.	I am too, and we are working very hard to turn it around.	51936142	1473276025796	1473276025878	m	77
100050	1091921	I am too, and we are working very hard to turn it around.	I am too, and we are working very hard to turn it around.	51936149	1473276026051	1473276026145	 	32
100050	1091921	I am too, and we are working very hard to turn it around.	I am too, and we are working very hard to turn it around.	51936295	1473276026187	1473276026296	t	84
100050	1091921	I am too, and we are working very hard to turn it around.	I am too, and we are working very hard to turn it around.	51936299	1473276026328	1473276026378	o	79
100050	1091921	I am too, and we are working very hard to turn it around.	I am too, and we are working very hard to turn it around.	51936309	1473276026475	1473276026558	o	79
100050	1091921	I am too, and we are working very hard to turn it around.	I am too, and we are working very hard to turn it around.	51936319	1473276027027	1473276027782	BKSP	8
100050	1091921	I am too, and we are working very hard to turn it around.	I am too, and we are working very hard to turn it around.	51936333	1473276027860	1473276028482	SHIFT	16
100050	1091921	I am too, and we are working very hard to turn it around.	I am too, and we are working very hard to turn it around.	51936328	1473276028341	1473276028409	I	73
100050	1091921	I am too, and we are working very hard to turn it around.	I am too, and we are working very hard to turn it around.	51936337	1473276028617	1473276028707	 	32
100050	1091921	I am too, and we are working very hard to turn it around.	I am too, and we are working very hard to turn it around.	51936386	1473276028771	1473276028845	a	65
100050	1091921	I am too, and we are working very hard to turn it around.	I am too, and we are working very hard to turn it around.	51936389	1473276028933	1473276029009	m	77
100050	1091921	I am too, and we are working very hard to turn it around.	I am too, and we are working very hard to turn it around.	51936394	1473276029453	1473276029556	 	32
100050	1091921	I am too, and we are working very hard to turn it around.	I am too, and we are working very hard to turn it around.	51936398	1473276029590	1473276029690	t	84
100050	1091921	I am too, and we are working very hard to turn it around.	I am too, and we are working very hard to turn it around.	51936401	1473276029753	1473276029821	o	79
100050	1091921	I am too, and we are working very hard to turn it around.	I am too, and we are working very hard to turn it around.	51936470	1473276029890	1473276029990	o	79
100050	1091921	I am too, and we are working very hard to turn it around.	I am too, and we are working very hard to turn it around.	51936471	1473276030139	1473276030196	m	188
100050	1091921	I am too, and we are working very hard to turn it around.	I am too, and we are working very hard to turn it around.	51936474	1473276030740	1473276030824	BKSP	8
100050	1091921	I am too, and we are working very hard to turn it around.	I am too, and we are working very hard to turn it around.	51936476	1473276031142	1473276031221	 	32
100050	1091921	I am too, and we are working very hard to turn it around.	I am too, and we are working very hard to turn it around.	51936480	1473276031268	1473276031361	a	65
100050	1091921	I am too, and we are working very hard to turn it around.	I am too, and we are working very hard to turn it around.	51936498	1473276031400	1473276031458	n	78
100050	1091921	I am too, and we are working very hard to turn it around.	I am too, and we are working very hard to turn it around.	51936500	1473276031516	1473276031606	d	68
100050	1091921	I am too, and we are working very hard to turn it around.	I am too, and we are working very hard to turn it around.	51936504	1473276031669	1473276031769	 	32
100050	1091921	I am too, and we are working very hard to turn it around.	I am too, and we are working very hard to turn it around.	51936505	1473276031846	1473276032020	w	87
100050	1091921	I am too, and we are working very hard to turn it around.	I am too, and we are working very hard to turn it around.	51936542	1473276031969	1473276032106	e	69
100050	1091921	I am too, and we are working very hard to turn it around.	I am too, and we are working very hard to turn it around.	51936544	1473276032205	1473276032288	 	32
100050	1091921	I am too, and we are working very hard to turn it around.	I am too, and we are working very hard to turn it around.	51936547	1473276032339	1473276032505	a	65
100050	1091921	I am too, and we are working very hard to turn it around.	I am too, and we are working very hard to turn it around.	51936551	1473276032485	1473276032686	r	82
100050	1091921	I am too, and we are working very hard to turn it around.	I am too, and we are working very hard to turn it around.	51936554	1473276032638	1473276032756	e	69
100050	1091921	I am too, and we are working very hard to turn it around.	I am too, and we are working very hard to turn it around.	51936556	1473276032808	1473276032908	 	32
100050	1091921	I am too, and we are working very hard to turn it around.	I am too, and we are working very hard to turn it around.	51936571	1473276033024	1473276033124	w	87
100050	1091921	I am too, and we are working very hard to turn it around.	I am too, and we are working very hard to turn it around.	51936573	1473276033171	1473276033284	o	79
100050	1091921	I am too, and we are working very hard to turn it around.	I am too, and we are working very hard to turn it around.	51936576	1473276033356	1473276033456	r	82
100050	1091921	I am too, and we are working very hard to turn it around.	I am too, and we are working very hard to turn it around.	51936579	1473276033487	1473276033624	k	75
100050	1091921	I am too, and we are working very hard to turn it around.	I am too, and we are working very hard to turn it around.	51936582	1473276033703	1473276033835	i	73
100050	1091921	I am too, and we are working very hard to turn it around.	I am too, and we are working very hard to turn it around.	51936653	1473276033940	1473276034043	n	78
100050	1091921	I am too, and we are working very hard to turn it around.	I am too, and we are working very hard to turn it around.	51936656	1473276034074	1473276034169	g	71
100050	1091921	I am too, and we are working very hard to turn it around.	I am too, and we are working very hard to turn it around.	51936659	1473276034224	1473276034324	 	32
100050	1091921	I am too, and we are working very hard to turn it around.	I am too, and we are working very hard to turn it around.	51936663	1473276034443	1473276034560	e	69
100050	1091921	I am too, and we are working very hard to turn it around.	I am too, and we are working very hard to turn it around.	51936665	1473276034777	1473276034876	BKSP	8
100050	1091921	I am too, and we are working very hard to turn it around.	I am too, and we are working very hard to turn it around.	51936669	1473276034895	1473276035065	v	86
100050	1091921	I am too, and we are working very hard to turn it around.	I am too, and we are working very hard to turn it around.	51936723	1473276035016	1473276035215	e	69
100050	1091921	I am too, and we are working very hard to turn it around.	I am too, and we are working very hard to turn it around.	51936730	1473276035235	1473276035350	r	82
100050	1091921	I am too, and we are working very hard to turn it around.	I am too, and we are working very hard to turn it around.	51936739	1473276035521	1473276035618	y	89
100050	1091921	I am too, and we are working very hard to turn it around.	I am too, and we are working very hard to turn it around.	51936746	1473276035863	1473276035948	 	32
100050	1091921	I am too, and we are working very hard to turn it around.	I am too, and we are working very hard to turn it around.	51936753	1473276036048	1473276036124	h	72
100050	1091921	I am too, and we are working very hard to turn it around.	I am too, and we are working very hard to turn it around.	51936759	1473276036164	1473276036308	a	65
100050	1091921	I am too, and we are working very hard to turn it around.	I am too, and we are working very hard to turn it around.	51936792	1473276036272	1473276036412	r	82
100050	1091921	I am too, and we are working very hard to turn it around.	I am too, and we are working very hard to turn it around.	51936795	1473276036666	1473276036782	d	68
100050	1091921	I am too, and we are working very hard to turn it around.	I am too, and we are working very hard to turn it around.	51936799	1473276036912	1473276036999	 	32
100050	1091921	I am too, and we are working very hard to turn it around.	I am too, and we are working very hard to turn it around.	51936809	1473276037040	1473276037144	t	84
100050	1091921	I am too, and we are working very hard to turn it around.	I am too, and we are working very hard to turn it around.	51936817	1473276037175	1473276037244	o	79
100050	1091921	I am too, and we are working very hard to turn it around.	I am too, and we are working very hard to turn it around.	51936824	1473276037412	1473276037516	 	32
100050	1091921	I am too, and we are working very hard to turn it around.	I am too, and we are working very hard to turn it around.	51936864	1473276037597	1473276037713	t	84
100050	1091921	I am too, and we are working very hard to turn it around.	I am too, and we are working very hard to turn it around.	51936867	1473276037766	1473276037850	u	85
100050	1091921	I am too, and we are working very hard to turn it around.	I am too, and we are working very hard to turn it around.	51936870	1473276037927	1473276038014	r	82
100050	1091921	I am too, and we are working very hard to turn it around.	I am too, and we are working very hard to turn it around.	51936875	1473276038114	1473276038199	n	78
100050	1091921	I am too, and we are working very hard to turn it around.	I am too, and we are working very hard to turn it around.	51936879	1473276038334	1473276038447	 	32
100050	1091921	I am too, and we are working very hard to turn it around.	I am too, and we are working very hard to turn it around.	51936924	1473276038552	1473276038614	i	73
100050	1091921	I am too, and we are working very hard to turn it around.	I am too, and we are working very hard to turn it around.	51936925	1473276038690	1473276038803	t	84
100050	1091921	I am too, and we are working very hard to turn it around.	I am too, and we are working very hard to turn it around.	51936926	1473276038834	1473276038943	 	32
100050	1091921	I am too, and we are working very hard to turn it around.	I am too, and we are working very hard to turn it around.	51936929	1473276038989	1473276039074	w	87
100050	1091921	I am too, and we are working very hard to turn it around.	I am too, and we are working very hard to turn it around.	51936932	1473276039426	1473276039512	BKSP	8
100050	1091921	I am too, and we are working very hard to turn it around.	I am too, and we are working very hard to turn it around.	51936937	1473276039532	1473276039659	a	65
100050	1091921	I am too, and we are working very hard to turn it around.	I am too, and we are working very hard to turn it around.	51936980	1473276039739	1473276039858	r	82
100050	1091921	I am too, and we are working very hard to turn it around.	I am too, and we are working very hard to turn it around.	51936984	1473276039945	1473276040074	o	79
100050	1091921	I am too, and we are working very hard to turn it around.	I am too, and we are working very hard to turn it around.	51936990	1473276040136	1473276040214	u	85
100050	1091921	I am too, and we are working very hard to turn it around.	I am too, and we are working very hard to turn it around.	51936994	1473276040374	1473276040458	n	78
100050	1091921	I am too, and we are working very hard to turn it around.	I am too, and we are working very hard to turn it around.	51936996	1473276040490	1473276040606	d	68
100050	1091921	I am too, and we are working very hard to turn it around.	I am too, and we are working very hard to turn it around.	51937069	1473276041072	1473276041145	.	190
100050	1091944	He said he was not aware he suffered from it.	He said he was not aware he sufferend from it.	51937565	1473276046025	1473276046508	SHIFT	16
100050	1091944	He said he was not aware he suffered from it.	He said he was not aware he sufferend from it.	51937562	1473276046423	1473276046491	H	72
100050	1091944	He said he was not aware he suffered from it.	He said he was not aware he sufferend from it.	51937572	1473276046575	1473276046687	e	69
100050	1091944	He said he was not aware he suffered from it.	He said he was not aware he sufferend from it.	51937579	1473276047423	1473276047489	 	32
100050	1091944	He said he was not aware he suffered from it.	He said he was not aware he sufferend from it.	51937583	1473276047850	1473276047955	BKSP	8
100050	1091944	He said he was not aware he suffered from it.	He said he was not aware he sufferend from it.	51937587	1473276048128	1473276048204	s	83
100050	1091944	He said he was not aware he suffered from it.	He said he was not aware he sufferend from it.	51937593	1473276048510	1473276048578	BKSP	8
100050	1091944	He said he was not aware he suffered from it.	He said he was not aware he sufferend from it.	51937598	1473276048667	1473276048786	BKSP	8
100050	1091944	He said he was not aware he suffered from it.	He said he was not aware he sufferend from it.	51937604	1473276048902	1473276049019	BKSP	8
100050	1091944	He said he was not aware he suffered from it.	He said he was not aware he sufferend from it.	51937614	1473276049139	1473276050077	SHIFT	16
100050	1091944	He said he was not aware he suffered from it.	He said he was not aware he sufferend from it.	51937672	1473276050008	1473276050086	H	72
100050	1091944	He said he was not aware he suffered from it.	He said he was not aware he sufferend from it.	51937677	1473276050142	1473276050254	e	69
100050	1091944	He said he was not aware he suffered from it.	He said he was not aware he sufferend from it.	51937682	1473276050392	1473276050478	 	32
100050	1091944	He said he was not aware he suffered from it.	He said he was not aware he sufferend from it.	51937688	1473276050859	1473276051021	d	68
100050	1091944	He said he was not aware he suffered from it.	He said he was not aware he sufferend from it.	51937692	1473276051259	1473276051335	BKSP	8
100050	1091944	He said he was not aware he suffered from it.	He said he was not aware he sufferend from it.	51937695	1473276051360	1473276051536	s	83
100050	1091944	He said he was not aware he suffered from it.	He said he was not aware he sufferend from it.	51937784	1473276051491	1473276051625	a	65
100050	1091944	He said he was not aware he suffered from it.	He said he was not aware he sufferend from it.	51937788	1473276051722	1473276051804	i	73
100050	1091944	He said he was not aware he suffered from it.	He said he was not aware he sufferend from it.	51937791	1473276051836	1473276051919	f	68
100050	1091944	He said he was not aware he suffered from it.	He said he was not aware he sufferend from it.	51937795	1473276052485	1473276052551	BKSP	8
100050	1091944	He said he was not aware he suffered from it.	He said he was not aware he sufferend from it.	51937799	1473276052756	1473276052834	 	32
100050	1091944	He said he was not aware he suffered from it.	He said he was not aware he sufferend from it.	51937802	1473276053022	1473276053094	h	72
100050	1091944	He said he was not aware he suffered from it.	He said he was not aware he sufferend from it.	51937822	1473276053137	1473276053248	e	69
100050	1091944	He said he was not aware he suffered from it.	He said he was not aware he sufferend from it.	51937827	1473276053313	1473276053413	 	32
100050	1091944	He said he was not aware he suffered from it.	He said he was not aware he sufferend from it.	51937832	1473276053413	1473276053568	w	87
100050	1091944	He said he was not aware he suffered from it.	He said he was not aware he sufferend from it.	51937837	1473276053531	1473276053717	a	65
100050	1091944	He said he was not aware he suffered from it.	He said he was not aware he sufferend from it.	51937887	1473276053656	1473276053791	s	83
100050	1091944	He said he was not aware he suffered from it.	He said he was not aware he sufferend from it.	51937890	1473276053822	1473276053916	 	32
100050	1091944	He said he was not aware he suffered from it.	He said he was not aware he sufferend from it.	51937895	1473276054397	1473276054482	n	78
100050	1091944	He said he was not aware he suffered from it.	He said he was not aware he sufferend from it.	51937902	1473276054578	1473276054666	o	79
100050	1091944	He said he was not aware he suffered from it.	He said he was not aware he sufferend from it.	51937906	1473276054716	1473276054822	t	84
100050	1091944	He said he was not aware he suffered from it.	He said he was not aware he sufferend from it.	51937910	1473276054911	1473276055014	 	32
100050	1091944	He said he was not aware he suffered from it.	He said he was not aware he sufferend from it.	51937966	1473276055231	1473276055363	a	65
100050	1091944	He said he was not aware he suffered from it.	He said he was not aware he sufferend from it.	51937970	1473276055715	1473276055799	w	87
100050	1091944	He said he was not aware he suffered from it.	He said he was not aware he sufferend from it.	51937975	1473276056067	1473276056222	a	65
100050	1091944	He said he was not aware he suffered from it.	He said he was not aware he sufferend from it.	51937979	1473276056239	1473276056482	r	82
100050	1091944	He said he was not aware he suffered from it.	He said he was not aware he sufferend from it.	51938046	1473276056425	1473276056556	e	69
100050	1091944	He said he was not aware he suffered from it.	He said he was not aware he sufferend from it.	51938050	1473276056660	1473276056759	 	32
100050	1091944	He said he was not aware he suffered from it.	He said he was not aware he sufferend from it.	51938055	1473276056906	1473276056980	h	72
100050	1091944	He said he was not aware he suffered from it.	He said he was not aware he sufferend from it.	51938059	1473276057028	1473276057147	e	69
100050	1091944	He said he was not aware he suffered from it.	He said he was not aware he sufferend from it.	51938063	1473276057260	1473276057359	 	32
100050	1091944	He said he was not aware he suffered from it.	He said he was not aware he sufferend from it.	51938065	1473276057390	1473276057510	s	83
100050	1091944	He said he was not aware he suffered from it.	He said he was not aware he sufferend from it.	51938098	1473276058194	1473276058263	u	85
100050	1091944	He said he was not aware he suffered from it.	He said he was not aware he sufferend from it.	51938101	1473276058392	1473276058462	f	70
100050	1091944	He said he was not aware he suffered from it.	He said he was not aware he sufferend from it.	51938103	1473276058534	1473276058638	f	70
100050	1091944	He said he was not aware he suffered from it.	He said he was not aware he sufferend from it.	51938105	1473276058655	1473276058821	e	69
100050	1091944	He said he was not aware he suffered from it.	He said he was not aware he sufferend from it.	51938169	1473276058769	1473276058885	r	82
100050	1091944	He said he was not aware he suffered from it.	He said he was not aware he sufferend from it.	51938174	1473276058942	1473276059061	e	69
100050	1091944	He said he was not aware he suffered from it.	He said he was not aware he sufferend from it.	51938176	1473276059145	1473276059224	n	78
100050	1091944	He said he was not aware he suffered from it.	He said he was not aware he sufferend from it.	51938180	1473276059277	1473276059361	d	68
100050	1091944	He said he was not aware he suffered from it.	He said he was not aware he sufferend from it.	51938183	1473276059408	1473276059526	 	32
100050	1091944	He said he was not aware he suffered from it.	He said he was not aware he sufferend from it.	51938188	1473276059874	1473276059974	f	70
100050	1091944	He said he was not aware he suffered from it.	He said he was not aware he sufferend from it.	51938222	1473276060074	1473276060152	r	82
100050	1091944	He said he was not aware he suffered from it.	He said he was not aware he sufferend from it.	51938228	1473276060178	1473276060353	o	79
100050	1091944	He said he was not aware he suffered from it.	He said he was not aware he sufferend from it.	51938231	1473276060337	1473276060441	m	77
100050	1091944	He said he was not aware he suffered from it.	He said he was not aware he sufferend from it.	51938232	1473276060539	1473276060642	 	32
100050	1091944	He said he was not aware he suffered from it.	He said he was not aware he sufferend from it.	51938235	1473276060709	1473276060807	i	73
100050	1091944	He said he was not aware he suffered from it.	He said he was not aware he sufferend from it.	51938329	1473276060843	1473276060941	t	84
100050	1091944	He said he was not aware he suffered from it.	He said he was not aware he sufferend from it.	51938333	1473276061077	1473276061169	.	190
100050	1091944	He said he was not aware he suffered from it.	He said he was not aware he sufferend from it.	51938338	1473276061105	1473276061173	CTRL	17
100050	1091944	He said he was not aware he suffered from it.	He said he was not aware he sufferend from it.	51938343	1473276061105	1473276061173	ALT	18
100050	1091968	Washington was not moving toward a unilateral lifting of the embargo.	Washington was not moving toward a unilateral lifting of the embargo.	51938889	1473276069705	1473276070158	SHIFT	16
100050	1091968	Washington was not moving toward a unilateral lifting of the embargo.	Washington was not moving toward a unilateral lifting of the embargo.	51938892	1473276070085	1473276070236	W	87
100050	1091968	Washington was not moving toward a unilateral lifting of the embargo.	Washington was not moving toward a unilateral lifting of the embargo.	51938894	1473276070323	1473276070443	a	65
100050	1091968	Washington was not moving toward a unilateral lifting of the embargo.	Washington was not moving toward a unilateral lifting of the embargo.	51938897	1473276070489	1473276070574	h	72
100050	1091968	Washington was not moving toward a unilateral lifting of the embargo.	Washington was not moving toward a unilateral lifting of the embargo.	51938899	1473276070636	1473276070732	s	83
100050	1091968	Washington was not moving toward a unilateral lifting of the embargo.	Washington was not moving toward a unilateral lifting of the embargo.	51938900	1473276071089	1473276071158	BKSP	8
100050	1091968	Washington was not moving toward a unilateral lifting of the embargo.	Washington was not moving toward a unilateral lifting of the embargo.	51938903	1473276071236	1473276071332	BKSP	8
100050	1091968	Washington was not moving toward a unilateral lifting of the embargo.	Washington was not moving toward a unilateral lifting of the embargo.	51938906	1473276071405	1473276071530	s	83
100050	1091968	Washington was not moving toward a unilateral lifting of the embargo.	Washington was not moving toward a unilateral lifting of the embargo.	51938955	1473276071605	1473276071684	h	72
100050	1091968	Washington was not moving toward a unilateral lifting of the embargo.	Washington was not moving toward a unilateral lifting of the embargo.	51938959	1473276071840	1473276071933	i	73
100050	1091968	Washington was not moving toward a unilateral lifting of the embargo.	Washington was not moving toward a unilateral lifting of the embargo.	51938962	1473276072037	1473276072116	n	78
100050	1091968	Washington was not moving toward a unilateral lifting of the embargo.	Washington was not moving toward a unilateral lifting of the embargo.	51938965	1473276072160	1473276072263	g	71
100050	1091968	Washington was not moving toward a unilateral lifting of the embargo.	Washington was not moving toward a unilateral lifting of the embargo.	51938972	1473276072597	1473276072698	t	84
100050	1091968	Washington was not moving toward a unilateral lifting of the embargo.	Washington was not moving toward a unilateral lifting of the embargo.	51939004	1473276072736	1473276072824	o	79
100050	1091968	Washington was not moving toward a unilateral lifting of the embargo.	Washington was not moving toward a unilateral lifting of the embargo.	51939006	1473276072944	1473276073014	n	78
100050	1091968	Washington was not moving toward a unilateral lifting of the embargo.	Washington was not moving toward a unilateral lifting of the embargo.	51939008	1473276073131	1473276073236	 	32
100050	1091968	Washington was not moving toward a unilateral lifting of the embargo.	Washington was not moving toward a unilateral lifting of the embargo.	51939012	1473276073214	1473276073375	w	87
100050	1091968	Washington was not moving toward a unilateral lifting of the embargo.	Washington was not moving toward a unilateral lifting of the embargo.	51939051	1473276073324	1473276073515	a	65
100050	1091968	Washington was not moving toward a unilateral lifting of the embargo.	Washington was not moving toward a unilateral lifting of the embargo.	51939054	1473276073466	1473276073572	s	83
100050	1091968	Washington was not moving toward a unilateral lifting of the embargo.	Washington was not moving toward a unilateral lifting of the embargo.	51939058	1473276073604	1473276073688	 	32
100050	1091968	Washington was not moving toward a unilateral lifting of the embargo.	Washington was not moving toward a unilateral lifting of the embargo.	51939064	1473276073793	1473276073872	n	78
100050	1091968	Washington was not moving toward a unilateral lifting of the embargo.	Washington was not moving toward a unilateral lifting of the embargo.	51939068	1473276073950	1473276074030	o	79
100050	1091968	Washington was not moving toward a unilateral lifting of the embargo.	Washington was not moving toward a unilateral lifting of the embargo.	51939072	1473276074071	1473276074174	t	84
100050	1091968	Washington was not moving toward a unilateral lifting of the embargo.	Washington was not moving toward a unilateral lifting of the embargo.	51939080	1473276074216	1473276074308	 	32
100050	1091968	Washington was not moving toward a unilateral lifting of the embargo.	Washington was not moving toward a unilateral lifting of the embargo.	51939081	1473276074391	1473276074476	m	77
100050	1091968	Washington was not moving toward a unilateral lifting of the embargo.	Washington was not moving toward a unilateral lifting of the embargo.	51939082	1473276074575	1473276074646	o	79
100050	1091968	Washington was not moving toward a unilateral lifting of the embargo.	Washington was not moving toward a unilateral lifting of the embargo.	51939086	1473276074692	1473276074906	v	86
100050	1091968	Washington was not moving toward a unilateral lifting of the embargo.	Washington was not moving toward a unilateral lifting of the embargo.	51939138	1473276074856	1473276074976	e	69
100050	1091968	Washington was not moving toward a unilateral lifting of the embargo.	Washington was not moving toward a unilateral lifting of the embargo.	51939140	1473276075447	1473276075545	BKSP	8
100050	1091968	Washington was not moving toward a unilateral lifting of the embargo.	Washington was not moving toward a unilateral lifting of the embargo.	51939142	1473276075695	1473276075788	i	73
100050	1091968	Washington was not moving toward a unilateral lifting of the embargo.	Washington was not moving toward a unilateral lifting of the embargo.	51939144	1473276075907	1473276075980	n	78
100050	1091968	Washington was not moving toward a unilateral lifting of the embargo.	Washington was not moving toward a unilateral lifting of the embargo.	51939148	1473276076012	1473276076118	g	71
100050	1091968	Washington was not moving toward a unilateral lifting of the embargo.	Washington was not moving toward a unilateral lifting of the embargo.	51939151	1473276076149	1473276076260	 	32
100050	1091968	Washington was not moving toward a unilateral lifting of the embargo.	Washington was not moving toward a unilateral lifting of the embargo.	51939154	1473276076410	1473276076526	t	84
100050	1091968	Washington was not moving toward a unilateral lifting of the embargo.	Washington was not moving toward a unilateral lifting of the embargo.	51939251	1473276076642	1473276076711	o	79
100050	1091968	Washington was not moving toward a unilateral lifting of the embargo.	Washington was not moving toward a unilateral lifting of the embargo.	51939256	1473276076773	1473276076895	w	87
100050	1091968	Washington was not moving toward a unilateral lifting of the embargo.	Washington was not moving toward a unilateral lifting of the embargo.	51939260	1473276077397	1473276077575	a	65
100050	1091968	Washington was not moving toward a unilateral lifting of the embargo.	Washington was not moving toward a unilateral lifting of the embargo.	51939265	1473276077575	1473276077741	r	82
100050	1091968	Washington was not moving toward a unilateral lifting of the embargo.	Washington was not moving toward a unilateral lifting of the embargo.	51939268	1473276077872	1473276078086	d	68
100050	1091968	Washington was not moving toward a unilateral lifting of the embargo.	Washington was not moving toward a unilateral lifting of the embargo.	51939375	1473276078046	1473276078197	s	83
100050	1091968	Washington was not moving toward a unilateral lifting of the embargo.	Washington was not moving toward a unilateral lifting of the embargo.	51939377	1473276078873	1473276078942	BKSP	8
100050	1091968	Washington was not moving toward a unilateral lifting of the embargo.	Washington was not moving toward a unilateral lifting of the embargo.	51939379	1473276079245	1473276079325	 	32
100050	1091968	Washington was not moving toward a unilateral lifting of the embargo.	Washington was not moving toward a unilateral lifting of the embargo.	51939381	1473276079343	1473276079441	a	65
100050	1091968	Washington was not moving toward a unilateral lifting of the embargo.	Washington was not moving toward a unilateral lifting of the embargo.	51939383	1473276079630	1473276079746	 	32
100050	1091968	Washington was not moving toward a unilateral lifting of the embargo.	Washington was not moving toward a unilateral lifting of the embargo.	51939387	1473276079967	1473276080057	u	85
100050	1091968	Washington was not moving toward a unilateral lifting of the embargo.	Washington was not moving toward a unilateral lifting of the embargo.	51939480	1473276080231	1473276080312	b	78
100050	1091968	Washington was not moving toward a unilateral lifting of the embargo.	Washington was not moving toward a unilateral lifting of the embargo.	51939482	1473276080797	1473276080872	BKSP	8
100050	1091968	Washington was not moving toward a unilateral lifting of the embargo.	Washington was not moving toward a unilateral lifting of the embargo.	51939486	1473276081401	1473276081474	i	73
100050	1091968	Washington was not moving toward a unilateral lifting of the embargo.	Washington was not moving toward a unilateral lifting of the embargo.	51939488	1473276081636	1473276081717	l	76
100050	1091968	Washington was not moving toward a unilateral lifting of the embargo.	Washington was not moving toward a unilateral lifting of the embargo.	51939492	1473276081764	1473276081873	a	65
100050	1091968	Washington was not moving toward a unilateral lifting of the embargo.	Washington was not moving toward a unilateral lifting of the embargo.	51939495	1473276081968	1473276082153	t	84
100050	1091968	Washington was not moving toward a unilateral lifting of the embargo.	Washington was not moving toward a unilateral lifting of the embargo.	51939499	1473276082269	1473276082488	e	69
100050	1091968	Washington was not moving toward a unilateral lifting of the embargo.	Washington was not moving toward a unilateral lifting of the embargo.	51939573	1473276082407	1473276082570	r	82
100050	1091968	Washington was not moving toward a unilateral lifting of the embargo.	Washington was not moving toward a unilateral lifting of the embargo.	51939578	1473276082921	1473276083038	a	65
100050	1091968	Washington was not moving toward a unilateral lifting of the embargo.	Washington was not moving toward a unilateral lifting of the embargo.	51939582	1473276083122	1473276083205	l	76
100050	1091968	Washington was not moving toward a unilateral lifting of the embargo.	Washington was not moving toward a unilateral lifting of the embargo.	51939588	1473276083564	1473276083668	 	32
100050	1091968	Washington was not moving toward a unilateral lifting of the embargo.	Washington was not moving toward a unilateral lifting of the embargo.	51939591	1473276083785	1473276083890	l	76
100050	1091968	Washington was not moving toward a unilateral lifting of the embargo.	Washington was not moving toward a unilateral lifting of the embargo.	51939596	1473276084002	1473276084087	i	73
100050	1091968	Washington was not moving toward a unilateral lifting of the embargo.	Washington was not moving toward a unilateral lifting of the embargo.	51939625	1473276084161	1473276084278	f	70
100050	1091968	Washington was not moving toward a unilateral lifting of the embargo.	Washington was not moving toward a unilateral lifting of the embargo.	51939627	1473276084458	1473276084577	t	84
100050	1091968	Washington was not moving toward a unilateral lifting of the embargo.	Washington was not moving toward a unilateral lifting of the embargo.	51939634	1473276084596	1473276084689	i	73
100050	1091968	Washington was not moving toward a unilateral lifting of the embargo.	Washington was not moving toward a unilateral lifting of the embargo.	51939642	1473276084789	1473276084875	n	78
100050	1091968	Washington was not moving toward a unilateral lifting of the embargo.	Washington was not moving toward a unilateral lifting of the embargo.	51939649	1473276084922	1473276085020	g	71
100050	1091968	Washington was not moving toward a unilateral lifting of the embargo.	Washington was not moving toward a unilateral lifting of the embargo.	51939699	1473276085020	1473276085086	 	32
100050	1091968	Washington was not moving toward a unilateral lifting of the embargo.	Washington was not moving toward a unilateral lifting of the embargo.	51939702	1473276085189	1473276085258	o	79
100050	1091968	Washington was not moving toward a unilateral lifting of the embargo.	Washington was not moving toward a unilateral lifting of the embargo.	51939707	1473276085289	1473276085391	f	70
100050	1091968	Washington was not moving toward a unilateral lifting of the embargo.	Washington was not moving toward a unilateral lifting of the embargo.	51939710	1473276085589	1473276085689	 	32
100050	1091968	Washington was not moving toward a unilateral lifting of the embargo.	Washington was not moving toward a unilateral lifting of the embargo.	51939712	1473276085736	1473276085873	t	84
100050	1091968	Washington was not moving toward a unilateral lifting of the embargo.	Washington was not moving toward a unilateral lifting of the embargo.	51939781	1473276085899	1473276085974	h	72
100050	1091968	Washington was not moving toward a unilateral lifting of the embargo.	Washington was not moving toward a unilateral lifting of the embargo.	51939782	1473276086020	1473276086117	e	69
100050	1091968	Washington was not moving toward a unilateral lifting of the embargo.	Washington was not moving toward a unilateral lifting of the embargo.	51939784	1473276086189	1473276086290	 	32
100050	1091968	Washington was not moving toward a unilateral lifting of the embargo.	Washington was not moving toward a unilateral lifting of the embargo.	51939787	1473276087190	1473276087291	e	69
100050	1091968	Washington was not moving toward a unilateral lifting of the embargo.	Washington was not moving toward a unilateral lifting of the embargo.	51939792	1473276087337	1473276087416	m	77
100050	1091968	Washington was not moving toward a unilateral lifting of the embargo.	Washington was not moving toward a unilateral lifting of the embargo.	51939896	1473276087818	1473276087876	b	66
100050	1091968	Washington was not moving toward a unilateral lifting of the embargo.	Washington was not moving toward a unilateral lifting of the embargo.	51939900	1473276087954	1473276088060	a	65
100050	1091968	Washington was not moving toward a unilateral lifting of the embargo.	Washington was not moving toward a unilateral lifting of the embargo.	51939906	1473276088092	1473276088207	r	82
100050	1091968	Washington was not moving toward a unilateral lifting of the embargo.	Washington was not moving toward a unilateral lifting of the embargo.	51939909	1473276088998	1473276089097	g	71
100050	1091968	Washington was not moving toward a unilateral lifting of the embargo.	Washington was not moving toward a unilateral lifting of the embargo.	51939913	1473276089144	1473276089216	o	79
100050	1091968	Washington was not moving toward a unilateral lifting of the embargo.	Washington was not moving toward a unilateral lifting of the embargo.	51939939	1473276089560	1473276089631	.	190
100050	1092000	It was very nice.	It was very nice.#	51940150	1473276092048	1473276092534	SHIFT	16
100050	1092000	It was very nice.	It was very nice.#	51940154	1473276093142	1473276093391	SHIFT	16
100050	1092000	It was very nice.	It was very nice.#	51940160	1473276093359	1473276093413	I	73
100050	1092000	It was very nice.	It was very nice.#	51940165	1473276093479	1473276093579	r	84
100050	1092000	It was very nice.	It was very nice.#	51940170	1473276093611	1473276093695	 	32
100050	1092000	It was very nice.	It was very nice.#	51940175	1473276093980	1473276094045	BKSP	8
100050	1092000	It was very nice.	It was very nice.#	51940178	1473276094133	1473276094237	BKSP	8
100050	1092000	It was very nice.	It was very nice.#	51940181	1473276094441	1473276094531	 	32
100050	1092000	It was very nice.	It was very nice.#	51940225	1473276094511	1473276094675	w	87
100050	1092000	It was very nice.	It was very nice.#	51940229	1473276094623	1473276094799	a	65
100050	1092000	It was very nice.	It was very nice.#	51940236	1473276094756	1473276094890	s	83
100050	1092000	It was very nice.	It was very nice.#	51940244	1473276094926	1473276095023	 	32
100050	1092000	It was very nice.	It was very nice.#	51940249	1473276095409	1473276095488	v	86
100050	1092000	It was very nice.	It was very nice.#	51940258	1473276095493	1473276095639	e	69
100050	1092000	It was very nice.	It was very nice.#	51940314	1473276095588	1473276095685	r	82
100050	1092000	It was very nice.	It was very nice.#	51940317	1473276095709	1473276095783	y	89
100050	1092000	It was very nice.	It was very nice.#	51940321	1473276095957	1473276096057	 	32
100050	1092000	It was very nice.	It was very nice.#	51940323	1473276096177	1473276096258	n	78
100050	1092000	It was very nice.	It was very nice.#	51940325	1473276096341	1473276096424	i	73
100050	1092000	It was very nice.	It was very nice.#	51940326	1473276096473	1473276096676	c	67
100050	1092000	It was very nice.	It was very nice.#	51940371	1473276096610	1473276096741	e	69
100050	1092000	It was very nice.	It was very nice.#	51940376	1473276096869	1473276096926	,	188
100050	1092000	It was very nice.	It was very nice.#	51940381	1473276097226	1473276097294	BKSP	8
100050	1092000	It was very nice.	It was very nice.#	51940387	1473276097457	1473276097524	.	190
